(dp0
S'ACC'
p1
(lp2
S'T'
p3
aF0.212
aF12.475
aI38063
asS'ATG'
p4
(lp5
S'M'
p6
aF1.0
aF20.824
aI63537
asS'AAG'
p7
(lp8
S'K'
p9
aF0.414
aF29.899
aI91227
asS'AAA'
p10
(lp11
g9
aF0.586
aF42.405
aI129386
asS'ATC'
p12
(lp13
S'I'
p14
aF0.258
aF16.926
aI51646
asS'AAC'
p15
(lp16
S'N'
p17
aF0.402
aF24.435
aI74555
asS'ATA'
p18
(lp19
g14
aF0.283
aF18.582
aI56699
asS'AGG'
p20
(lp21
S'R'
p22
aF0.211
aF9.448
aI28829
asS'CCT'
p23
(lp24
S'P'
p25
aF0.311
aF13.586
aI41453
asS'CTC'
p26
(lp27
S'L'
p28
aF0.061
aF5.833
aI17799
asS'AGC'
p29
(lp30
S'S'
p31
aF0.111
aF10.057
aI30686
asS'ACA'
p32
(lp33
g3
aF0.308
aF18.086
aI55183
asS'CTT'
p34
(lp35
g28
aF0.134
aF12.779
aI38991
asS'CAT'
p36
(lp37
S'H'
p38
aF0.641
aF13.946
aI42553
asS'AAT'
p39
(lp40
g17
aF0.598
aF36.337
aI110871
asS'ATT'
p41
(lp42
g14
aF0.459
aF30.098
aI91834
asS'CTG'
p43
(lp44
g28
aF0.112
aF10.738
aI32765
asS'CTA'
p45
(lp46
g28
aF0.141
aF13.469
aI41098
asS'ACT'
p47
(lp48
g3
aF0.341
aF20.043
aI61155
asS'CAC'
p49
(lp50
g38
aF0.359
aF7.812
aI23835
asS'ACG'
p51
(lp52
g3
aF0.139
aF8.186
aI24978
asS'CAA'
p53
(lp54
S'Q'
p55
aF0.684
aF26.667
aI81368
asS'AGT'
p56
(lp57
g31
aF0.162
aF14.602
aI44553
asS'CAG'
p58
(lp59
g55
aF0.316
aF12.324
aI37602
asS'CCG'
p60
(lp61
g25
aF0.125
aF5.483
aI16730
asS'CCC'
p62
(lp63
g25
aF0.16
aF6.992
aI21335
asS'TAT'
p64
(lp65
S'Y'
p66
aF0.571
aF19.279
aI58824
asS'GGT'
p67
(lp68
S'G'
p69
aF0.45
aF22.272
aI67957
asS'TGT'
p70
(lp71
S'C'
p72
aF0.617
aF8.183
aI24967
asS'CGA'
p73
(lp74
g22
aF0.074
aF3.298
aI10062
asS'CCA'
p75
(lp76
g25
aF0.404
aF17.685
aI53960
asS'CGC'
p77
(lp78
g22
aF0.062
aF2.788
aI8507
asS'GAT'
p79
(lp80
S'D'
p81
aF0.651
aF37.25
aI113657
asS'CGG'
p82
(lp83
g22
aF0.044
aF1.99
aI6072
asS'TTT'
p84
(lp85
S'F'
p86
aF0.596
aF26.858
aI81948
asS'TGC'
p87
(lp88
g72
aF0.383
aF5.077
aI15492
asS'GGG'
p89
(lp90
g69
aF0.124
aF6.159
aI18793
asS'TAG'
p91
(lp92
S'-'
p93
aF0.232
aF0.632
aI1928
asS'GGA'
p94
(lp95
g69
aF0.227
aF11.257
aI34346
asS'TGG'
p96
(lp97
S'W'
p98
aF1.0
aF10.467
aI31937
asS'GGC'
p99
(lp100
g69
aF0.198
aF9.793
aI29881
asS'TAC'
p101
(lp102
g66
aF0.429
aF14.467
aI44141
asS'TTC'
p103
(lp104
g86
aF0.404
aF18.241
aI55656
asS'TCG'
p105
(lp106
g31
aF0.098
aF8.888
aI27119
asS'TTA'
p107
(lp108
g28
aF0.277
aF26.486
aI80815
asS'TTG'
p109
(lp110
g28
aF0.276
aF26.356
aI80419
asS'CGT'
p111
(lp112
g22
aF0.142
aF6.36
aI19407
asS'GAA'
p113
(lp114
S'E'
p115
aF0.7
aF44.784
aI136646
asS'TCA'
p116
(lp117
g31
aF0.212
aF19.197
aI58575
asS'GCA'
p118
(lp119
S'A'
p120
aF0.297
aF16.221
aI49494
asS'GTA'
p121
(lp122
S'V'
p123
aF0.22
aF12.293
aI37508
asS'GCC'
p124
(lp125
g120
aF0.221
aF12.074
aI36840
asS'GTC'
p126
(lp127
g123
aF0.202
aF11.252
aI34332
asS'GCG'
p128
(lp129
g120
aF0.115
aF6.275
aI19147
asS'GTG'
p130
(lp131
g123
aF0.194
aF10.826
aI33031
asS'GAG'
p132
(lp133
g115
aF0.3
aF19.205
aI58598
asS'GTT'
p134
(lp135
g123
aF0.384
aF21.447
aI65440
asS'AGA'
p136
(lp137
g22
aF0.466
aF20.852
aI63624
asS'TGA'
p138
(lp139
g93
aF0.313
aF0.853
aI2602
asS'GAC'
p140
(lp141
g81
aF0.349
aF19.969
aI60929
asS'TCC'
p142
(lp143
g31
aF0.157
aF14.166
aI43222
asS'TAA'
p144
(lp145
g93
aF0.455
aF1.241
aI3788
asS'TCT'
p146
(lp147
g31
aF0.259
aF23.438
aI71515
asS'GCT'
p148
(lp149
g120
aF0.368
aF20.089
aI61296
as.