(dp0
S'EXO1'
p1
S'YOR033C'
p2
sS'EFR3'
p3
S'YMR212C'
p4
sS'RDN18-1'
p5
S'RDN18-1'
p6
sS'DIG1'
p7
S'YPL049C'
p8
sS'PRP6'
p9
S'YBR055C'
p10
sS'PRP4'
p11
S'YPR178W'
p12
sS'PRP5'
p13
S'YBR237W'
p14
sS'PRP2'
p15
S'YNR011C'
p16
sS'PRP3'
p17
S'YDR473C'
p18
sS'TRM10'
p19
S'YOL093W'
p20
sS'PEX2'
p21
S'YJL210W'
p22
sS'JAC1'
p23
S'YGL018C'
p24
sS'GCR2'
p25
S'YNL199C'
p26
sS'PRP8'
p27
S'YHR165C'
p28
sS'HYM1'
p29
S'YKL189W'
p30
sS'MSA2'
p31
S'YKR077W'
p32
sS'END3'
p33
S'YNL084C'
p34
sS'CTL1'
p35
S'YMR180C'
p36
sS'GTR1'
p37
S'YML121W'
p38
sS'SFL1'
p39
S'YOR140W'
p40
sS'GSM1'
p41
S'YJL103C'
p42
sS'TRT2'
p43
S'tT(CGU)K'
p44
sS'SYM1'
p45
S'YLR251W'
p46
sS'APA1'
p47
S'YCL050C'
p48
sS'PAD1'
p49
S'YDR538W'
p50
sS'MIH1'
p51
S'YMR036C'
p52
sS'FIT3'
p53
S'YOR383C'
p54
sS'ARX1'
p55
S'YDR101C'
p56
sS'KNH1'
p57
S'YDL049C'
p58
sS'INP1'
p59
S'YMR204C'
p60
sS'MEI5'
p61
S'YPL121C'
p62
sS'MEI4'
p63
S'YER044C-A'
p64
sS'MNT2'
p65
S'YGL257C'
p66
sS'LAS1'
p67
S'YKR063C'
p68
sS'HSP42'
p69
S'YDR171W'
p70
sS'ITR2'
p71
S'YOL103W'
p72
sS'SPO24'
p73
S'YPR036W-A'
p74
sS'TRZ1'
p75
S'YKR079C'
p76
sS'BSD2'
p77
S'YBR290W'
p78
sS'LSO2'
p79
S'YGR169C-A'
p80
sS'IOC3'
p81
S'YFR013W'
p82
sS'GIS1'
p83
S'YDR096W'
p84
sS'IOC4'
p85
S'YMR044W'
p86
sS'IVY1'
p87
S'YDR229W'
p88
sS'FCY21'
p89
S'YER060W'
p90
sS'MBF1'
p91
S'YOR298C-A'
p92
sS'PHM8'
p93
S'YER037W'
p94
sS'RUP1'
p95
S'YOR138C'
p96
sS'CLU1'
p97
S'YMR012W'
p98
sS'ATP19'
p99
S'YOL077W-A'
p100
sS'HEM3'
p101
S'YDL205C'
p102
sS'ATP17'
p103
S'YDR377W'
p104
sS'ATP16'
p105
S'YDL004W'
p106
sS'ATP15'
p107
S'YPL271W'
p108
sS'MSS2'
p109
S'YDL107W'
p110
sS'PHM7'
p111
S'YOL084W'
p112
sS'MSS4'
p113
S'YDR208W'
p114
sS'ATP11'
p115
S'YNL315C'
p116
sS'ATP10'
p117
S'YLR393W'
p118
sS'SLD5'
p119
S'YDR489W'
p120
sS'CWH41'
p121
S'YGL027C'
p122
sS'AIM39'
p123
S'YOL053W'
p124
sS'BEM3'
p125
S'YPL115C'
p126
sS'ORM1'
p127
S'YGR038W'
p128
sS'SLD3'
p129
S'YGL113W'
p130
sS'SLD2'
p131
S'YKL108W'
p132
sS'VTH2'
p133
S'YJL222W'
p134
sS'AIM32'
p135
S'YML050W'
p136
sS'VTH1'
p137
S'YIL173W'
p138
sS'VPS9'
p139
S'YML097C'
p140
sS'KTI12'
p141
S'YKL110C'
p142
sS'AIM34'
p143
S'YMR003W'
p144
sS'ERR2'
p145
S'YPL281C'
p146
sS'PSP2'
p147
S'YML017W'
p148
sS'NSE5'
p149
S'YML023C'
p150
sS'LIF1'
p151
S'YGL090W'
p152
sS'NMA1'
p153
S'YLR328W'
p154
sS'RGI2'
p155
S'YIL057C'
p156
sS'RGI1'
p157
S'YER067W'
p158
sS'SSP2'
p159
S'YOR242C'
p160
sS'CSN9'
p161
S'YDR179C'
p162
sS'SUA5'
p163
S'YGL169W'
p164
sS'SSP1'
p165
S'YHR184W'
p166
sS'ERG4'
p167
S'YGL012W'
p168
sS'ERG5'
p169
S'YMR015C'
p170
sS'APD1'
p171
S'YBR151W'
p172
sS'ERG7'
p173
S'YHR072W'
p174
sS'NTS2-1'
p175
S'NTS2-1'
p176
sS'ERG1'
p177
S'YGR175C'
p178
sS'ERG2'
p179
S'YMR202W'
p180
sS'ERG3'
p181
S'YLR056W'
p182
sS'NOP1'
p183
S'YDL014W'
p184
sS'ASP3-3'
p185
S'YLR158C'
p186
sS'ASP3-1'
p187
S'YLR155C'
p188
sS'ERG8'
p189
S'YMR220W'
p190
sS'ERG9'
p191
S'YHR190W'
p192
sS'NOP7'
p193
S'YGR103W'
p194
sS'NOP6'
p195
S'YDL213C'
p196
sS'EDC2'
p197
S'YER035W'
p198
sS'EDC3'
p199
S'YEL015W'
p200
sS'CHS7'
p201
S'YHR142W'
p202
sS'RPL11A'
p203
S'YPR102C'
p204
sS'PRP18'
p205
S'YGR006W'
p206
sS'RRI1'
p207
S'YDL216C'
p208
sS'SCM4'
p209
S'YGR049W'
p210
sS'SIW14'
p211
S'YNL032W'
p212
sS'MRPL50'
p213
S'YNR022C'
p214
sS'TMN3'
p215
S'YER113C'
p216
sS'TMN2'
p217
S'YDR107C'
p218
sS'IKI3'
p219
S'YLR384C'
p220
sS'PKC1'
p221
S'YBL105C'
p222
sS'ILV3'
p223
S'YJR016C'
p224
sS'COQ10'
p225
S'YOL008W'
p226
sS'ASM4'
p227
S'YDL088C'
p228
sS'RTK1'
p229
S'YDL025C'
p230
sS'NSE3'
p231
S'YDR288W'
p232
sS'PAM16'
p233
S'YJL104W'
p234
sS'PAM17'
p235
S'YKR065C'
p236
sS'VPS5'
p237
S'YOR069W'
p238
sS'UBP8'
p239
S'YMR223W'
p240
sS'CPR7'
p241
S'YJR032W'
p242
sS'CPR6'
p243
S'YLR216C'
p244
sS'CPR5'
p245
S'YDR304C'
p246
sS'CPR4'
p247
S'YCR069W'
p248
sS'SOL2'
p249
S'YCR073W-A'
p250
sS'SOL3'
p251
S'YHR163W'
p252
sS'DSE2'
p253
S'YHR143W'
p254
sS'MBA1'
p255
S'YBR185C'
p256
sS'MSS11'
p257
S'YMR164C'
p258
sS'UGO1'
p259
S'YDR470C'
p260
sS'VBA1'
p261
S'YMR088C'
p262
sS'XPT1'
p263
S'YJR133W'
p264
sS'BIR1'
p265
S'YJR089W'
p266
sS'TAT3'
p267
S'TAT3'
p268
sS'DBP1'
p269
S'YPL119C'
p270
sS'YET2'
p271
S'YMR040W'
p272
sS'YET3'
p273
S'YDL072C'
p274
sS'YET1'
p275
S'YKL065C'
p276
sS'ADY2'
p277
S'YCR010C'
p278
sS'ADY3'
p279
S'YDL239C'
p280
sS'ADY4'
p281
S'YLR227C'
p282
sS'SFK1'
p283
S'YKL051W'
p284
sS'TSC10'
p285
S'YBR265W'
p286
sS'SPB4'
p287
S'YFL002C'
p288
sS'SPB1'
p289
S'YCL054W'
p290
sS'PDR15'
p291
S'YDR406W'
p292
sS'RMD9'
p293
S'YGL107C'
p294
sS'RMD8'
p295
S'YFR048W'
p296
sS'PDR10'
p297
S'YOR328W'
p298
sS'PDR11'
p299
S'YIL013C'
p300
sS'PDR12'
p301
S'YPL058C'
p302
sS'YVH1'
p303
S'YIR026C'
p304
sS'RMD1'
p305
S'YDL001W'
p306
sS'TOP3'
p307
S'YLR234W'
p308
sS'RMD6'
p309
S'YEL072W'
p310
sS'RMD5'
p311
S'YDR255C'
p312
sS'CLP1'
p313
S'YOR250C'
p314
sS'MTG1'
p315
S'YMR097C'
p316
sS'UTP25'
p317
S'YIL091C'
p318
sS'HNT2'
p319
S'YDR305C'
p320
sS'GIT1'
p321
S'YCR098C'
p322
sS'UTP20'
p323
S'YBL004W'
p324
sS'BCY1'
p325
S'YIL033C'
p326
sS'NHP6A'
p327
S'YPR052C'
p328
sS'NHP6B'
p329
S'YBR089C-A'
p330
sS'EFM3'
p331
S'YJR129C'
p332
sS'LAA1'
p333
S'YJL207C'
p334
sS'NTA1'
p335
S'YJR062C'
p336
sS'NUP133'
p337
S'YKR082W'
p338
sS'PDI1'
p339
S'YCL043C'
p340
sS'IPI1'
p341
S'YHR085W'
p342
sS'IPI3'
p343
S'YNL182C'
p344
sS'MUS81'
p345
S'YDR386W'
p346
sS'EST2'
p347
S'YLR318W'
p348
sS'NTS2-2'
p349
S'NTS2-2'
p350
sS'SAC3'
p351
S'YDR159W'
p352
sS'ATG40'
p353
S'YOR152C'
p354
sS'TAE1'
p355
S'YBR261C'
p356
sS'RRT15'
p357
S'YLR162W-A'
p358
sS'PGU1'
p359
S'YJR153W'
p360
sS'GLT1'
p361
S'YDL171C'
p362
sS'ARF2'
p363
S'YDL137W'
p364
sS'ARF1'
p365
S'YDL192W'
p366
sS'AI5_BETA'
p367
S'Q0075'
p368
sS'HHO1'
p369
S'YPL127C'
p370
sS'EST3'
p371
S'YIL009C-A'
p372
sS'ATE1'
p373
S'YGL017W'
p374
sS'BFA1'
p375
S'YJR053W'
p376
sS'TUF1'
p377
S'YOR187W'
p378
sS'BUD22'
p379
S'YMR014W'
p380
sS'BUD23'
p381
S'YCR047C'
p382
sS'BUD20'
p383
S'YLR074C'
p384
sS'VTI1'
p385
S'YMR197C'
p386
sS'BUD27'
p387
S'YFL023W'
p388
sS'YAF9'
p389
S'YNL107W'
p390
sS'DON1'
p391
S'YDR273W'
p392
sS'SPC105'
p393
S'YGL093W'
p394
sS'IPK1'
p395
S'YDR315C'
p396
sS'ART5'
p397
S'YGR068C'
p398
sS'RQC2'
p399
S'YPL009C'
p400
sS'ALR1'
p401
S'YOL130W'
p402
sS'RIC1'
p403
S'YLR039C'
p404
sS'RPO26'
p405
S'YPR187W'
p406
sS'AAD10'
p407
S'YJR155W'
p408
sS'DID4'
p409
S'YKL002W'
p410
sS'MAL63'
p411
S'MAL63'
p412
sS'SPC42'
p413
S'YKL042W'
p414
sS'AAD14'
p415
S'YNL331C'
p416
sS'AAD15'
p417
S'YOL165C'
p418
sS'CCL1'
p419
S'YPR025C'
p420
sS'MOB2'
p421
S'YFL034C-B'
p422
sS'BIO5'
p423
S'YNR056C'
p424
sS'MOB1'
p425
S'YIL106W'
p426
sS'PEX19'
p427
S'YDL065C'
p428
sS'SYP1'
p429
S'YCR030C'
p430
sS'RLP24'
p431
S'YLR009W'
p432
sS'SBE2'
p433
S'YDR351W'
p434
sS'PSY3'
p435
S'YLR376C'
p436
sS'SHE10'
p437
S'YGL228W'
p438
sS'RAV2'
p439
S'YDR202C'
p440
sS'YPF1'
p441
S'YKL100C'
p442
sS'OSW2'
p443
S'YLR054C'
p444
sS'STP3'
p445
S'YLR375W'
p446
sS'STP2'
p447
S'YHR006W'
p448
sS'OSW7'
p449
S'YFR039C'
p450
sS'STP4'
p451
S'YDL048C'
p452
sS'OSW5'
p453
S'YMR148W'
p454
sS'FCF2'
p455
S'YLR051C'
p456
sS'CDC45'
p457
S'YLR103C'
p458
sS'DLD1'
p459
S'YDL174C'
p460
sS'DLD2'
p461
S'YDL178W'
p462
sS'DLD3'
p463
S'YEL071W'
p464
sS'CDC40'
p465
S'YDR364C'
p466
sS'CDC43'
p467
S'YGL155W'
p468
sS'SMD3'
p469
S'YLR147C'
p470
sS'RPT6'
p471
S'YGL048C'
p472
sS'GNT1'
p473
S'YOR320C'
p474
sS'SRG1'
p475
S'SRG1'
p476
sS'RPC53'
p477
S'YDL150W'
p478
sS'MDM34'
p479
S'YGL219C'
p480
sS'SCO1'
p481
S'YBR037C'
p482
sS'MRL1'
p483
S'YPR079W'
p484
sS'STE24'
p485
S'YJR117W'
p486
sS'YEH2'
p487
S'YLR020C'
p488
sS'VHR1'
p489
S'YIL056W'
p490
sS'STE12'
p491
S'YHR084W'
p492
sS'YEH1'
p493
S'YLL012W'
p494
sS'STE14'
p495
S'YDR410C'
p496
sS'VAB2'
p497
S'YEL005C'
p498
sS'STE18'
p499
S'YJR086W'
p500
sS'MDR1'
p501
S'YGR100W'
p502
sS'SRN2'
p503
S'YLR119W'
p504
sS'CCP1'
p505
S'YKR066C'
p506
sS'IME1'
p507
S'YJR094C'
p508
sS'HCM1'
p509
S'YCR065W'
p510
sS'SHY1'
p511
S'YGR112W'
p512
sS'EPL1'
p513
S'YFL024C'
p514
sS'DSE1'
p515
S'YER124C'
p516
sS'TRS85'
p517
S'YDR108W'
p518
sS'SPC72'
p519
S'YAL047C'
p520
sS'ANT1'
p521
S'YPR128C'
p522
sS'VPS21'
p523
S'YOR089C'
p524
sS'STN1'
p525
S'YDR082W'
p526
sS'PEX14'
p527
S'YGL153W'
p528
sS'ABP140'
p529
S'YOR239W'
p530
sS'FIT2'
p531
S'YOR382W'
p532
sS'PEX17'
p533
S'YNL214W'
p534
sS'FPG1'
p535
S'FPG1'
p536
sS'RPL15B'
p537
S'YMR121C'
p538
sS'YKE2'
p539
S'YLR200W'
p540
sS'HDA1'
p541
S'YNL021W'
p542
sS'AYT1'
p543
S'YLL063C'
p544
sS'ISM1'
p545
S'YPL040C'
p546
sS'PDX1'
p547
S'YGR193C'
p548
sS'YKE4'
p549
S'YIL023C'
p550
sS'SPC97'
p551
S'YHR172W'
p552
sS'POP3'
p553
S'YNL282W'
p554
sS'MCM10'
p555
S'YIL150C'
p556
sS'SCP1'
p557
S'YOR367W'
p558
sS'MCM16'
p559
S'YPR046W'
p560
sS'DCK1'
p561
S'YLR422W'
p562
sS'MND1'
p563
S'YGL183C'
p564
sS'MST27'
p565
S'YGL051W'
p566
sS'MND2'
p567
S'YIR025W'
p568
sS'UME1'
p569
S'YPL139C'
p570
sS'RSF2'
p571
S'YJR127C'
p572
sS'RSF1'
p573
S'YMR030W'
p574
sS'ATP6'
p575
S'Q0085'
p576
sS'URK1'
p577
S'YNR012W'
p578
sS'APC11'
p579
S'YDL008W'
p580
sS'VMA22'
p581
S'YHR060W'
p582
sS'VMA21'
p583
S'YGR105W'
p584
sS'DUO1'
p585
S'YGL061C'
p586
sS'UBI4'
p587
S'YLL039C'
p588
sS'CGI121'
p589
S'YML036W'
p590
sS'ANB1'
p591
S'YJR047C'
p592
sS'GFA1'
p593
S'YKL104C'
p594
sS'SEM1'
p595
S'YDR363W-A'
p596
sS'ECT1'
p597
S'YGR007W'
p598
sS'SRP40'
p599
S'YKR092C'
p600
sS'RET3'
p601
S'YPL010W'
p602
sS'THG1'
p603
S'YGR024C'
p604
sS'FAR10'
p605
S'YLR238W'
p606
sS'GPT2'
p607
S'YKR067W'
p608
sS'JEN1'
p609
S'YKL217W'
p610
sS'IZH2'
p611
S'YOL002C'
p612
sS'15S_RRNA'
p613
S'Q0020'
p614
sS'SPO74'
p615
S'YGL170C'
p616
sS'SPO75'
p617
S'YLL005C'
p618
sS'MOT2'
p619
S'YER068W'
p620
sS'FCY22'
p621
S'YER060W-A'
p622
sS'SIF2'
p623
S'YBR103W'
p624
sS'SPO71'
p625
S'YDR104C'
p626
sS'FAR3'
p627
S'YMR052W'
p628
sS'SPO73'
p629
S'YER046W'
p630
sS'LTP1'
p631
S'YPR073C'
p632
sS'MET17'
p633
S'YLR303W'
p634
sS'VPS54'
p635
S'YDR027C'
p636
sS'RPL33B'
p637
S'YOR234C'
p638
sS'FAR8'
p639
S'YMR029C'
p640
sS'RPL33A'
p641
S'YPL143W'
p642
sS'YDJ1'
p643
S'YNL064C'
p644
sS'RPN1'
p645
S'YHR027C'
p646
sS'RPN2'
p647
S'YIL075C'
p648
sS'RPN3'
p649
S'YER021W'
p650
sS'RPN4'
p651
S'YDL020C'
p652
sS'RPN5'
p653
S'YDL147W'
p654
sS'RPN6'
p655
S'YDL097C'
p656
sS'VOA1'
p657
S'YGR106C'
p658
sS'RPN8'
p659
S'YOR261C'
p660
sS'RPN9'
p661
S'YDR427W'
p662
sS'NUF2'
p663
S'YOL069W'
p664
sS'RDN37-1'
p665
S'RDN37-1'
p666
sS'SUP4'
p667
S'tY(GUA)J2'
p668
sS'PTP2'
p669
S'YOR208W'
p670
sS'SUP6'
p671
S'tY(GUA)F2'
p672
sS'SUP7'
p673
S'tY(GUA)J1'
p674
sS'GPB2'
p675
S'YAL056W'
p676
sS'GPB1'
p677
S'YOR371C'
p678
sS'PTP3'
p679
S'YER075C'
p680
sS'PES4'
p681
S'YFR023W'
p682
sS'MTR3'
p683
S'YGR158C'
p684
sS'MTR2'
p685
S'YKL186C'
p686
sS'SNR51'
p687
S'snR51'
p688
sS'SNA2'
p689
S'YDR525W-A'
p690
sS'SPO7'
p691
S'YAL009W'
p692
sS'SWD2'
p693
S'YKL018W'
p694
sS'SWD3'
p695
S'YBR175W'
p696
sS'SWD1'
p697
S'YAR003W'
p698
sS'GRR1'
p699
S'YJR090C'
p700
sS'ATG2'
p701
S'YNL242W'
p702
sS'TUB3'
p703
S'YML124C'
p704
sS'ATP14'
p705
S'YLR295C'
p706
sS'HFA1'
p707
S'YMR207C'
p708
sS'GDH3'
p709
S'YAL062W'
p710
sS'WRS1'
p711
S'YOL097C'
p712
sS'AVT4'
p713
S'YNL101W'
p714
sS'GCD10'
p715
S'YNL062C'
p716
sS'ZRG17'
p717
S'YNR039C'
p718
sS'KAP122'
p719
S'YGL016W'
p720
sS'TUS1'
p721
S'YLR425W'
p722
sS'PIG2'
p723
S'YIL045W'
p724
sS'PHM6'
p725
S'YDR281C'
p726
sS'PCF11'
p727
S'YDR228C'
p728
sS'DAK1'
p729
S'YML070W'
p730
sS'DAK2'
p731
S'YFL053W'
p732
sS'ATG1'
p733
S'YGL180W'
p734
sS'MRP49'
p735
S'YKL167C'
p736
sS'UFD1'
p737
S'YGR048W'
p738
sS'ZIP2'
p739
S'YGL249W'
p740
sS'ZIP1'
p741
S'YDR285W'
p742
sS'UFD2'
p743
S'YDL190C'
p744
sS'FKH1'
p745
S'YIL131C'
p746
sS'UFD4'
p747
S'YKL010C'
p748
sS'MSS18'
p749
S'YPR134W'
p750
sS'FKH2'
p751
S'YNL068C'
p752
sS'MRPL36'
p753
S'YBR122C'
p754
sS'MRPL37'
p755
S'YBR268W'
p756
sS'MBR1'
p757
S'YKL093W'
p758
sS'MRPL35'
p759
S'YDR322W'
p760
sS'MRPL32'
p761
S'YCR003W'
p762
sS'MRPL33'
p763
S'YMR286W'
p764
sS'MRPL31'
p765
S'YKL138C'
p766
sS'RFC1'
p767
S'YOR217W'
p768
sS'ARG1'
p769
S'YOL058W'
p770
sS'SLD7'
p771
S'YOR060C'
p772
sS'MRPL38'
p773
S'YKL170W'
p774
sS'MRPL39'
p775
S'YML009C'
p776
sS'ACM1'
p777
S'YPL267W'
p778
sS'PAR32'
p779
S'YDL173W'
p780
sS'MID1'
p781
S'YNL291C'
p782
sS'ISC10'
p783
S'YER180C'
p784
sS'POP2'
p785
S'YNR052C'
p786
sS'AST1'
p787
S'YBL069W'
p788
sS'AST2'
p789
S'YER101C'
p790
sS'RFC2'
p791
S'YJR068W'
p792
sS'NRK1'
p793
S'YNL129W'
p794
sS'CTK1'
p795
S'YKL139W'
p796
sS'CTK2'
p797
S'YJL006C'
p798
sS'CTK3'
p799
S'YML112W'
p800
sS'ORM2'
p801
S'YLR350W'
p802
sS'HAM1'
p803
S'YJR069C'
p804
sS'ARG2'
p805
S'YJL071W'
p806
sS'MSB4'
p807
S'YOL112W'
p808
sS'MSB2'
p809
S'YGR014W'
p810
sS'RFX1'
p811
S'YLR176C'
p812
sS'MSB1'
p813
S'YOR188W'
p814
sS'AIM33'
p815
S'YML087C'
p816
sS'IBA57'
p817
S'YJR122W'
p818
sS'YSR3'
p819
S'YKR053C'
p820
sS'SNF12'
p821
S'YNR023W'
p822
sS'SPC2'
p823
S'YML055W'
p824
sS'PYK2'
p825
S'YOR347C'
p826
sS'BSC1'
p827
S'YDL037C'
p828
sS'BSC2'
p829
S'YDR275W'
p830
sS'YPS5'
p831
S'YGL259W'
p832
sS'MSL1'
p833
S'YIR009W'
p834
sS'BSC6'
p835
S'YOL137W'
p836
sS'ARG3'
p837
S'YJL088W'
p838
sS'NUP82'
p839
S'YJL061W'
p840
sS'TIM9'
p841
S'YEL020W-A'
p842
sS'PRO3'
p843
S'YER023W'
p844
sS'NUP85'
p845
S'YJR042W'
p846
sS'PRO1'
p847
S'YDR300C'
p848
sS'AIM36'
p849
S'YMR157C'
p850
sS'MED2'
p851
S'YDL005C'
p852
sS'MTM1'
p853
S'YGR257C'
p854
sS'AIM26'
p855
S'YKL037W'
p856
sS'YPC1'
p857
S'YBR183W'
p858
sS'AIM20'
p859
S'YIL158W'
p860
sS'AIM21'
p861
S'YIR003W'
p862
sS'AIM22'
p863
S'YJL046W'
p864
sS'AIM23'
p865
S'YJL131C'
p866
sS'ARC40'
p867
S'YBR234C'
p868
sS'MED8'
p869
S'YBR193C'
p870
sS'LST8'
p871
S'YNL006W'
p872
sS'SPC3'
p873
S'YLR066W'
p874
sS'AIM29'
p875
S'YKR074W'
p876
sS'SCM3'
p877
S'YDL139C'
p878
sS'MOD5'
p879
S'YOR274W'
p880
sS'MON2'
p881
S'YNL297C'
p882
sS'SLC1'
p883
S'YDL052C'
p884
sS'ATX1'
p885
S'YNL259C'
p886
sS'SUB2'
p887
S'YDL084W'
p888
sS'ECM38'
p889
S'YLR299W'
p890
sS'SUB1'
p891
S'YMR039C'
p892
sS'YML6'
p893
S'YML025C'
p894
sS'ECM34'
p895
S'YHL043W'
p896
sS'ECM31'
p897
S'YBR176W'
p898
sS'ECM30'
p899
S'YLR436C'
p900
sS'ECM33'
p901
S'YBR078W'
p902
sS'ECM32'
p903
S'YER176W'
p904
sS'RPL22B'
p905
S'YFL034C-A'
p906
sS'KXD1'
p907
S'YGL079W'
p908
sS'LCB4'
p909
S'YOR171C'
p910
sS'MVP1'
p911
S'YMR004W'
p912
sS'POP6'
p913
S'YGR030C'
p914
sS'TMA46'
p915
S'YOR091W'
p916
sS'ERF2'
p917
S'YLR246W'
p918
sS'MRE11'
p919
S'YMR224C'
p920
sS'EOS1'
p921
S'YNL080C'
p922
sS'PCD1'
p923
S'YLR151C'
p924
sS'KRE29'
p925
S'YER038C'
p926
sS'KRE28'
p927
S'YDR532C'
p928
sS'SAG1'
p929
S'YJR004C'
p930
sS'ERV25'
p931
S'YML012W'
p932
sS'RPR1'
p933
S'RPR1'
p934
sS'RPR2'
p935
S'YIR015W'
p936
sS'ACE2'
p937
S'YLR131C'
p938
sS'ISW1'
p939
S'YBR245C'
p940
sS'SKP2'
p941
S'YNL311C'
p942
sS'PIR5'
p943
S'YJL160C'
p944
sS'ISW2'
p945
S'YOR304W'
p946
sS'PIR3'
p947
S'YKL163W'
p948
sS'PIR1'
p949
S'YKL164C'
p950
sS'SIL1'
p951
S'YOL031C'
p952
sS'DEG1'
p953
S'YFL001W'
p954
sS'PRI2'
p955
S'YKL045W'
p956
sS'SUA7'
p957
S'YPR086W'
p958
sS'GGC1'
p959
S'YDL198C'
p960
sS'HAA1'
p961
S'YPR008W'
p962
sS'DIB1'
p963
S'YPR082C'
p964
sS'TPS1'
p965
S'YBR126C'
p966
sS'COX19'
p967
S'YLL018C-A'
p968
sS'TPS3'
p969
S'YMR261C'
p970
sS'WSC4'
p971
S'YHL028W'
p972
sS'WSC3'
p973
S'YOL105C'
p974
sS'WSC2'
p975
S'YNL283C'
p976
sS'EIS1'
p977
S'YMR031C'
p978
sS'SOM1'
p979
S'YEL059C-A'
p980
sS'COX11'
p981
S'YPL132W'
p982
sS'KSS1'
p983
S'YGR040W'
p984
sS'COX13'
p985
S'YGL191W'
p986
sS'COX14'
p987
S'YML129C'
p988
sS'COX15'
p989
S'YER141W'
p990
sS'TOA2'
p991
S'YKL058W'
p992
sS'COX17'
p993
S'YLL009C'
p994
sS'MDN1'
p995
S'YLR106C'
p996
sS'RSM28'
p997
S'YDR494W'
p998
sS'ISA2'
p999
S'YPR067W'
p1000
sS'TMC1'
p1001
S'YOR052C'
p1002
sS'NOP8'
p1003
S'YOL144W'
p1004
sS'RSM23'
p1005
S'YGL129C'
p1006
sS'RSM22'
p1007
S'YKL155C'
p1008
sS'RSM25'
p1009
S'YIL093C'
p1010
sS'RSM24'
p1011
S'YDR175C'
p1012
sS'RSM27'
p1013
S'YGR215W'
p1014
sS'RSM26'
p1015
S'YJR101W'
p1016
sS'MCH5'
p1017
S'YOR306C'
p1018
sS'RBA50'
p1019
S'YDR527W'
p1020
sS'PPA2'
p1021
S'YMR267W'
p1022
sS'TAH18'
p1023
S'YPR048W'
p1024
sS'SPA2'
p1025
S'YLL021W'
p1026
sS'YAR1'
p1027
S'YPL239W'
p1028
sS'ATG4'
p1029
S'YNL223W'
p1030
sS'NFI1'
p1031
S'YOR156C'
p1032
sS'SAP190'
p1033
S'YKR028W'
p1034
sS'UIP3'
p1035
S'YAR027W'
p1036
sS'BET1'
p1037
S'YIL004C'
p1038
sS'BGL2'
p1039
S'YGR282C'
p1040
sS'NUP60'
p1041
S'YAR002W'
p1042
sS'UIP5'
p1043
S'YKR044W'
p1044
sS'TOS2'
p1045
S'YGR221C'
p1046
sS'TOS3'
p1047
S'YGL179C'
p1048
sS'IDH2'
p1049
S'YOR136W'
p1050
sS'TOS1'
p1051
S'YBR162C'
p1052
sS'TOS6'
p1053
S'YNL300W'
p1054
sS'TPM2'
p1055
S'YIL138C'
p1056
sS'TOS4'
p1057
S'YLR183C'
p1058
sS'UTP13'
p1059
S'YLR222C'
p1060
sS'ASP3-2'
p1061
S'YLR157C'
p1062
sS'UTP11'
p1063
S'YKL099C'
p1064
sS'UTP10'
p1065
S'YJL109C'
p1066
sS'NBA1'
p1067
S'YOL070C'
p1068
sS'UTP15'
p1069
S'YMR093W'
p1070
sS'UTP14'
p1071
S'YML093W'
p1072
sS'QCR6'
p1073
S'YFR033C'
p1074
sS'UTP18'
p1075
S'YJL069C'
p1076
sS'TRI1'
p1077
S'YMR233W'
p1078
sS'QCR7'
p1079
S'YDR529C'
p1080
sS'NUP100'
p1081
S'YKL068W'
p1082
sS'RPS4A'
p1083
S'YJR145C'
p1084
sS'NTF2'
p1085
S'YER009W'
p1086
sS'NOP2'
p1087
S'YNL061W'
p1088
sS'CNE1'
p1089
S'YAL058W'
p1090
sS'UBP16'
p1091
S'YPL072W'
p1092
sS'MSS51'
p1093
S'YLR203C'
p1094
sS'EAF7'
p1095
S'YNL136W'
p1096
sS'BXI1'
p1097
S'YNL305C'
p1098
sS'SFT2'
p1099
S'YBL102W'
p1100
sS'YKT6'
p1101
S'YKL196C'
p1102
sS'NOP4'
p1103
S'YPL043W'
p1104
sS'CUS2'
p1105
S'YNL286W'
p1106
sS'SUP11'
p1107
S'tY(GUA)F1'
p1108
sS'ARE2'
p1109
S'YNR019W'
p1110
sS'ASP3-4'
p1111
S'YLR160C'
p1112
sS'HHT2'
p1113
S'YNL031C'
p1114
sS'ARE1'
p1115
S'YCR048W'
p1116
sS'YBT1'
p1117
S'YLL048C'
p1118
sS'VAR1'
p1119
S'Q0140'
p1120
sS'HTL1'
p1121
S'YCR020W-B'
p1122
sS'SUP19'
p1123
S'tS(UGA)E'
p1124
sS'WHI4'
p1125
S'YDL224C'
p1126
sS'PDE2'
p1127
S'YOR360C'
p1128
sS'YIH1'
p1129
S'YCR059C'
p1130
sS'LYS12'
p1131
S'YIL094C'
p1132
sS'BUD16'
p1133
S'YEL029C'
p1134
sS'BUD14'
p1135
S'YAR014C'
p1136
sS'BUD13'
p1137
S'YGL174W'
p1138
sS'DYN2'
p1139
S'YDR424C'
p1140
sS'DYN1'
p1141
S'YKR054C'
p1142
sS'DBP10'
p1143
S'YDL031W'
p1144
sS'CST6'
p1145
S'YIL036W'
p1146
sS'SDS24'
p1147
S'YBR214W'
p1148
sS'SDS23'
p1149
S'YGL056C'
p1150
sS'SDS22'
p1151
S'YKL193C'
p1152
sS'TAD3'
p1153
S'YLR316C'
p1154
sS'TAD2'
p1155
S'YJL035C'
p1156
sS'TCP1'
p1157
S'YDR212W'
p1158
sS'EDC1'
p1159
S'YGL222C'
p1160
sS'ARG82'
p1161
S'YDR173C'
p1162
sS'ISY1'
p1163
S'YJR050W'
p1164
sS'FCP1'
p1165
S'YMR277W'
p1166
sS'ERT1'
p1167
S'YBR239C'
p1168
sS'MF(ALPHA)1'
p1169
S'YPL187W'
p1170
sS'MF(ALPHA)2'
p1171
S'YGL089C'
p1172
sS'GLY1'
p1173
S'YEL046C'
p1174
sS'PSR1'
p1175
S'YLL010C'
p1176
sS'SAS4'
p1177
S'YDR181C'
p1178
sS'AHC1'
p1179
S'YOR023C'
p1180
sS'SPO21'
p1181
S'YOL091W'
p1182
sS'AIR1'
p1183
S'YIL079C'
p1184
sS'AIR2'
p1185
S'YDL175C'
p1186
sS'RRI2'
p1187
S'YOL117W'
p1188
sS'CDC33'
p1189
S'YOL139C'
p1190
sS'TAR1'
p1191
S'YLR154W-C'
p1192
sS'MNT4'
p1193
S'YNR059W'
p1194
sS'PMR1'
p1195
S'YGL167C'
p1196
sS'TVP23'
p1197
S'YDR084C'
p1198
sS'MSS116'
p1199
S'YDR194C'
p1200
sS'CCC2'
p1201
S'YDR270W'
p1202
sS'CCC1'
p1203
S'YLR220W'
p1204
sS'FMP41'
p1205
S'YNL168C'
p1206
sS'ZNF1'
p1207
S'YFL052W'
p1208
sS'SKI3'
p1209
S'YPR189W'
p1210
sS'SKI2'
p1211
S'YLR398C'
p1212
sS'ORT1'
p1213
S'YOR130C'
p1214
sS'ULP2'
p1215
S'YIL031W'
p1216
sS'GPM3'
p1217
S'YOL056W'
p1218
sS'SKI6'
p1219
S'YGR195W'
p1220
sS'FUB1'
p1221
S'YCR076C'
p1222
sS'RRS1'
p1223
S'YOR294W'
p1224
sS'IMT4'
p1225
S'tM(CAU)E'
p1226
sS'IMT2'
p1227
S'tM(CAU)P'
p1228
sS'IMT3'
p1229
S'tM(CAU)J3'
p1230
sS'MIC27'
p1231
S'YNL100W'
p1232
sS'OST6'
p1233
S'YML019W'
p1234
sS'GCG1'
p1235
S'YER163C'
p1236
sS'CDC55'
p1237
S'YGL190C'
p1238
sS'OST2'
p1239
S'YOR103C'
p1240
sS'PAF1'
p1241
S'YBR279W'
p1242
sS'CDC50'
p1243
S'YCR094W'
p1244
sS'GMH1'
p1245
S'YKR030W'
p1246
sS'IDH1'
p1247
S'YNL037C'
p1248
sS'SKG6'
p1249
S'YHR149C'
p1250
sS'NCE101'
p1251
S'YJL205C'
p1252
sS'SKG1'
p1253
S'YKR100C'
p1254
sS'NCE102'
p1255
S'YPR149W'
p1256
sS'MGM101'
p1257
S'YJR144W'
p1258
sS'MRK1'
p1259
S'YDL079C'
p1260
sS'CAM1'
p1261
S'YPL048W'
p1262
sS'ISR1'
p1263
S'YPR106W'
p1264
sS'UTH1'
p1265
S'YKR042W'
p1266
sS'VHS3'
p1267
S'YOR054C'
p1268
sS'VHS2'
p1269
S'YIL135C'
p1270
sS'VHS1'
p1271
S'YDR247W'
p1272
sS'OLA1'
p1273
S'YBR025C'
p1274
sS'ROK1'
p1275
S'YGL171W'
p1276
sS'USV1'
p1277
S'YPL230W'
p1278
sS'RPL19A'
p1279
S'YBR084C-A'
p1280
sS'SYC1'
p1281
S'YOR179C'
p1282
sS'VPS30'
p1283
S'YPL120W'
p1284
sS'MSY1'
p1285
S'YPL097W'
p1286
sS'DPH1'
p1287
S'YIL103W'
p1288
sS'DPH2'
p1289
S'YKL191W'
p1290
sS'SMF1'
p1291
S'YOL122C'
p1292
sS'EMT1'
p1293
S'tM(CAU)D'
p1294
sS'DPH5'
p1295
S'YLR172C'
p1296
sS'DPH6'
p1297
S'YLR143W'
p1298
sS'RDI1'
p1299
S'YDL135C'
p1300
sS'ANS1'
p1301
S'YHR126C'
p1302
sS'STM1'
p1303
S'YLR150W'
p1304
sS'MTR10'
p1305
S'YOR160W'
p1306
sS'CLG1'
p1307
S'YGL215W'
p1308
sS'FUM1'
p1309
S'YPL262W'
p1310
sS'MCT1'
p1311
S'YOR221C'
p1312
sS'ERG12'
p1313
S'YMR208W'
p1314
sS'ERG13'
p1315
S'YML126C'
p1316
sS'ERG10'
p1317
S'YPL028W'
p1318
sS'ERG11'
p1319
S'YHR007C'
p1320
sS'SNR81'
p1321
S'snR81'
p1322
sS'CUP9'
p1323
S'YPL177C'
p1324
sS'PRP24'
p1325
S'YMR268C'
p1326
sS'PRP21'
p1327
S'YJL203W'
p1328
sS'ZRT1'
p1329
S'YGL255W'
p1330
sS'PRP22'
p1331
S'YER013W'
p1332
sS'UTR5'
p1333
S'YEL035C'
p1334
sS'UTR4'
p1335
S'YEL038W'
p1336
sS'RSE1'
p1337
S'YML049C'
p1338
sS'UTR1'
p1339
S'YJR049C'
p1340
sS'TKL2'
p1341
S'YBR117C'
p1342
sS'TKL1'
p1343
S'YPR074C'
p1344
sS'UTR2'
p1345
S'YEL040W'
p1346
sS'PLC1'
p1347
S'YPL268W'
p1348
sS'ARG7'
p1349
S'YMR062C'
p1350
sS'HXK1'
p1351
S'YFR053C'
p1352
sS'POL30'
p1353
S'YBR088C'
p1354
sS'COA2'
p1355
S'YPL189C-A'
p1356
sS'HXK2'
p1357
S'YGL253W'
p1358
sS'SEN2'
p1359
S'YLR105C'
p1360
sS'UBS1'
p1361
S'YBR165W'
p1362
sS'SEN1'
p1363
S'YLR430W'
p1364
sS'CMC2'
p1365
S'YBL059C-A'
p1366
sS'SGN1'
p1367
S'YIR001C'
p1368
sS'HIT1'
p1369
S'YJR055W'
p1370
sS'PSD1'
p1371
S'YNL169C'
p1372
sS'NDC1'
p1373
S'YML031W'
p1374
sS'CMC4'
p1375
S'YMR194C-B'
p1376
sS'FAU1'
p1377
S'YER183C'
p1378
sS'ADD37'
p1379
S'YMR184W'
p1380
sS'GRC3'
p1381
S'YLL035W'
p1382
sS'MTC2'
p1383
S'YKL098W'
p1384
sS'MTC3'
p1385
S'YGL226W'
p1386
sS'GLO2'
p1387
S'YDR272W'
p1388
sS'GLO3'
p1389
S'YER122C'
p1390
sS'MTC6'
p1391
S'YHR151C'
p1392
sS'MTC7'
p1393
S'YEL033W'
p1394
sS'MTC4'
p1395
S'YBR255W'
p1396
sS'MTC5'
p1397
S'YDR128W'
p1398
sS'LRE1'
p1399
S'YCL051W'
p1400
sS'PHR1'
p1401
S'YOR386W'
p1402
sS'ESBP6'
p1403
S'YNL125C'
p1404
sS'CPR8'
p1405
S'YNR028W'
p1406
sS'COG4'
p1407
S'YPR105C'
p1408
sS'DSE4'
p1409
S'YNR067C'
p1410
sS'PER1'
p1411
S'YCR044C'
p1412
sS'BIT61'
p1413
S'YJL058C'
p1414
sS'MED1'
p1415
S'YPR070W'
p1416
sS'SWE1'
p1417
S'YJL187C'
p1418
sS'SPO12'
p1419
S'YHR152W'
p1420
sS'THR4'
p1421
S'YCR053W'
p1422
sS'ISD11'
p1423
S'YER048W-A'
p1424
sS'GPA2'
p1425
S'YER020W'
p1426
sS'SOL4'
p1427
S'YGR248W'
p1428
sS'AMS1'
p1429
S'YGL156W'
p1430
sS'GPA1'
p1431
S'YHR005C'
p1432
sS'HXT12'
p1433
S'YIL170W'
p1434
sS'ADO1'
p1435
S'YJR105W'
p1436
sS'RPS11B'
p1437
S'YBR048W'
p1438
sS'PAM18'
p1439
S'YLR008C'
p1440
sS'HIF1'
p1441
S'YLL022C'
p1442
sS'MIX17'
p1443
S'YMR002W'
p1444
sS'ASC1'
p1445
S'YMR116C'
p1446
sS'RPS11A'
p1447
S'YDR025W'
p1448
sS'CPR2'
p1449
S'YHR057C'
p1450
sS'ENT1'
p1451
S'YDL161W'
p1452
sS'ENT3'
p1453
S'YJR125C'
p1454
sS'ENT2'
p1455
S'YLR206W'
p1456
sS'ENT5'
p1457
S'YDR153C'
p1458
sS'CPR1'
p1459
S'YDR155C'
p1460
sS'AAP1'
p1461
S'YHR047C'
p1462
sS'RPL14A'
p1463
S'YKL006W'
p1464
sS'SDC25'
p1465
S'YLL016W'
p1466
sS'GAR1'
p1467
S'YHR089C'
p1468
sS'KCH1'
p1469
S'YJR054W'
p1470
sS'MRPL25'
p1471
S'YGR076C'
p1472
sS'MRPL24'
p1473
S'YMR193W'
p1474
sS'MRPL27'
p1475
S'YBR282W'
p1476
sS'RIM9'
p1477
S'YMR063W'
p1478
sS'PFY1'
p1479
S'YOR122C'
p1480
sS'MRPL20'
p1481
S'YKR085C'
p1482
sS'MRPL23'
p1483
S'YOR150W'
p1484
sS'MRPL22'
p1485
S'YNL177C'
p1486
sS'HXT15'
p1487
S'YDL245C'
p1488
sS'MRPL28'
p1489
S'YDR462W'
p1490
sS'GAB1'
p1491
S'YLR459W'
p1492
sS'MED7'
p1493
S'YOL135C'
p1494
sS'DTD1'
p1495
S'YDL219W'
p1496
sS'HTD2'
p1497
S'YHR067W'
p1498
sS'RPS29A'
p1499
S'YLR388W'
p1500
sS'SAP4'
p1501
S'YGL229C'
p1502
sS'SAP1'
p1503
S'YER047C'
p1504
sS'SAM50'
p1505
S'YNL026W'
p1506
sS'ESC1'
p1507
S'YMR219W'
p1508
sS'NOB1'
p1509
S'YOR056C'
p1510
sS'HAL5'
p1511
S'YJL165C'
p1512
sS'KES1'
p1513
S'YPL145C'
p1514
sS'GDB1'
p1515
S'YPR184W'
p1516
sS'UMP1'
p1517
S'YBR173C'
p1518
sS'MSC1'
p1519
S'YML128C'
p1520
sS'SPP1'
p1521
S'YPL138C'
p1522
sS'MSC3'
p1523
S'YLR219W'
p1524
sS'MSC2'
p1525
S'YDR205W'
p1526
sS'YLH47'
p1527
S'YPR125W'
p1528
sS'SCD6'
p1529
S'YPR129W'
p1530
sS'MSC7'
p1531
S'YHR039C'
p1532
sS'MSC6'
p1533
S'YOR354C'
p1534
sS'ESC2'
p1535
S'YDR363W'
p1536
sS'SNR10'
p1537
S'snR10'
p1538
sS'PNC1'
p1539
S'YGL037C'
p1540
sS'MXR1'
p1541
S'YER042W'
p1542
sS'RAD53'
p1543
S'YPL153C'
p1544
sS'MIX23'
p1545
S'YBL107C'
p1546
sS'MXR2'
p1547
S'YCL033C'
p1548
sS'TRX2'
p1549
S'YGR209C'
p1550
sS'TRX3'
p1551
S'YCR083W'
p1552
sS'PHO3'
p1553
S'YBR092C'
p1554
sS'GID7'
p1555
S'YCL039W'
p1556
sS'PHO5'
p1557
S'YBR093C'
p1558
sS'PHO4'
p1559
S'YFR034C'
p1560
sS'MSM1'
p1561
S'YGR171C'
p1562
sS'VID30'
p1563
S'YGL227W'
p1564
sS'PHO8'
p1565
S'YDR481C'
p1566
sS'CRD1'
p1567
S'YDL142C'
p1568
sS'GID8'
p1569
S'YMR135C'
p1570
sS'TBS1'
p1571
S'YBR150C'
p1572
sS'RRG8'
p1573
S'YPR116W'
p1574
sS'MRPL6'
p1575
S'YHR147C'
p1576
sS'MRPL7'
p1577
S'YDR237W'
p1578
sS'MRPL4'
p1579
S'YLR439W'
p1580
sS'GTO3'
p1581
S'YMR251W'
p1582
sS'MRPL3'
p1583
S'YMR024W'
p1584
sS'MIT1'
p1585
S'YEL007W'
p1586
sS'MRX11'
p1587
S'YPL041C'
p1588
sS'PTH1'
p1589
S'YHR189W'
p1590
sS'PTH2'
p1591
S'YBL057C'
p1592
sS'MRX12'
p1593
S'YJR003C'
p1594
sS'PTH4'
p1595
S'YOL114C'
p1596
sS'RNP1'
p1597
S'YLL046C'
p1598
sS'MRPL8'
p1599
S'YJL063C'
p1600
sS'MRPL9'
p1601
S'YGR220C'
p1602
sS'SUC1'
p1603
S'SUC1'
p1604
sS'RDR1'
p1605
S'YOR380W'
p1606
sS'LDS2'
p1607
S'YOL047C'
p1608
sS'SUC2'
p1609
S'YIL162W'
p1610
sS'SUC5'
p1611
S'SUC5'
p1612
sS'SUC4'
p1613
S'SUC4'
p1614
sS'SSN2'
p1615
S'YDR443C'
p1616
sS'ECM29'
p1617
S'YHL030W'
p1618
sS'DDR2'
p1619
S'YOL052C-A'
p1620
sS'ECM27'
p1621
S'YJR106W'
p1622
sS'ECM25'
p1623
S'YJL201W'
p1624
sS'ECM22'
p1625
S'YLR228C'
p1626
sS'ZPR1'
p1627
S'YGR211W'
p1628
sS'LOH1'
p1629
S'YJL038C'
p1630
sS'INA22'
p1631
S'YIR024C'
p1632
sS'SNR55'
p1633
S'snR55'
p1634
sS'AMA1'
p1635
S'YGR225W'
p1636
sS'CSL4'
p1637
S'YNL232W'
p1638
sS'ATG20'
p1639
S'YDL113C'
p1640
sS'RPP1'
p1641
S'YHR062C'
p1642
sS'HBT1'
p1643
S'YDL223C'
p1644
sS'SCR1'
p1645
S'SCR1'
p1646
sS'KRE33'
p1647
S'YNL132W'
p1648
sS'YMC2'
p1649
S'YBR104W'
p1650
sS'YMC1'
p1651
S'YPR058W'
p1652
sS'RIA1'
p1653
S'YNL163C'
p1654
sS'PFK1'
p1655
S'YGR240C'
p1656
sS'LOT6'
p1657
S'YLR011W'
p1658
sS'HSC82'
p1659
S'YMR186W'
p1660
sS'YCS4'
p1661
S'YLR272C'
p1662
sS'RPS5'
p1663
S'YJR123W'
p1664
sS'BTT1'
p1665
S'YDR252W'
p1666
sS'RPS3'
p1667
S'YNL178W'
p1668
sS'LYS14'
p1669
S'YDR034C'
p1670
sS'NAM7'
p1671
S'YMR080C'
p1672
sS'NAM8'
p1673
S'YHR086W'
p1674
sS'EDE1'
p1675
S'YBL047C'
p1676
sS'HUB1'
p1677
S'YNR032C-A'
p1678
sS'GAL4'
p1679
S'YPL248C'
p1680
sS'ADI1'
p1681
S'YMR009W'
p1682
sS'DEF1'
p1683
S'YKL054C'
p1684
sS'GAL7'
p1685
S'YBR018C'
p1686
sS'GAL1'
p1687
S'YBR020W'
p1688
sS'SOR2'
p1689
S'YDL246C'
p1690
sS'KSP1'
p1691
S'YHR082C'
p1692
sS'DUS3'
p1693
S'YLR401C'
p1694
sS'CEP3'
p1695
S'YMR168C'
p1696
sS'SNR14'
p1697
S'snR14'
p1698
sS'HPF1'
p1699
S'YOL155C'
p1700
sS'SNR189'
p1701
S'snR189'
p1702
sS'NEM1'
p1703
S'YHR004C'
p1704
sS'CIT1'
p1705
S'YNR001C'
p1706
sS'BNI4'
p1707
S'YNL233W'
p1708
sS'CIT2'
p1709
S'YCR005C'
p1710
sS'PKR1'
p1711
S'YMR123W'
p1712
sS'PHB1'
p1713
S'YGR132C'
p1714
sS'YIG1'
p1715
S'YPL201C'
p1716
sS'CHA4'
p1717
S'YLR098C'
p1718
sS'GCV1'
p1719
S'YDR019C'
p1720
sS'GCV2'
p1721
S'YMR189W'
p1722
sS'GCV3'
p1723
S'YAL044C'
p1724
sS'FLC2'
p1725
S'YAL053W'
p1726
sS'FRE4'
p1727
S'YNR060W'
p1728
sS'PDR17'
p1729
S'YNL264C'
p1730
sS'TOR1'
p1731
S'YJR066W'
p1732
sS'TOM71'
p1733
S'YHR117W'
p1734
sS'TOR2'
p1735
S'YKL203C'
p1736
sS'DET1'
p1737
S'YDR051C'
p1738
sS'PYC1'
p1739
S'YGL062W'
p1740
sS'PYC2'
p1741
S'YBR218C'
p1742
sS'NUP53'
p1743
S'YMR153W'
p1744
sS'SHH4'
p1745
S'YLR164W'
p1746
sS'NUP57'
p1747
S'YGR119C'
p1748
sS'SHH3'
p1749
S'YMR118C'
p1750
sS'HRT3'
p1751
S'YLR097C'
p1752
sS'SAP185'
p1753
S'YJL098W'
p1754
sS'TPN1'
p1755
S'YGL186C'
p1756
sS'MAP1'
p1757
S'YLR244C'
p1758
sS'ALP1'
p1759
S'YNL270C'
p1760
sS'VBA5'
p1761
S'YKR105C'
p1762
sS'DJP1'
p1763
S'YIR004W'
p1764
sS'VBA3'
p1765
S'YCL069W'
p1766
sS'VBA2'
p1767
S'YBR293W'
p1768
sS'ZRT2'
p1769
S'YLR130C'
p1770
sS'ZRT3'
p1771
S'YKL175W'
p1772
sS'BSP1'
p1773
S'YPR171W'
p1774
sS'PAU18'
p1775
S'YLL064C'
p1776
sS'SFT1'
p1777
S'YKL006C-A'
p1778
sS'CIC1'
p1779
S'YHR052W'
p1780
sS'PAU19'
p1781
S'YMR325W'
p1782
sS'NTG2'
p1783
S'YOL043C'
p1784
sS'NTG1'
p1785
S'YAL015C'
p1786
sS'PXA1'
p1787
S'YPL147W'
p1788
sS'ICY2'
p1789
S'YPL250C'
p1790
sS'ECM9'
p1791
S'YKR004C'
p1792
sS'ECM8'
p1793
S'YBR076W'
p1794
sS'ECM7'
p1795
S'YLR443W'
p1796
sS'NUP116'
p1797
S'YMR047C'
p1798
sS'FOB1'
p1799
S'YDR110W'
p1800
sS'ECM4'
p1801
S'YKR076W'
p1802
sS'ECM3'
p1803
S'YOR092W'
p1804
sS'ECM2'
p1805
S'YBR065C'
p1806
sS'ECM1'
p1807
S'YAL059W'
p1808
sS'TOP2'
p1809
S'YNL088W'
p1810
sS'ARD1'
p1811
S'YHR013C'
p1812
sS'PEX18'
p1813
S'YHR160C'
p1814
sS'YTP1'
p1815
S'YNL237W'
p1816
sS'LAM6'
p1817
S'YLR072W'
p1818
sS'TOP1'
p1819
S'YOL006C'
p1820
sS'LAM4'
p1821
S'YHR080C'
p1822
sS'LAM5'
p1823
S'YFL042C'
p1824
sS'CHS6'
p1825
S'YJL099W'
p1826
sS'ASK1'
p1827
S'YKL052C'
p1828
sS'PEX13'
p1829
S'YLR191W'
p1830
sS'PEX12'
p1831
S'YMR026C'
p1832
sS'PEX15'
p1833
S'YOL044W'
p1834
sS'PAU16'
p1835
S'YKL224C'
p1836
sS'NIP1'
p1837
S'YMR309C'
p1838
sS'ADH2'
p1839
S'YMR303C'
p1840
sS'EFG1'
p1841
S'YGR271C-A'
p1842
sS'PAU17'
p1843
S'YLL025W'
p1844
sS'DIT1'
p1845
S'YDR403W'
p1846
sS'RPL28'
p1847
S'YGL103W'
p1848
sS'DIT2'
p1849
S'YDR402C'
p1850
sS'PRP9'
p1851
S'YDL030W'
p1852
sS'PAU10'
p1853
S'YDR542W'
p1854
sS'SPT16'
p1855
S'YGL207W'
p1856
sS'CIT3'
p1857
S'YPR001W'
p1858
sS'LYS21'
p1859
S'YDL131W'
p1860
sS'LYS20'
p1861
S'YDL182W'
p1862
sS'AVT5'
p1863
S'YBL089W'
p1864
sS'PIG1'
p1865
S'YLR273C'
p1866
sS'AVT7'
p1867
S'YIL088C'
p1868
sS'AVT6'
p1869
S'YER119C'
p1870
sS'AVT1'
p1871
S'YJR001W'
p1872
sS'ATG7'
p1873
S'YHR171W'
p1874
sS'AVT3'
p1875
S'YKL146W'
p1876
sS'AVT2'
p1877
S'YEL064C'
p1878
sS'RPT5'
p1879
S'YOR117W'
p1880
sS'ERS1'
p1881
S'YCR075C'
p1882
sS'ATG8'
p1883
S'YBL078C'
p1884
sS'ATG9'
p1885
S'YDL149W'
p1886
sS'SNF11'
p1887
S'YDR073W'
p1888
sS'ULA1'
p1889
S'YPL003W'
p1890
sS'CIA2'
p1891
S'YHR122W'
p1892
sS'MSG5'
p1893
S'YNL053W'
p1894
sS'FAB1'
p1895
S'YFR019W'
p1896
sS'CIA1'
p1897
S'YDR267C'
p1898
sS'SNR5'
p1899
S'snR5'
p1900
sS'HNT1'
p1901
S'YDL125C'
p1902
sS'BUD7'
p1903
S'YOR299W'
p1904
sS'VMS1'
p1905
S'YDR049W'
p1906
sS'GEP4'
p1907
S'YHR100C'
p1908
sS'GEP5'
p1909
S'YLR091W'
p1910
sS'IES4'
p1911
S'YOR189W'
p1912
sS'GEP7'
p1913
S'YGL057C'
p1914
sS'JJJ2'
p1915
S'YJL162C'
p1916
sS'JJJ3'
p1917
S'YJR097W'
p1918
sS'TVP38'
p1919
S'YKR088C'
p1920
sS'JJJ1'
p1921
S'YNL227C'
p1922
sS'PGA1'
p1923
S'YNL158W'
p1924
sS'PGA2'
p1925
S'YNL149C'
p1926
sS'PGA3'
p1927
S'YML125C'
p1928
sS'RPL2A'
p1929
S'YFR031C-A'
p1930
sS'MAL42'
p1931
S'MAL42'
p1932
sS'PAU22'
p1933
S'YPL282C'
p1934
sS'RPL2B'
p1935
S'YIL018W'
p1936
sS'GCD6'
p1937
S'YDR211W'
p1938
sS'GCD7'
p1939
S'YLR291C'
p1940
sS'YHM2'
p1941
S'YMR241W'
p1942
sS'GCD2'
p1943
S'YGR083C'
p1944
sS'RLM1'
p1945
S'YPL089C'
p1946
sS'VIP1'
p1947
S'YLR410W'
p1948
sS'RAP1'
p1949
S'YNL216W'
p1950
sS'ULS1'
p1951
S'YOR191W'
p1952
sS'OAZ1'
p1953
S'YPL052W'
p1954
sS'CTF18'
p1955
S'YMR078C'
p1956
sS'DNF1'
p1957
S'YER166W'
p1958
sS'DNF2'
p1959
S'YDR093W'
p1960
sS'DNF3'
p1961
S'YMR162C'
p1962
sS'SMF2'
p1963
S'YHR050W'
p1964
sS'SMF3'
p1965
S'YLR034C'
p1966
sS'WBP1'
p1967
S'YEL002C'
p1968
sS'EMC4'
p1969
S'YGL231C'
p1970
sS'UPS1'
p1971
S'YLR193C'
p1972
sS'LEM3'
p1973
S'YNL323W'
p1974
sS'CDC65'
p1975
S'tQ(CUG)M'
p1976
sS'TIM10'
p1977
S'YHR005C-A'
p1978
sS'RPL41A'
p1979
S'YDL184C'
p1980
sS'SRP1'
p1981
S'YNL189W'
p1982
sS'PUG1'
p1983
S'YER185W'
p1984
sS'SMP1'
p1985
S'YBR182C'
p1986
sS'SMP3'
p1987
S'YOR149C'
p1988
sS'STL1'
p1989
S'YDR536W'
p1990
sS'FBP1'
p1991
S'YLR377C'
p1992
sS'SUP8'
p1993
S'tY(GUA)M2'
p1994
sS'PBY1'
p1995
S'YBR094W'
p1996
sS'YEN1'
p1997
S'YER041W'
p1998
sS'RPS29B'
p1999
S'YDL061C'
p2000
sS'MLF3'
p2001
S'YNL074C'
p2002
sS'IKS1'
p2003
S'YJL057C'
p2004
sS'HMG1'
p2005
S'YML075C'
p2006
sS'HMG2'
p2007
S'YLR450W'
p2008
sS'ATG29'
p2009
S'YPL166W'
p2010
sS'AYR1'
p2011
S'YIL124W'
p2012
sS'FHL1'
p2013
S'YPR104C'
p2014
sS'ATG21'
p2015
S'YPL100W'
p2016
sS'ANR2'
p2017
S'YKL047W'
p2018
sS'ATG23'
p2019
S'YLR431C'
p2020
sS'ATG22'
p2021
S'YCL038C'
p2022
sS'DPB11'
p2023
S'YJL090C'
p2024
sS'ATG27'
p2025
S'YJL178C'
p2026
sS'ATG26'
p2027
S'YLR189C'
p2028
sS'ERG20'
p2029
S'YJL167W'
p2030
sS'ERG27'
p2031
S'YLR100W'
p2032
sS'ERG26'
p2033
S'YGL001C'
p2034
sS'ERG25'
p2035
S'YGR060W'
p2036
sS'ERG24'
p2037
S'YNL280C'
p2038
sS'ALB1'
p2039
S'YJL122W'
p2040
sS'ERG29'
p2041
S'YMR134W'
p2042
sS'ERG28'
p2043
S'YER044C'
p2044
sS'HCA4'
p2045
S'YJL033W'
p2046
sS'TYS1'
p2047
S'YGR185C'
p2048
sS'SEO1'
p2049
S'YAL067C'
p2050
sS'NFT1'
p2051
S'YKR103W'
p2052
sS'MRPS9'
p2053
S'YBR146W'
p2054
sS'PRP31'
p2055
S'YGR091W'
p2056
sS'BMS1'
p2057
S'YPL217C'
p2058
sS'MRPS5'
p2059
S'YBR251W'
p2060
sS'STE13'
p2061
S'YOR219C'
p2062
sS'GPR1'
p2063
S'YDL035C'
p2064
sS'PRP38'
p2065
S'YGR075C'
p2066
sS'PRP39'
p2067
S'YML046W'
p2068
sS'ADH4'
p2069
S'YGL256W'
p2070
sS'MSS1'
p2071
S'YMR023C'
p2072
sS'UBR2'
p2073
S'YLR024C'
p2074
sS'UBR1'
p2075
S'YGR184C'
p2076
sS'SNR8'
p2077
S'snR8'
p2078
sS'TWF1'
p2079
S'YGR080W'
p2080
sS'CDC21'
p2081
S'YOR074C'
p2082
sS'MDM10'
p2083
S'YAL010C'
p2084
sS'TMA16'
p2085
S'YOR252W'
p2086
sS'TMA17'
p2087
S'YDL110C'
p2088
sS'TMA19'
p2089
S'YKL056C'
p2090
sS'SNQ2'
p2091
S'YDR011W'
p2092
sS'KRS1'
p2093
S'YDR037W'
p2094
sS'ETS1-2'
p2095
S'ETS1-2'
p2096
sS'DRS2'
p2097
S'YAL026C'
p2098
sS'DRS1'
p2099
S'YLL008W'
p2100
sS'SWT1'
p2101
S'YOR166C'
p2102
sS'FAT3'
p2103
S'YKL187C'
p2104
sS'SPO13'
p2105
S'YHR014W'
p2106
sS'FAT1'
p2107
S'YBR041W'
p2108
sS'SPO11'
p2109
S'YHL022C'
p2110
sS'SPO16'
p2111
S'YHR153C'
p2112
sS'SPO14'
p2113
S'YKR031C'
p2114
sS'CAN1'
p2115
S'YEL063C'
p2116
sS'GLN3'
p2117
S'YER040W'
p2118
sS'RPL31A'
p2119
S'YDL075W'
p2120
sS'RPL31B'
p2121
S'YLR406C'
p2122
sS'AMD1'
p2123
S'YML035C'
p2124
sS'FRS1'
p2125
S'YLR060W'
p2126
sS'SPP381'
p2127
S'YBR152W'
p2128
sS'VPS73'
p2129
S'YGL104C'
p2130
sS'VPS72'
p2131
S'YDR485C'
p2132
sS'SLM2'
p2133
S'YNL047C'
p2134
sS'SNC2'
p2135
S'YOR327C'
p2136
sS'ASA1'
p2137
S'YPR085C'
p2138
sS'SNC1'
p2139
S'YAL030W'
p2140
sS'SSA1'
p2141
S'YAL005C'
p2142
sS'PCM1'
p2143
S'YEL058W'
p2144
sS'SSA3'
p2145
S'YBL075C'
p2146
sS'SSA2'
p2147
S'YLL024C'
p2148
sS'DFM1'
p2149
S'YDR411C'
p2150
sS'SSA4'
p2151
S'YER103W'
p2152
sS'RPS18A'
p2153
S'YDR450W'
p2154
sS'RSC30'
p2155
S'YHR056C'
p2156
sS'NHP2'
p2157
S'YDL208W'
p2158
sS'HO'
p2159
S'YDL227C'
p2160
sS'FEN2'
p2161
S'YCR028C'
p2162
sS'THS1'
p2163
S'YIL078W'
p2164
sS'SNR7-S'
p2165
S'snR7-S'
p2166
sS'BRE5'
p2167
S'YNR051C'
p2168
sS'BRE4'
p2169
S'YDL231C'
p2170
sS'BRE2'
p2171
S'YLR015W'
p2172
sS'BRE1'
p2173
S'YDL074C'
p2174
sS'MRX1'
p2175
S'YER077C'
p2176
sS'NFS1'
p2177
S'YCL017C'
p2178
sS'MRX3'
p2179
S'YBL095W'
p2180
sS'MRX5'
p2181
S'YJL147C'
p2182
sS'SEC53'
p2183
S'YFL045C'
p2184
sS'MRX7'
p2185
S'YNL211C'
p2186
sS'MRX6'
p2187
S'YNL295W'
p2188
sS'RHO3'
p2189
S'YIL118W'
p2190
sS'MRX8'
p2191
S'YDR336W'
p2192
sS'RHO1'
p2193
S'YPR165W'
p2194
sS'SIZ1'
p2195
S'YDR409W'
p2196
sS'RXT2'
p2197
S'YBR095C'
p2198
sS'CAP1'
p2199
S'YKL007W'
p2200
sS'CAP2'
p2201
S'YIL034C'
p2202
sS'RHO4'
p2203
S'YKR055W'
p2204
sS'OAF3'
p2205
S'YKR064W'
p2206
sS'OAF1'
p2207
S'YAL051W'
p2208
sS'SRB8'
p2209
S'YCR081W'
p2210
sS'TPP1'
p2211
S'YMR156C'
p2212
sS'SRB5'
p2213
S'YGR104C'
p2214
sS'SRB4'
p2215
S'YER022W'
p2216
sS'SRB7'
p2217
S'YDR308C'
p2218
sS'SRB6'
p2219
S'YBR253W'
p2220
sS'ERB1'
p2221
S'YMR049C'
p2222
sS'SRB2'
p2223
S'YHR041C'
p2224
sS'MRPL10'
p2225
S'YNL284C'
p2226
sS'MRPL11'
p2227
S'YDL202W'
p2228
sS'KAP95'
p2229
S'YLR347C'
p2230
sS'MRPL13'
p2231
S'YKR006C'
p2232
sS'RPS16B'
p2233
S'YDL083C'
p2234
sS'RPL17A'
p2235
S'YKL180W'
p2236
sS'WSS1'
p2237
S'YHR134W'
p2238
sS'RPS16A'
p2239
S'YMR143W'
p2240
sS'MBP1'
p2241
S'YDL056W'
p2242
sS'HDA2'
p2243
S'YDR295C'
p2244
sS'NGR1'
p2245
S'YBR212W'
p2246
sS'PFK2'
p2247
S'YMR205C'
p2248
sS'MATALPHA2'
p2249
S'YCR039C'
p2250
sS'MATALPHA1'
p2251
S'YCR040W'
p2252
sS'FYV5'
p2253
S'YCL058C'
p2254
sS'FYV4'
p2255
S'YHR059W'
p2256
sS'FYV7'
p2257
S'YLR068W'
p2258
sS'VPS74'
p2259
S'YDR372C'
p2260
sS'ACO1'
p2261
S'YLR304C'
p2262
sS'FYV8'
p2263
S'YGR196C'
p2264
sS'NRM1'
p2265
S'YNR009W'
p2266
sS'ACO2'
p2267
S'YJL200C'
p2268
sS'GLN1'
p2269
S'YPR035W'
p2270
sS'VPS75'
p2271
S'YNL246W'
p2272
sS'MET2'
p2273
S'YNL277W'
p2274
sS'MET3'
p2275
S'YJR010W'
p2276
sS'GDA1'
p2277
S'YEL042W'
p2278
sS'MET6'
p2279
S'YER091C'
p2280
sS'MET7'
p2281
S'YOR241W'
p2282
sS'MET4'
p2283
S'YNL103W'
p2284
sS'MET5'
p2285
S'YJR137C'
p2286
sS'CTI6'
p2287
S'YPL181W'
p2288
sS'VPS71'
p2289
S'YML041C'
p2290
sS'MET8'
p2291
S'YBR213W'
p2292
sS'HAC1'
p2293
S'YFL031W'
p2294
sS'ELP2'
p2295
S'YGR200C'
p2296
sS'BCH1'
p2297
S'YMR237W'
p2298
sS'SUR7'
p2299
S'YML052W'
p2300
sS'SEY1'
p2301
S'YOR165W'
p2302
sS'HCS1'
p2303
S'YKL017C'
p2304
sS'SUR2'
p2305
S'YDR297W'
p2306
sS'SPP382'
p2307
S'YLR424W'
p2308
sS'SUR1'
p2309
S'YPL057C'
p2310
sS'YFH1'
p2311
S'YDL120W'
p2312
sS'ELM1'
p2313
S'YKL048C'
p2314
sS'GLN4'
p2315
S'YOR168W'
p2316
sS'SMC3'
p2317
S'YJL074C'
p2318
sS'YFH7'
p2319
S'YFR007W'
p2320
sS'MSN2'
p2321
S'YMR037C'
p2322
sS'CIR1'
p2323
S'YGR207C'
p2324
sS'HEM25'
p2325
S'YDL119C'
p2326
sS'MSN4'
p2327
S'YKL062W'
p2328
sS'MSN5'
p2329
S'YDR335W'
p2330
sS'SMC5'
p2331
S'YOL034W'
p2332
sS'GSF2'
p2333
S'YML048W'
p2334
sS'LAP2'
p2335
S'YNL045W'
p2336
sS'YPS3'
p2337
S'YLR121C'
p2338
sS'POT1'
p2339
S'YIL160C'
p2340
sS'SMC4'
p2341
S'YLR086W'
p2342
sS'CBC2'
p2343
S'YPL178W'
p2344
sS'AIM41'
p2345
S'YOR215C'
p2346
sS'AIM46'
p2347
S'YHR199C'
p2348
sS'NTS1-1'
p2349
S'NTS1-1'
p2350
sS'AIM44'
p2351
S'YPL158C'
p2352
sS'AIM45'
p2353
S'YPR004C'
p2354
sS'PTI1'
p2355
S'YGR156W'
p2356
sS'SMC6'
p2357
S'YLR383W'
p2358
sS'LCL3'
p2359
S'YGL085W'
p2360
sS'LCL2'
p2361
S'YLR104W'
p2362
sS'RNQ1'
p2363
S'YCL028W'
p2364
sS'PUP2'
p2365
S'YGR253C'
p2366
sS'RPB5'
p2367
S'YBR154C'
p2368
sS'ECM19'
p2369
S'YLR390W'
p2370
sS'ECM18'
p2371
S'YDR125C'
p2372
sS'SSO2'
p2373
S'YMR183C'
p2374
sS'RPB2'
p2375
S'YOR151C'
p2376
sS'RPB3'
p2377
S'YIL021W'
p2378
sS'ECM13'
p2379
S'YBL043W'
p2380
sS'ECM12'
p2381
S'YHR021W-A'
p2382
sS'ECM11'
p2383
S'YDR446W'
p2384
sS'ECM10'
p2385
S'YEL030W'
p2386
sS'SLA2'
p2387
S'YNL243W'
p2388
sS'SUL1'
p2389
S'YBR294W'
p2390
sS'ECM15'
p2391
S'YBL001C'
p2392
sS'ECM14'
p2393
S'YHR132C'
p2394
sS'AMF1'
p2395
S'YOR378W'
p2396
sS'SWH1'
p2397
S'YAR042W'
p2398
sS'GPN3'
p2399
S'YLR243W'
p2400
sS'COR1'
p2401
S'YBL045C'
p2402
sS'KIN82'
p2403
S'YCR091W'
p2404
sS'CSM1'
p2405
S'YCR086W'
p2406
sS'BYE1'
p2407
S'YKL005C'
p2408
sS'AZR1'
p2409
S'YGR224W'
p2410
sS'CSM2'
p2411
S'YIL132C'
p2412
sS'BFR2'
p2413
S'YDR299W'
p2414
sS'CKA1'
p2415
S'YIL035C'
p2416
sS'GEM1'
p2417
S'YAL048C'
p2418
sS'BFR1'
p2419
S'YOR198C'
p2420
sS'HUA2'
p2421
S'YOR284W'
p2422
sS'SLO1'
p2423
S'YER180C-A'
p2424
sS'HUA1'
p2425
S'YGR268C'
p2426
sS'NSA2'
p2427
S'YER126C'
p2428
sS'CDC13'
p2429
S'YDL220C'
p2430
sS'NSA1'
p2431
S'YGL111W'
p2432
sS'ERD1'
p2433
S'YDR414C'
p2434
sS'RRD1'
p2435
S'YIL153W'
p2436
sS'RRD2'
p2437
S'YPL152W'
p2438
sS'ERD2'
p2439
S'YBL040C'
p2440
sS'GGA1'
p2441
S'YDR358W'
p2442
sS'RAI1'
p2443
S'YGL246C'
p2444
sS'RPP0'
p2445
S'YLR340W'
p2446
sS'NDT80'
p2447
S'YHR124W'
p2448
sS'USO1'
p2449
S'YDL058W'
p2450
sS'PHA2'
p2451
S'YNL316C'
p2452
sS'EMI1'
p2453
S'YDR512C'
p2454
sS'EMI2'
p2455
S'YDR516C'
p2456
sS'ITS2-2'
p2457
S'ITS2-2'
p2458
sS'SNR67'
p2459
S'snR67'
p2460
sS'ADH3'
p2461
S'YMR083W'
p2462
sS'INH1'
p2463
S'YDL181W'
p2464
sS'ADH1'
p2465
S'YOL086C'
p2466
sS'BUD21'
p2467
S'YOR078W'
p2468
sS'DSF1'
p2469
S'YEL070W'
p2470
sS'ADH6'
p2471
S'YMR318C'
p2472
sS'ADH5'
p2473
S'YBR145W'
p2474
sS'DSF2'
p2475
S'YBR007C'
p2476
sS'MEX67'
p2477
S'YPL169C'
p2478
sS'APQ12'
p2479
S'YIL040W'
p2480
sS'REP2'
p2481
S'R0040C'
p2482
sS'REP1'
p2483
S'R0020C'
p2484
sS'PRM5'
p2485
S'YIL117C'
p2486
sS'PRM4'
p2487
S'YPL156C'
p2488
sS'PRM7'
p2489
S'YDL039C'
p2490
sS'SAC6'
p2491
S'YDR129C'
p2492
sS'SAC1'
p2493
S'YKL212W'
p2494
sS'EST1'
p2495
S'YLR233C'
p2496
sS'NEL1'
p2497
S'YHR035W'
p2498
sS'PRM2'
p2499
S'YIL037C'
p2500
sS'PHO11'
p2501
S'YAR071W'
p2502
sS'SNR190'
p2503
S'snR190'
p2504
sS'PHO13'
p2505
S'YDL236W'
p2506
sS'PHO12'
p2507
S'YHR215W'
p2508
sS'PRM9'
p2509
S'YAR031W'
p2510
sS'PRM8'
p2511
S'YGL053W'
p2512
sS'SSU72'
p2513
S'YNL222W'
p2514
sS'SDH8'
p2515
S'YBR269C'
p2516
sS'THP1'
p2517
S'YOL072W'
p2518
sS'SPG3'
p2519
S'YDR504C'
p2520
sS'SPG4'
p2521
S'YMR107W'
p2522
sS'SPG5'
p2523
S'YMR191W'
p2524
sS'MAF1'
p2525
S'YDR005C'
p2526
sS'SDH1'
p2527
S'YKL148C'
p2528
sS'SDH3'
p2529
S'YKL141W'
p2530
sS'SDH2'
p2531
S'YLL041C'
p2532
sS'SDH5'
p2533
S'YOL071W'
p2534
sS'SDH4'
p2535
S'YDR178W'
p2536
sS'SDH7'
p2537
S'YDR511W'
p2538
sS'SDH6'
p2539
S'YDR379C-A'
p2540
sS'TPO5'
p2541
S'YKL174C'
p2542
sS'TPO4'
p2543
S'YOR273C'
p2544
sS'RUD3'
p2545
S'YOR216C'
p2546
sS'TPO1'
p2547
S'YLL028W'
p2548
sS'TPO3'
p2549
S'YPR156C'
p2550
sS'TPO2'
p2551
S'YGR138C'
p2552
sS'ROM2'
p2553
S'YLR371W'
p2554
sS'RMI1'
p2555
S'YPL024W'
p2556
sS'SHO1'
p2557
S'YER118C'
p2558
sS'NUP49'
p2559
S'YGL172W'
p2560
sS'YTA6'
p2561
S'YPL074W'
p2562
sS'YTA7'
p2563
S'YGR270W'
p2564
sS'MLH3'
p2565
S'YPL164C'
p2566
sS'MLH2'
p2567
S'YLR035C'
p2568
sS'NUP42'
p2569
S'YDR192C'
p2570
sS'FMC1'
p2571
S'YIL098C'
p2572
sS'BBC1'
p2573
S'YJL020C'
p2574
sS'HSM3'
p2575
S'YBR272C'
p2576
sS'YSH1'
p2577
S'YLR277C'
p2578
sS'NCS2'
p2579
S'YNL119W'
p2580
sS'SCW11'
p2581
S'YGL028C'
p2582
sS'SCW10'
p2583
S'YMR305C'
p2584
sS'DLT1'
p2585
S'YMR126C'
p2586
sS'RPL3'
p2587
S'YOR063W'
p2588
sS'CHD1'
p2589
S'YER164W'
p2590
sS'FYV12'
p2591
S'YOR183W'
p2592
sS'YVC1'
p2593
S'YOR087W'
p2594
sS'TSR2'
p2595
S'YLR435W'
p2596
sS'LDB17'
p2597
S'YDL146W'
p2598
sS'LSO1'
p2599
S'YJR005C-A'
p2600
sS'BCD1'
p2601
S'YHR040W'
p2602
sS'RTF1'
p2603
S'YGL244W'
p2604
sS'SNR63'
p2605
S'snR63'
p2606
sS'POL32'
p2607
S'YJR043C'
p2608
sS'ZIM17'
p2609
S'YNL310C'
p2610
sS'NIS1'
p2611
S'YNL078W'
p2612
sS'SUP35'
p2613
S'YDR172W'
p2614
sS'MRX4'
p2615
S'YPL168W'
p2616
sS'MAL61'
p2617
S'MAL61'
p2618
sS'DIS3'
p2619
S'YOL021C'
p2620
sS'RPL38'
p2621
S'YLR325C'
p2622
sS'RPL39'
p2623
S'YJL189W'
p2624
sS'DUT1'
p2625
S'YBR252W'
p2626
sS'RPL25'
p2627
S'YOL127W'
p2628
sS'RPL32'
p2629
S'YBL092W'
p2630
sS"IMP2'"
p2631
S'YIL154C'
p2632
sS'RTT109'
p2633
S'YLL002W'
p2634
sS'MRX9'
p2635
S'YDL027C'
p2636
sS'PIF1'
p2637
S'YML061C'
p2638
sS'MAL62'
p2639
S'MAL62'
p2640
sS'RGR1'
p2641
S'YLR071C'
p2642
sS'RHO2'
p2643
S'YNL090W'
p2644
sS'BAP3'
p2645
S'YDR046C'
p2646
sS'BAP2'
p2647
S'YBR068C'
p2648
sS'RTT103'
p2649
S'YDR289C'
p2650
sS'RTT102'
p2651
S'YGR275W'
p2652
sS'RTT105'
p2653
S'YER104W'
p2654
sS'RDS2'
p2655
S'YPL133C'
p2656
sS'RTT107'
p2657
S'YHR154W'
p2658
sS'ATF2'
p2659
S'YGR177C'
p2660
sS'PST2'
p2661
S'YDR032C'
p2662
sS'PST1'
p2663
S'YDR055W'
p2664
sS'STF1'
p2665
S'YDL130W-A'
p2666
sS'VMR1'
p2667
S'YHL035C'
p2668
sS'AKL1'
p2669
S'YBR059C'
p2670
sS'HHF1'
p2671
S'YBR009C'
p2672
sS'ABP1'
p2673
S'YCR088W'
p2674
sS'RXT3'
p2675
S'YDL076C'
p2676
sS'SCEI'
p2677
S'Q0160'
p2678
sS'RAS2'
p2679
S'YNL098C'
p2680
sS'TDH1'
p2681
S'YJL052W'
p2682
sS'MFB1'
p2683
S'YDR219C'
p2684
sS'TDH3'
p2685
S'YGR192C'
p2686
sS'EFT1'
p2687
S'YOR133W'
p2688
sS'ECM23'
p2689
S'YPL021W'
p2690
sS'DIA4'
p2691
S'YHR011W'
p2692
sS'EFT2'
p2693
S'YDR385W'
p2694
sS'DIA2'
p2695
S'YOR080W'
p2696
sS'DIA3'
p2697
S'YDL024C'
p2698
sS'MDH2'
p2699
S'YOL126C'
p2700
sS'AIP1'
p2701
S'YMR092C'
p2702
sS'VHC1'
p2703
S'YBR235W'
p2704
sS'PDR5'
p2705
S'YOR153W'
p2706
sS'NPC2'
p2707
S'YDL046W'
p2708
sS'CCA1'
p2709
S'YER168C'
p2710
sS'IML2'
p2711
S'YJL082W'
p2712
sS'RPS19A'
p2713
S'YOL121C'
p2714
sS'SYS1'
p2715
S'YJL004C'
p2716
sS'IML3'
p2717
S'YBR107C'
p2718
sS'YPK9'
p2719
S'YOR291W'
p2720
sS'ARC35'
p2721
S'YNR035C'
p2722
sS'YPK2'
p2723
S'YMR104C'
p2724
sS'YPK3'
p2725
S'YBR028C'
p2726
sS'DFR1'
p2727
S'YOR236W'
p2728
sS'YPK1'
p2729
S'YKL126W'
p2730
sS'RPA135'
p2731
S'YPR010C'
p2732
sS'YPT6'
p2733
S'YLR262C'
p2734
sS'SRS2'
p2735
S'YJL092W'
p2736
sS'NPR1'
p2737
S'YNL183C'
p2738
sS'NPR2'
p2739
S'YEL062W'
p2740
sS'NPR3'
p2741
S'YHL023C'
p2742
sS'BIK1'
p2743
S'YCL029C'
p2744
sS'PUF6'
p2745
S'YDR496C'
p2746
sS'PUF4'
p2747
S'YGL014W'
p2748
sS'PUF3'
p2749
S'YLL013C'
p2750
sS'RAM1'
p2751
S'YDL090C'
p2752
sS'RAM2'
p2753
S'YKL019W'
p2754
sS'HTZ1'
p2755
S'YOL012C'
p2756
sS'OCA5'
p2757
S'YHL029C'
p2758
sS'OCA4'
p2759
S'YCR095C'
p2760
sS'OCA6'
p2761
S'YDR067C'
p2762
sS'OCA1'
p2763
S'YNL099C'
p2764
sS'EXO70'
p2765
S'YJL085W'
p2766
sS'OCA2'
p2767
S'YNL056W'
p2768
sS'SDT1'
p2769
S'YGL224C'
p2770
sS'HMF1'
p2771
S'YER057C'
p2772
sS'UBC8'
p2773
S'YEL012W'
p2774
sS'UBC9'
p2775
S'YDL064W'
p2776
sS'ATG38'
p2777
S'YLR211C'
p2778
sS'ATG39'
p2779
S'YLR312C'
p2780
sS'RBG1'
p2781
S'YAL036C'
p2782
sS'VID27'
p2783
S'YNL212W'
p2784
sS'VID24'
p2785
S'YBR105C'
p2786
sS'RBG2'
p2787
S'YGR173W'
p2788
sS'ATG32'
p2789
S'YIL146C'
p2790
sS'UBC1'
p2791
S'YDR177W'
p2792
sS'VID28'
p2793
S'YIL017C'
p2794
sS'ATG31'
p2795
S'YDR022C'
p2796
sS'UBC4'
p2797
S'YBR082C'
p2798
sS'UBC5'
p2799
S'YDR059C'
p2800
sS'UBC6'
p2801
S'YER100W'
p2802
sS'UBC7'
p2803
S'YMR022W'
p2804
sS'RIM15'
p2805
S'YFL033C'
p2806
sS'SHS1'
p2807
S'YDL225W'
p2808
sS'ICL1'
p2809
S'YER065C'
p2810
sS'ICL2'
p2811
S'YPR006C'
p2812
sS'SGT1'
p2813
S'YOR057W'
p2814
sS'PEX25'
p2815
S'YPL112C'
p2816
sS'RNA14'
p2817
S'YMR061W'
p2818
sS'ARR2'
p2819
S'YPR200C'
p2820
sS'SEH1'
p2821
S'YGL100W'
p2822
sS'TYR1'
p2823
S'YBR166C'
p2824
sS'RPS17A'
p2825
S'YML024W'
p2826
sS'WHI3'
p2827
S'YNL197C'
p2828
sS'NFU1'
p2829
S'YKL040C'
p2830
sS'RPS17B'
p2831
S'YDR447C'
p2832
sS'RAV1'
p2833
S'YJR033C'
p2834
sS'SNT309'
p2835
S'YPR101W'
p2836
sS'RIM11'
p2837
S'YMR139W'
p2838
sS'VPH2'
p2839
S'YKL119C'
p2840
sS'ROY1'
p2841
S'YMR258C'
p2842
sS'DCD1'
p2843
S'YHR144C'
p2844
sS'VPH1'
p2845
S'YOR270C'
p2846
sS'POL12'
p2847
S'YBL035C'
p2848
sS'ALO1'
p2849
S'YML086C'
p2850
sS'KRR1'
p2851
S'YCL059C'
p2852
sS'ERV46'
p2853
S'YAL042W'
p2854
sS'PMT4'
p2855
S'YJR143C'
p2856
sS'URH1'
p2857
S'YDR400W'
p2858
sS'HHT1'
p2859
S'YBR010W'
p2860
sS'TEN1'
p2861
S'YLR010C'
p2862
sS'CAF120'
p2863
S'YNL278W'
p2864
sS'PCC1'
p2865
S'YKR095W-A'
p2866
sS'PMT7'
p2867
S'YDR307W'
p2868
sS'MRPL15'
p2869
S'YLR312W-A'
p2870
sS'SNR82'
p2871
S'snR82'
p2872
sS'STP1'
p2873
S'YDR463W'
p2874
sS'SNR80'
p2875
S'snR80'
p2876
sS'CWC25'
p2877
S'YNL245C'
p2878
sS'SNR86'
p2879
S'snR86'
p2880
sS'HYR1'
p2881
S'YIR037W'
p2882
sS'SNR84'
p2883
S'snR84'
p2884
sS'LEO1'
p2885
S'YOR123C'
p2886
sS'21S_RRNA'
p2887
S'Q0158'
p2888
sS'CWC22'
p2889
S'YGR278W'
p2890
sS'MAG1'
p2891
S'YER142C'
p2892
sS'MRPL17'
p2893
S'YNL252C'
p2894
sS'OSW1'
p2895
S'YOR255W'
p2896
sS'CDC20'
p2897
S'YGL116W'
p2898
sS'GAC1'
p2899
S'YOR178C'
p2900
sS'VPS68'
p2901
S'YOL129W'
p2902
sS'MRPL19'
p2903
S'YNL185C'
p2904
sS'PSF1'
p2905
S'YDR013W'
p2906
sS'ABF2'
p2907
S'YMR072W'
p2908
sS'ABF1'
p2909
S'YKL112W'
p2910
sS'PMT2'
p2911
S'YAL023C'
p2912
sS'SPO23'
p2913
S'YBR250W'
p2914
sS'SPO22'
p2915
S'YIL073C'
p2916
sS'VPS60'
p2917
S'YDR486C'
p2918
sS'CDC48'
p2919
S'YDL126C'
p2920
sS'PCL9'
p2921
S'YDL179W'
p2922
sS'AFT2'
p2923
S'YPL202C'
p2924
sS'RPM1'
p2925
S'Q0285'
p2926
sS'PCL2'
p2927
S'YDL127W'
p2928
sS'NPL6'
p2929
S'YMR091C'
p2930
sS'RPM2'
p2931
S'YML091C'
p2932
sS'PCL7'
p2933
S'YIL050W'
p2934
sS'PCL6'
p2935
S'YER059W'
p2936
sS'PCL5'
p2937
S'YHR071W'
p2938
sS'SUF10'
p2939
S'tP(AGG)N'
p2940
sS'PEP8'
p2941
S'YJL053W'
p2942
sS'DMA2'
p2943
S'YNL116W'
p2944
sS'PSH1'
p2945
S'YOL054W'
p2946
sS'RPN13'
p2947
S'YLR421C'
p2948
sS'PEP1'
p2949
S'YBL017C'
p2950
sS'PEP3'
p2951
S'YLR148W'
p2952
sS'BRF1'
p2953
S'YGR246C'
p2954
sS'PEP5'
p2955
S'YMR231W'
p2956
sS'PEP4'
p2957
S'YPL154C'
p2958
sS'PEP7'
p2959
S'YDR323C'
p2960
sS'MTW1'
p2961
S'YAL034W-A'
p2962
sS'UCC1'
p2963
S'YLR224W'
p2964
sS'MRP13'
p2965
S'YGR084C'
p2966
sS'SOE1'
p2967
S'tE(UUC)G1'
p2968
sS'UGX2'
p2969
S'YDL169C'
p2970
sS'MRP17'
p2971
S'YKL003C'
p2972
sS'ZDS2'
p2973
S'YML109W'
p2974
sS'DIA1'
p2975
S'YMR316W'
p2976
sS'ASE1'
p2977
S'YOR058C'
p2978
sS'CHK1'
p2979
S'YBR274W'
p2980
sS'SMD1'
p2981
S'YGR074W'
p2982
sS'RSC1'
p2983
S'YGR056W'
p2984
sS'RSC2'
p2985
S'YLR357W'
p2986
sS'RSC3'
p2987
S'YDR303C'
p2988
sS'HMT1'
p2989
S'YBR034C'
p2990
sS'SMD2'
p2991
S'YLR275W'
p2992
sS'RSC6'
p2993
S'YCR052W'
p2994
sS'RSC8'
p2995
S'YFR037C'
p2996
sS'RSC9'
p2997
S'YML127W'
p2998
sS'YRO2'
p2999
S'YBR054W'
p3000
sS'AQY2'
p3001
S'YLL052C'
p3002
sS'RRP17'
p3003
S'YDR412W'
p3004
sS'RRP14'
p3005
S'YKL082C'
p3006
sS'SGF73'
p3007
S'YGL066W'
p3008
sS'RCM1'
p3009
S'YNL022C'
p3010
sS'ACP1'
p3011
S'YKL192C'
p3012
sS'YAK1'
p3013
S'YJL141C'
p3014
sS'FYV6'
p3015
S'YNL133C'
p3016
sS'RRP15'
p3017
S'YPR143W'
p3018
sS'IES2'
p3019
S'YNL215W'
p3020
sS'EGT2'
p3021
S'YNL327W'
p3022
sS'AHA1'
p3023
S'YDR214W'
p3024
sS'RSA3'
p3025
S'YLR221C'
p3026
sS'UFO1'
p3027
S'YML088W'
p3028
sS'SAR1'
p3029
S'YPL218W'
p3030
sS'GTR2'
p3031
S'YGR163W'
p3032
sS'PET494'
p3033
S'YNR045W'
p3034
sS'CBP6'
p3035
S'YBR120C'
p3036
sS'CBP4'
p3037
S'YGR174C'
p3038
sS'PAH1'
p3039
S'YMR165C'
p3040
sS'CBP2'
p3041
S'YHL038C'
p3042
sS'CBP1'
p3043
S'YJL209W'
p3044
sS'COX20'
p3045
S'YDR231C'
p3046
sS'CTH1'
p3047
S'YDR151C'
p3048
sS'COX10'
p3049
S'YPL172C'
p3050
sS'MEU1'
p3051
S'YLR017W'
p3052
sS'NSG2'
p3053
S'YNL156C'
p3054
sS'SUS1'
p3055
S'YBR111W-A'
p3056
sS'MCA1'
p3057
S'YOR197W'
p3058
sS'BTN2'
p3059
S'YGR142W'
p3060
sS'RDN58-1'
p3061
S'RDN58-1'
p3062
sS'RDS3'
p3063
S'YPR094W'
p3064
sS'COX7'
p3065
S'YMR256C'
p3066
sS'RDS1'
p3067
S'YCR106W'
p3068
sS'COB'
p3069
S'Q0105'
p3070
sS'HCR1'
p3071
S'YLR192C'
p3072
sS'CIR2'
p3073
S'YOR356W'
p3074
sS'RRP5'
p3075
S'YMR229C'
p3076
sS'INO4'
p3077
S'YOL108C'
p3078
sS'CTF4'
p3079
S'YPR135W'
p3080
sS'RIF1'
p3081
S'YBR275C'
p3082
sS'GTB1'
p3083
S'YDR221W'
p3084
sS'RIF2'
p3085
S'YLR453C'
p3086
sS'PET112'
p3087
S'YBL080C'
p3088
sS'MSO1'
p3089
S'YNR049C'
p3090
sS'KNS1'
p3091
S'YLL019C'
p3092
sS'GAL83'
p3093
S'YER027C'
p3094
sS'CTF8'
p3095
S'YHR191C'
p3096
sS'SET4'
p3097
S'YJL105W'
p3098
sS'SET5'
p3099
S'YHR207C'
p3100
sS'SET6'
p3101
S'YPL165C'
p3102
sS'MET1'
p3103
S'YKR069W'
p3104
sS'SNR74'
p3105
S'snR74'
p3106
sS'SET1'
p3107
S'YHR119W'
p3108
sS'SET2'
p3109
S'YJL168C'
p3110
sS'SET3'
p3111
S'YKR029C'
p3112
sS'RNR2'
p3113
S'YJL026W'
p3114
sS'RNR3'
p3115
S'YIL066C'
p3116
sS'MEC1'
p3117
S'YBR136W'
p3118
sS'RNR1'
p3119
S'YER070W'
p3120
sS'CDA1'
p3121
S'YLR307W'
p3122
sS'NSR1'
p3123
S'YGR159C'
p3124
sS'INO1'
p3125
S'YJL153C'
p3126
sS'SSL2'
p3127
S'YIL143C'
p3128
sS'SSL1'
p3129
S'YLR005W'
p3130
sS'YPS7'
p3131
S'YDR349C'
p3132
sS'PEX7'
p3133
S'YDR142C'
p3134
sS'STE11'
p3135
S'YLR362W'
p3136
sS'TIP20'
p3137
S'YGL145W'
p3138
sS'LMO1'
p3139
S'YLL007C'
p3140
sS'HUR1'
p3141
S'YGL168W'
p3142
sS'PEX6'
p3143
S'YNL329C'
p3144
sS'VHR2'
p3145
S'YER064C'
p3146
sS'SUM1'
p3147
S'YDR310C'
p3148
sS'RGM1'
p3149
S'YMR182C'
p3150
sS'GPM2'
p3151
S'YDL021W'
p3152
sS'COS6'
p3153
S'YGR295C'
p3154
sS'COS5'
p3155
S'YJR161C'
p3156
sS'GPM1'
p3157
S'YKL152C'
p3158
sS'COS3'
p3159
S'YML132W'
p3160
sS'COS2'
p3161
S'YBR302C'
p3162
sS'COS1'
p3163
S'YNL336W'
p3164
sS'PEX8'
p3165
S'YGR077C'
p3166
sS'SWI5'
p3167
S'YDR146C'
p3168
sS'SWI4'
p3169
S'YER111C'
p3170
sS'YSC84'
p3171
S'YHR016C'
p3172
sS'SWI6'
p3173
S'YLR182W'
p3174
sS'SWI1'
p3175
S'YPL016W'
p3176
sS'YSC83'
p3177
S'YHR017W'
p3178
sS'COS9'
p3179
S'YKL219W'
p3180
sS'COS8'
p3181
S'YHL048W'
p3182
sS'MPM1'
p3183
S'YJL066C'
p3184
sS'RGC1'
p3185
S'YPR115W'
p3186
sS'SLN1'
p3187
S'YIL147C'
p3188
sS'PEX21'
p3189
S'YGR239C'
p3190
sS'RPS9B'
p3191
S'YBR189W'
p3192
sS'MEF2'
p3193
S'YJL102W'
p3194
sS'HMI1'
p3195
S'YOL095C'
p3196
sS'AGA1'
p3197
S'YNR044W'
p3198
sS'TGL1'
p3199
S'YKL140W'
p3200
sS'SPO77'
p3201
S'YLR341W'
p3202
sS'NCL1'
p3203
S'YBL024W'
p3204
sS'IRC23'
p3205
S'YOR044W'
p3206
sS'SSZ1'
p3207
S'YHR064C'
p3208
sS'IRC21'
p3209
S'YMR073C'
p3210
sS'EPS1'
p3211
S'YIL005W'
p3212
sS'PPR1'
p3213
S'YLR014C'
p3214
sS'RNH201'
p3215
S'YNL072W'
p3216
sS'RNH202'
p3217
S'YDR279W'
p3218
sS'RNH203'
p3219
S'YLR154C'
p3220
sS'DED1'
p3221
S'YOR204W'
p3222
sS'ISU2'
p3223
S'YOR226C'
p3224
sS'VBA4'
p3225
S'YDR119W'
p3226
sS'ADK2'
p3227
S'YER170W'
p3228
sS'ADK1'
p3229
S'YDR226W'
p3230
sS'CRF1'
p3231
S'YDR223W'
p3232
sS'SAD1'
p3233
S'YFR005C'
p3234
sS'NEO1'
p3235
S'YIL048W'
p3236
sS'KTI11'
p3237
S'YBL071W-A'
p3238
sS'HOR7'
p3239
S'YMR251W-A'
p3240
sS'GZF3'
p3241
S'YJL110C'
p3242
sS'CNA1'
p3243
S'YLR433C'
p3244
sS'RRP9'
p3245
S'YPR137W'
p3246
sS'HRD3'
p3247
S'YLR207W'
p3248
sS'SRP54'
p3249
S'YPR088C'
p3250
sS'HRD1'
p3251
S'YOL013C'
p3252
sS'CBF5'
p3253
S'YLR175W'
p3254
sS'YCT1'
p3255
S'YLL055W'
p3256
sS'ADE4'
p3257
S'YMR300C'
p3258
sS'SPF1'
p3259
S'YEL031W'
p3260
sS'ADE1'
p3261
S'YAR015W'
p3262
sS'ADE2'
p3263
S'YOR128C'
p3264
sS'ADE3'
p3265
S'YGR204W'
p3266
sS'ROT1'
p3267
S'YMR200W'
p3268
sS'GUS1'
p3269
S'YGL245W'
p3270
sS'PER33'
p3271
S'YLR064W'
p3272
sS'ROT2'
p3273
S'YBR229C'
p3274
sS'ADE8'
p3275
S'YDR408C'
p3276
sS'TFG2'
p3277
S'YGR005C'
p3278
sS'TFG1'
p3279
S'YGR186W'
p3280
sS'PET54'
p3281
S'YGR222W'
p3282
sS'PMU1'
p3283
S'YKL128C'
p3284
sS'TDA1'
p3285
S'YMR291W'
p3286
sS'PAI3'
p3287
S'YMR174C'
p3288
sS'CPD1'
p3289
S'YGR247W'
p3290
sS'SOF1'
p3291
S'YLL011W'
p3292
sS'DSS4'
p3293
S'YPR017C'
p3294
sS'RPL1B'
p3295
S'YGL135W'
p3296
sS'PCL10'
p3297
S'YGL134W'
p3298
sS'DSD1'
p3299
S'YGL196W'
p3300
sS'SPR28'
p3301
S'YDR218C'
p3302
sS'TRL1'
p3303
S'YJL087C'
p3304
sS'BUD8'
p3305
S'YLR353W'
p3306
sS'CAC2'
p3307
S'YML102W'
p3308
sS'YTH1'
p3309
S'YPR107C'
p3310
sS'TRM82'
p3311
S'YDR165W'
p3312
sS'HSL1'
p3313
S'YKL101W'
p3314
sS'SCP160'
p3315
S'YJL080C'
p3316
sS'HSL7'
p3317
S'YBR133C'
p3318
sS'MHT1'
p3319
S'YLL062C'
p3320
sS'PET100'
p3321
S'YDR079W'
p3322
sS'SNR24'
p3323
S'snR24'
p3324
sS'GIP1'
p3325
S'YBR045C'
p3326
sS'GIP2'
p3327
S'YER054C'
p3328
sS'GIP3'
p3329
S'YPL137C'
p3330
sS'GIP4'
p3331
S'YAL031C'
p3332
sS'ITC1'
p3333
S'YGL133W'
p3334
sS'SUV3'
p3335
S'YPL029W'
p3336
sS'SFG1'
p3337
S'YOR315W'
p3338
sS'RTM1'
p3339
S'RTM1'
p3340
sS'PEX34'
p3341
S'YCL056C'
p3342
sS'KIC1'
p3343
S'YHR102W'
p3344
sS'PEX32'
p3345
S'YBR168W'
p3346
sS'PEX31'
p3347
S'YGR004W'
p3348
sS'CGR1'
p3349
S'YGL029W'
p3350
sS'NTE1'
p3351
S'YML059C'
p3352
sS'NUP170'
p3353
S'YBL079W'
p3354
sS'ALR2'
p3355
S'YFL050C'
p3356
sS'PFS2'
p3357
S'YNL317W'
p3358
sS'WTM1'
p3359
S'YOR230W'
p3360
sS'MSN1'
p3361
S'YOL116W'
p3362
sS'RTG3'
p3363
S'YBL103C'
p3364
sS'RTG2'
p3365
S'YGL252C'
p3366
sS'RTG1'
p3367
S'YOL067C'
p3368
sS'YTA12'
p3369
S'YMR089C'
p3370
sS'RKR1'
p3371
S'YMR247C'
p3372
sS'HMS1'
p3373
S'YOR032C'
p3374
sS'FEX2'
p3375
S'YPL279C'
p3376
sS'SUC7'
p3377
S'SUC7'
p3378
sS'SNR62'
p3379
S'snR62'
p3380
sS'BAS1'
p3381
S'YKR099W'
p3382
sS'APJ1'
p3383
S'YNL077W'
p3384
sS'MMS1'
p3385
S'YPR164W'
p3386
sS'PRT1'
p3387
S'YOR361C'
p3388
sS'RSM10'
p3389
S'YDR041W'
p3390
sS'MPH2'
p3391
S'YDL247W'
p3392
sS'MPH1'
p3393
S'YIR002C'
p3394
sS'AI5_ALPHA'
p3395
S'Q0070'
p3396
sS'HBN1'
p3397
S'YCL026C-B'
p3398
sS'RSM18'
p3399
S'YER050C'
p3400
sS'RSM19'
p3401
S'YNR037C'
p3402
sS'RSB1'
p3403
S'YOR049C'
p3404
sS'LAP3'
p3405
S'YNL239W'
p3406
sS'ERP1'
p3407
S'YAR002C-A'
p3408
sS'FAD1'
p3409
S'YDL045C'
p3410
sS'ICP55'
p3411
S'YER078C'
p3412
sS'NAR1'
p3413
S'YNL240C'
p3414
sS'TVP18'
p3415
S'YMR071C'
p3416
sS'PCS60'
p3417
S'YBR222C'
p3418
sS'MFA2'
p3419
S'YNL145W'
p3420
sS'MFA1'
p3421
S'YDR461W'
p3422
sS'GUK1'
p3423
S'YDR454C'
p3424
sS'PIK1'
p3425
S'YNL267W'
p3426
sS'NMT1'
p3427
S'YLR195C'
p3428
sS'MKK1'
p3429
S'YOR231W'
p3430
sS'BEM4'
p3431
S'YPL161C'
p3432
sS'YCK2'
p3433
S'YNL154C'
p3434
sS'MMF1'
p3435
S'YIL051C'
p3436
sS'ERP4'
p3437
S'YOR016C'
p3438
sS'RPL15A'
p3439
S'YLR029C'
p3440
sS'GEA1'
p3441
S'YJR031C'
p3442
sS'RPL8B'
p3443
S'YLL045C'
p3444
sS'PBI1'
p3445
S'YPL272C'
p3446
sS'SYT1'
p3447
S'YPR095C'
p3448
sS'PBI2'
p3449
S'YNL015W'
p3450
sS'AFG1'
p3451
S'YEL052W'
p3452
sS'AFG2'
p3453
S'YLR397C'
p3454
sS'AFG3'
p3455
S'YER017C'
p3456
sS'SPT8'
p3457
S'YLR055C'
p3458
sS'CWC24'
p3459
S'YLR323C'
p3460
sS'JID1'
p3461
S'YPR061C'
p3462
sS'ECO1'
p3463
S'YFR027W'
p3464
sS'RBD2'
p3465
S'YPL246C'
p3466
sS'APM1'
p3467
S'YPL259C'
p3468
sS'PMA2'
p3469
S'YPL036W'
p3470
sS'SPT3'
p3471
S'YDR392W'
p3472
sS'SPT2'
p3473
S'YER161C'
p3474
sS'SPT5'
p3475
S'YML010W'
p3476
sS'DIN7'
p3477
S'YDR263C'
p3478
sS'SPT7'
p3479
S'YBR081C'
p3480
sS'SPT6'
p3481
S'YGR116W'
p3482
sS'RPL37B'
p3483
S'YDR500C'
p3484
sS'POM152'
p3485
S'YMR129W'
p3486
sS'MMS21'
p3487
S'YEL019C'
p3488
sS'SYF2'
p3489
S'YGR129W'
p3490
sS'HIR1'
p3491
S'YBL008W'
p3492
sS'DLS1'
p3493
S'YJL065C'
p3494
sS'YEL1'
p3495
S'YBL060W'
p3496
sS'MMT2'
p3497
S'YPL224C'
p3498
sS'MMT1'
p3499
S'YMR177W'
p3500
sS'SNR6'
p3501
S'snR6'
p3502
sS'ANP1'
p3503
S'YEL036C'
p3504
sS'AEP1'
p3505
S'YMR064W'
p3506
sS'LEA1'
p3507
S'YPL213W'
p3508
sS'CLD1'
p3509
S'YGR110W'
p3510
sS'BRX1'
p3511
S'YOL077C'
p3512
sS'CHL1'
p3513
S'YPL008W'
p3514
sS'SDS3'
p3515
S'YIL084C'
p3516
sS'RVS167'
p3517
S'YDR388W'
p3518
sS'BZZ1'
p3519
S'YHR114W'
p3520
sS'PFA3'
p3521
S'YNL326C'
p3522
sS'RF2'
p3523
S'RF2'
p3524
sS'SAP30'
p3525
S'YMR263W'
p3526
sS'NBL1'
p3527
S'YHR199C-A'
p3528
sS'QCR8'
p3529
S'YJL166W'
p3530
sS'NKP1'
p3531
S'YDR383C'
p3532
sS'EXO5'
p3533
S'YBR163W'
p3534
sS'MVB12'
p3535
S'YGR206W'
p3536
sS'SHR5'
p3537
S'YOL110W'
p3538
sS'SHR3'
p3539
S'YDL212W'
p3540
sS'FEX1'
p3541
S'YOR390W'
p3542
sS'RPL17B'
p3543
S'YJL177W'
p3544
sS'HEM2'
p3545
S'YGL040C'
p3546
sS'BEM1'
p3547
S'YBR200W'
p3548
sS'BEM2'
p3549
S'YER155C'
p3550
sS'HEM1'
p3551
S'YDR232W'
p3552
sS'RPL20B'
p3553
S'YOR312C'
p3554
sS'SNR66'
p3555
S'snR66'
p3556
sS'COG6'
p3557
S'YNL041C'
p3558
sS'RPL20A'
p3559
S'YMR242C'
p3560
sS'UBP1'
p3561
S'YDL122W'
p3562
sS'RPB4'
p3563
S'YJL140W'
p3564
sS'UBP3'
p3565
S'YER151C'
p3566
sS'UME6'
p3567
S'YDR207C'
p3568
sS'UBP5'
p3569
S'YER144C'
p3570
sS'PRP19'
p3571
S'YLL036C'
p3572
sS'UBP7'
p3573
S'YIL156W'
p3574
sS'UBP6'
p3575
S'YFR010W'
p3576
sS'UBP9'
p3577
S'YER098W'
p3578
sS'COA1'
p3579
S'YIL157C'
p3580
sS'PRP16'
p3581
S'YKR086W'
p3582
sS'DCG1'
p3583
S'YIR030C'
p3584
sS'PRP11'
p3585
S'YDL043C'
p3586
sS'SNR61'
p3587
S'snR61'
p3588
sS'SGM1'
p3589
S'YJR134C'
p3590
sS'SUF7'
p3591
S'tP(UGG)M'
p3592
sS'RPB7'
p3593
S'YDR404C'
p3594
sS'MAD2'
p3595
S'YJL030W'
p3596
sS'MAD3'
p3597
S'YJL013C'
p3598
sS'MAD1'
p3599
S'YGL086W'
p3600
sS'SCD5'
p3601
S'YOR329C'
p3602
sS'ILV2'
p3603
S'YMR108W'
p3604
sS'PSY4'
p3605
S'YBL046W'
p3606
sS'ETS1-1'
p3607
S'ETS1-1'
p3608
sS'MTD1'
p3609
S'YKR080W'
p3610
sS'MOH1'
p3611
S'YBL049W'
p3612
sS'PSY2'
p3613
S'YNL201C'
p3614
sS'MRS1'
p3615
S'YIR021W'
p3616
sS'GPP1'
p3617
S'YIL053W'
p3618
sS'MDM31'
p3619
S'YHR194W'
p3620
sS'FCF1'
p3621
S'YDR339C'
p3622
sS'GPP2'
p3623
S'YER062C'
p3624
sS'PEA2'
p3625
S'YER149C'
p3626
sS'MRS2'
p3627
S'YOR334W'
p3628
sS'MDM36'
p3629
S'YPR083W'
p3630
sS'MRH1'
p3631
S'YDR033W'
p3632
sS'TEX1'
p3633
S'YNL253W'
p3634
sS'AQR1'
p3635
S'YNL065W'
p3636
sS'MRH4'
p3637
S'YGL064C'
p3638
sS'GNP1'
p3639
S'YDR508C'
p3640
sS'VPS53'
p3641
S'YJL029C'
p3642
sS'VPS52'
p3643
S'YDR484W'
p3644
sS'VPS51'
p3645
S'YKR020W'
p3646
sS'MATA1'
p3647
S'MATA1'
p3648
sS'MAK31'
p3649
S'YCR020C-A'
p3650
sS'VPS55'
p3651
S'YJR044C'
p3652
sS'MAK32'
p3653
S'YCR019W'
p3654
sS'PRM3'
p3655
S'YPL192C'
p3656
sS'SNR54'
p3657
S'snR54'
p3658
sS'SNR57'
p3659
S'snR57'
p3660
sS'SNR56'
p3661
S'snR56'
p3662
sS'SYH1'
p3663
S'YPL105C'
p3664
sS'SWS2'
p3665
S'YNL081C'
p3666
sS'SNR53'
p3667
S'snR53'
p3668
sS'SNR52'
p3669
S'snR52'
p3670
sS'CWC21'
p3671
S'YDR482C'
p3672
sS'RPB8'
p3673
S'YOR224C'
p3674
sS'PLB1'
p3675
S'YMR008C'
p3676
sS'SNR59'
p3677
S'snR59'
p3678
sS'SNM1'
p3679
S'YDR478W'
p3680
sS'SGS1'
p3681
S'YMR190C'
p3682
sS'RPB9'
p3683
S'YGL070C'
p3684
sS'PSK2'
p3685
S'YOL045W'
p3686
sS'NYV1'
p3687
S'YLR093C'
p3688
sS'PSK1'
p3689
S'YAL017W'
p3690
sS'ASF2'
p3691
S'YDL197C'
p3692
sS'SUL2'
p3693
S'YLR092W'
p3694
sS'ASF1'
p3695
S'YJL115W'
p3696
sS'DDC1'
p3697
S'YPL194W'
p3698
sS'TCB2'
p3699
S'YNL087W'
p3700
sS'SLA1'
p3701
S'YBL007C'
p3702
sS'MET16'
p3703
S'YPR167C'
p3704
sS'RPS18B'
p3705
S'YML026C'
p3706
sS'MKT1'
p3707
S'YNL085W'
p3708
sS'PRE8'
p3709
S'YML092C'
p3710
sS'HOT1'
p3711
S'YMR172W'
p3712
sS'SKP1'
p3713
S'YDR328C'
p3714
sS'CAR2'
p3715
S'YLR438W'
p3716
sS'CAR1'
p3717
S'YPL111W'
p3718
sS'ASI2'
p3719
S'YNL159C'
p3720
sS'CNM67'
p3721
S'YNL225C'
p3722
sS'HMS2'
p3723
S'YJR147W'
p3724
sS'SGO1'
p3725
S'YOR073W'
p3726
sS'KEG1'
p3727
S'YFR042W'
p3728
sS'NUD1'
p3729
S'YOR373W'
p3730
sS'FIP1'
p3731
S'YJR093C'
p3732
sS'STR2'
p3733
S'YJR130C'
p3734
sS'CCZ1'
p3735
S'YBR131W'
p3736
sS'SRD1'
p3737
S'YCR018C'
p3738
sS'WHI5'
p3739
S'YOR083W'
p3740
sS'WHI2'
p3741
S'YOR043W'
p3742
sS'HAS1'
p3743
S'YMR290C'
p3744
sS'GPN2'
p3745
S'YOR262W'
p3746
sS'SAS5'
p3747
S'YOR213C'
p3748
sS'RPS14A'
p3749
S'YCR031C'
p3750
sS'RPS14B'
p3751
S'YJL191W'
p3752
sS'MRI1'
p3753
S'YPR118W'
p3754
sS'SAS3'
p3755
S'YBL052C'
p3756
sS'SAS2'
p3757
S'YMR127C'
p3758
sS'MIC26'
p3759
S'YGR235C'
p3760
sS'YPI1'
p3761
S'YFR003C'
p3762
sS'SNR45'
p3763
S'snR45'
p3764
sS'RPL19B'
p3765
S'YBL027W'
p3766
sS'RFM1'
p3767
S'YOR279C'
p3768
sS'HYP2'
p3769
S'YEL034W'
p3770
sS'ENO1'
p3771
S'YGR254W'
p3772
sS'ENO2'
p3773
S'YHR174W'
p3774
sS'MSF1'
p3775
S'YPR047W'
p3776
sS'VRG4'
p3777
S'YGL225W'
p3778
sS'PNT1'
p3779
S'YOR266W'
p3780
sS'CSM4'
p3781
S'YPL200W'
p3782
sS'HAP1'
p3783
S'YLR256W'
p3784
sS'MAL6'
p3785
S'MAL6'
p3786
sS'FCY1'
p3787
S'YPR062W'
p3788
sS'CBS2'
p3789
S'YDR197W'
p3790
sS'MNN9'
p3791
S'YPL050C'
p3792
sS'CBS1'
p3793
S'YDL069C'
p3794
sS'ELO2'
p3795
S'YCR034W'
p3796
sS'ELO3'
p3797
S'YLR372W'
p3798
sS'ELO1'
p3799
S'YJL196C'
p3800
sS'IRS4'
p3801
S'YKR019C'
p3802
sS'MNN2'
p3803
S'YBR015C'
p3804
sS'MNN1'
p3805
S'YER001W'
p3806
sS'BNR1'
p3807
S'YIL159W'
p3808
sS'EMP65'
p3809
S'YER140W'
p3810
sS'FPK1'
p3811
S'YNR047W'
p3812
sS'MNN5'
p3813
S'YJL186W'
p3814
sS'MNN4'
p3815
S'YKL201C'
p3816
sS'TNA1'
p3817
S'YGR260W'
p3818
sS'NOP12'
p3819
S'YOL041C'
p3820
sS'CSM3'
p3821
S'YMR048W'
p3822
sS'NOP15'
p3823
S'YNL110C'
p3824
sS'RPL5'
p3825
S'YPL131W'
p3826
sS'RPS9A'
p3827
S'YPL081W'
p3828
sS'PTK1'
p3829
S'YKL198C'
p3830
sS'FMP52'
p3831
S'YER004W'
p3832
sS'PTK2'
p3833
S'YJR059W'
p3834
sS'PHB2'
p3835
S'YGR231C'
p3836
sS'MSH1'
p3837
S'YHR120W'
p3838
sS'MIA40'
p3839
S'YKL195W'
p3840
sS'MSH3'
p3841
S'YCR092C'
p3842
sS'MSH4'
p3843
S'YFL003C'
p3844
sS'MSH5'
p3845
S'YDL154W'
p3846
sS'MSH6'
p3847
S'YDR097C'
p3848
sS'RPL43A'
p3849
S'YPR043W'
p3850
sS'INA17'
p3851
S'YPL099C'
p3852
sS'RRT8'
p3853
S'YOL048C'
p3854
sS'CUL3'
p3855
S'YGR003W'
p3856
sS'RRT5'
p3857
S'YFR032C'
p3858
sS'RRT6'
p3859
S'YGL146C'
p3860
sS'COX2'
p3861
S'Q0250'
p3862
sS'ODC1'
p3863
S'YPL134C'
p3864
sS'RRT2'
p3865
S'YBR246W'
p3866
sS'CTA1'
p3867
S'YDR256C'
p3868
sS'HBS1'
p3869
S'YKR084C'
p3870
sS'IOC2'
p3871
S'YLR095C'
p3872
sS'LIA1'
p3873
S'YJR070C'
p3874
sS'RGL1'
p3875
S'YPL066W'
p3876
sS'SSM4'
p3877
S'YIL030C'
p3878
sS'SPP41'
p3879
S'YDR464W'
p3880
sS'POS5'
p3881
S'YPL188W'
p3882
sS'CMD1'
p3883
S'YBR109C'
p3884
sS'SUN4'
p3885
S'YNL066W'
p3886
sS'FZF1'
p3887
S'YGL254W'
p3888
sS'COP1'
p3889
S'YDL145C'
p3890
sS'YAH1'
p3891
S'YPL252C'
p3892
sS'STE6'
p3893
S'YKL209C'
p3894
sS'AMD2'
p3895
S'YDR242W'
p3896
sS'STE7'
p3897
S'YDL159W'
p3898
sS'RLI1'
p3899
S'YDR091C'
p3900
sS'OSH2'
p3901
S'YDL019C'
p3902
sS'SNR41'
p3903
S'snR41'
p3904
sS'SLM1'
p3905
S'YIL105C'
p3906
sS'BAG7'
p3907
S'YOR134W'
p3908
sS'SLM4'
p3909
S'YBR077C'
p3910
sS'SLM5'
p3911
S'YCR024C'
p3912
sS'TCB1'
p3913
S'YOR086C'
p3914
sS'TCB3'
p3915
S'YML072C'
p3916
sS'RRF1'
p3917
S'YHR038W'
p3918
sS'SEC59'
p3919
S'YMR013C'
p3920
sS'SMA1'
p3921
S'YPL027W'
p3922
sS'AZF1'
p3923
S'YOR113W'
p3924
sS'CDC11'
p3925
S'YJR076C'
p3926
sS'RER1'
p3927
S'YCL001W'
p3928
sS'NTS1-2'
p3929
S'NTS1-2'
p3930
sS'RER2'
p3931
S'YBR002C'
p3932
sS'NAN1'
p3933
S'YPL126W'
p3934
sS'CDC16'
p3935
S'YKL022C'
p3936
sS'ATG19'
p3937
S'YOL082W'
p3938
sS'SNR7-L'
p3939
S'snR7-L'
p3940
sS'BDH2'
p3941
S'YAL061W'
p3942
sS'BDH1'
p3943
S'YAL060W'
p3944
sS'THI80'
p3945
S'YOR143C'
p3946
sS'HSH155'
p3947
S'YMR288W'
p3948
sS'SAM35'
p3949
S'YHR083W'
p3950
sS'CDC14'
p3951
S'YFR028C'
p3952
sS'SAM37'
p3953
S'YMR060C'
p3954
sS'HOS2'
p3955
S'YGL194C'
p3956
sS'RPN7'
p3957
S'YPR108W'
p3958
sS'PPS1'
p3959
S'YBR276C'
p3960
sS'SAE3'
p3961
S'YHR079C-A'
p3962
sS'SAE2'
p3963
S'YGL175C'
p3964
sS'PRK1'
p3965
S'YIL095W'
p3966
sS'GGA2'
p3967
S'YHR108W'
p3968
sS'TVP15'
p3969
S'YDR100W'
p3970
sS'CIK1'
p3971
S'YMR198W'
p3972
sS'PTC6'
p3973
S'YCR079W'
p3974
sS'ACC1'
p3975
S'YNR016C'
p3976
sS'DBF20'
p3977
S'YPR111W'
p3978
sS'TRF5'
p3979
S'YNL299W'
p3980
sS'LYP1'
p3981
S'YNL268W'
p3982
sS'SLM3'
p3983
S'YDL033C'
p3984
sS'SPE4'
p3985
S'YLR146C'
p3986
sS'SPE2'
p3987
S'YOL052C'
p3988
sS'SSC1'
p3989
S'YJR045C'
p3990
sS'CEM1'
p3991
S'YER061C'
p3992
sS'SPE1'
p3993
S'YKL184W'
p3994
sS'MTC1'
p3995
S'YJL123C'
p3996
sS'TPI1'
p3997
S'YDR050C'
p3998
sS'PCK1'
p3999
S'YKR097W'
p4000
sS'ALG8'
p4001
S'YOR067C'
p4002
sS'SAL1'
p4003
S'YNL083W'
p4004
sS'PMT5'
p4005
S'YDL093W'
p4006
sS'PHS1'
p4007
S'YJL097W'
p4008
sS'PPE1'
p4009
S'YHR075C'
p4010
sS'PMT6'
p4011
S'YGR199W'
p4012
sS'PMT1'
p4013
S'YDL095W'
p4014
sS'CWC23'
p4015
S'YGL128C'
p4016
sS'PMT3'
p4017
S'YOR321W'
p4018
sS'EGH1'
p4019
S'YIR007W'
p4020
sS'TRM1'
p4021
S'YDR120C'
p4022
sS'TRM3'
p4023
S'YDL112W'
p4024
sS'TRM2'
p4025
S'YKR056W'
p4026
sS'TRM5'
p4027
S'YHR070W'
p4028
sS'RPL1A'
p4029
S'YPL220W'
p4030
sS'TRM7'
p4031
S'YBR061C'
p4032
sS'APT2'
p4033
S'YDR441C'
p4034
sS'TRM9'
p4035
S'YML014W'
p4036
sS'TRM8'
p4037
S'YDL201W'
p4038
sS'NHA1'
p4039
S'YLR138W'
p4040
sS'RAD14'
p4041
S'YMR201C'
p4042
sS'SHM2'
p4043
S'YLR058C'
p4044
sS'IME2'
p4045
S'YJL106W'
p4046
sS'SHM1'
p4047
S'YBR263W'
p4048
sS'NSG1'
p4049
S'YHR133C'
p4050
sS'PET117'
p4051
S'YER058W'
p4052
sS'VTC4'
p4053
S'YJL012C'
p4054
sS'PET111'
p4055
S'YMR257C'
p4056
sS'VTC2'
p4057
S'YFL004W'
p4058
sS'VTC1'
p4059
S'YER072W'
p4060
sS'TIM44'
p4061
S'YIL022W'
p4062
sS'CTS1'
p4063
S'YLR286C'
p4064
sS'CTS2'
p4065
S'YDR371W'
p4066
sS'RKM1'
p4067
S'YPL208W'
p4068
sS'SUP2'
p4069
S'tY(GUA)D'
p4070
sS'TGL3'
p4071
S'YMR313C'
p4072
sS'TGL2'
p4073
S'YDR058C'
p4074
sS'PEX22'
p4075
S'YAL055W'
p4076
sS'FMO1'
p4077
S'YHR176W'
p4078
sS'SHC1'
p4079
S'YER096W'
p4080
sS'TGL5'
p4081
S'YOR081C'
p4082
sS'TGL4'
p4083
S'YKR089C'
p4084
sS'PEX28'
p4085
S'YHR150W'
p4086
sS'PEX29'
p4087
S'YDR479C'
p4088
sS'FPR2'
p4089
S'YDR519W'
p4090
sS'FPR3'
p4091
S'YML074C'
p4092
sS'FPR4'
p4093
S'YLR449W'
p4094
sS'SRP68'
p4095
S'YPL243W'
p4096
sS'SUP5'
p4097
S'tY(GUA)M1'
p4098
sS'RPL10'
p4099
S'YLR075W'
p4100
sS'RPS8A'
p4101
S'YBL072C'
p4102
sS'RPS8B'
p4103
S'YER102W'
p4104
sS'HLJ1'
p4105
S'YMR161W'
p4106
sS'TDA7'
p4107
S'YNL176C'
p4108
sS'ADH7'
p4109
S'YCR105W'
p4110
sS'ARI1'
p4111
S'YGL157W'
p4112
sS'URA5'
p4113
S'YML106W'
p4114
sS'BAR1'
p4115
S'YIL015W'
p4116
sS'ERP3'
p4117
S'YDL018C'
p4118
sS'ERP2'
p4119
S'YAL007C'
p4120
sS'ERP5'
p4121
S'YHR110W'
p4122
sS'GEA2'
p4123
S'YEL022W'
p4124
sS'HXT9'
p4125
S'YJL219W'
p4126
sS'ERP6'
p4127
S'YGL002W'
p4128
sS'MMS22'
p4129
S'YLR320W'
p4130
sS'IME4'
p4131
S'YGL192W'
p4132
sS'APM2'
p4133
S'YHL019C'
p4134
sS'APM3'
p4135
S'YBR288C'
p4136
sS'APM4'
p4137
S'YOL062C'
p4138
sS'DSE3'
p4139
S'YOR264W'
p4140
sS'SRO7'
p4141
S'YPR032W'
p4142
sS'WIP1'
p4143
S'YDR374W-A'
p4144
sS'TIM18'
p4145
S'YOR297C'
p4146
sS'BDF1'
p4147
S'YLR399C'
p4148
sS'BDF2'
p4149
S'YDL070W'
p4150
sS'NRT1'
p4151
S'YOR071C'
p4152
sS'RGP1'
p4153
S'YDR137W'
p4154
sS'MIR1'
p4155
S'YJR077C'
p4156
sS'SUF17'
p4157
S'tG(GCC)O2'
p4158
sS'RSM7'
p4159
S'YJR113C'
p4160
sS'ODC2'
p4161
S'YOR222W'
p4162
sS'SNR32'
p4163
S'snR32'
p4164
sS'GNA1'
p4165
S'YFL017C'
p4166
sS'FAA4'
p4167
S'YMR246W'
p4168
sS'MOG1'
p4169
S'YJR074W'
p4170
sS'HGH1'
p4171
S'YGR187C'
p4172
sS'PPQ1'
p4173
S'YPL179W'
p4174
sS'NOG1'
p4175
S'YPL093W'
p4176
sS'NOG2'
p4177
S'YNR053C'
p4178
sS'TSA1'
p4179
S'YML028W'
p4180
sS'TSA2'
p4181
S'YDR453C'
p4182
sS'OYE3'
p4183
S'YPL171C'
p4184
sS'SNR48'
p4185
S'snR48'
p4186
sS'MPE1'
p4187
S'YKL059C'
p4188
sS'YPT53'
p4189
S'YNL093W'
p4190
sS'YPT52'
p4191
S'YKR014C'
p4192
sS'SBH2'
p4193
S'YER019C-A'
p4194
sS'SBH1'
p4195
S'YER087C-B'
p4196
sS'CDC12'
p4197
S'YHR107C'
p4198
sS'OSH3'
p4199
S'YHR073W'
p4200
sS'CDC10'
p4201
S'YCR002C'
p4202
sS'SNA3'
p4203
S'YJL151C'
p4204
sS'OSH6'
p4205
S'YKR003W'
p4206
sS'OSH7'
p4207
S'YHR001W'
p4208
sS'FBA1'
p4209
S'YKL060C'
p4210
sS'CDC15'
p4211
S'YAR019C'
p4212
sS'SUF1'
p4213
S'tG(UCC)O'
p4214
sS'SNA4'
p4215
S'YDL123W'
p4216
sS'CDC19'
p4217
S'YAL038W'
p4218
sS'SAC7'
p4219
S'YDR389W'
p4220
sS'RIT1'
p4221
S'YMR283C'
p4222
sS'ASN1'
p4223
S'YPR145W'
p4224
sS'NUP145'
p4225
S'YGL092W'
p4226
sS'SFP1'
p4227
S'YLR403W'
p4228
sS'PRM6'
p4229
S'YML047C'
p4230
sS'COF1'
p4231
S'YLL050C'
p4232
sS'PRM1'
p4233
S'YNL279W'
p4234
sS'BPL1'
p4235
S'YDL141W'
p4236
sS'SNR30'
p4237
S'snR30'
p4238
sS'SYG1'
p4239
S'YIL047C'
p4240
sS'RAD17'
p4241
S'YOR368W'
p4242
sS'ACA1'
p4243
S'YER045C'
p4244
sS'OLE1'
p4245
S'YGL055W'
p4246
sS'CCM1'
p4247
S'YGR150C'
p4248
sS'CRG1'
p4249
S'YHR209W'
p4250
sS'NPP2'
p4251
S'YEL016C'
p4252
sS'RSA1'
p4253
S'YPL193W'
p4254
sS'NPP1'
p4255
S'YCR026C'
p4256
sS'MSP1'
p4257
S'YGR028W'
p4258
sS'CLC1'
p4259
S'YGR167W'
p4260
sS'UBA4'
p4261
S'YHR111W'
p4262
sS'PDP3'
p4263
S'YLR455W'
p4264
sS'ATG14'
p4265
S'YBR128C'
p4266
sS'ATG15'
p4267
S'YCR068W'
p4268
sS'ATG16'
p4269
S'YMR159C'
p4270
sS'UBA1'
p4271
S'YKL210W'
p4272
sS'ATG18'
p4273
S'YFR021W'
p4274
sS'PWP2'
p4275
S'YCR057C'
p4276
sS'PWP1'
p4277
S'YLR196W'
p4278
sS'TRS31'
p4279
S'YDR472W'
p4280
sS'TRS33'
p4281
S'YOR115C'
p4282
sS'STI1'
p4283
S'YOR027W'
p4284
sS'NTH2'
p4285
S'YBR001C'
p4286
sS'ATG10'
p4287
S'YLL042C'
p4288
sS'BI2'
p4289
S'Q0110'
p4290
sS'NTH1'
p4291
S'YDR001C'
p4292
sS'HEL1'
p4293
S'YKR017C'
p4294
sS'TBF1'
p4295
S'YPL128C'
p4296
sS'CNS1'
p4297
S'YBR155W'
p4298
sS'MPR1'
p4299
S'MPR1'
p4300
sS'CMK2'
p4301
S'YOL016C'
p4302
sS'FIG4'
p4303
S'YNL325C'
p4304
sS'ATG12'
p4305
S'YBR217W'
p4306
sS'NAB3'
p4307
S'YPL190C'
p4308
sS'SHQ1'
p4309
S'YIL104C'
p4310
sS'MDM35'
p4311
S'YKL053C-A'
p4312
sS'SUF20'
p4313
S'tG(GCC)F1'
p4314
sS'UBA2'
p4315
S'YDR390C'
p4316
sS'MCP1'
p4317
S'YOR228C'
p4318
sS'SUF23'
p4319
S'tG(GCC)J2'
p4320
sS'UBA3'
p4321
S'YPR066W'
p4322
sS'TEL1'
p4323
S'YBL088C'
p4324
sS'GFD2'
p4325
S'YCL036W'
p4326
sS'GFD1'
p4327
S'YMR255W'
p4328
sS'TEL2'
p4329
S'YGR099W'
p4330
sS'SNR64'
p4331
S'snR64'
p4332
sS'SPG1'
p4333
S'YGR236C'
p4334
sS'AGX1'
p4335
S'YFL030W'
p4336
sS'RQC1'
p4337
S'YDR333C'
p4338
sS'RPL18A'
p4339
S'YOL120C'
p4340
sS'YUR1'
p4341
S'YJL139C'
p4342
sS'MAE1'
p4343
S'YKL029C'
p4344
sS'GRE1'
p4345
S'YPL223C'
p4346
sS'GWT1'
p4347
S'YJL091C'
p4348
sS'YAP1802'
p4349
S'YGR241C'
p4350
sS'MRPL51'
p4351
S'YPR100W'
p4352
sS'UPF3'
p4353
S'YGR072W'
p4354
sS'YAP1801'
p4355
S'YHR161C'
p4356
sS'RBS1'
p4357
S'YDL189W'
p4358
sS'ATO2'
p4359
S'YNR002C'
p4360
sS'TMA7'
p4361
S'YLR262C-A'
p4362
sS'ABD1'
p4363
S'YBR236C'
p4364
sS'VPS45'
p4365
S'YGL095C'
p4366
sS'PLB3'
p4367
S'YOL011W'
p4368
sS'GLC8'
p4369
S'YMR311C'
p4370
sS'VPS41'
p4371
S'YDR080W'
p4372
sS'LSM3'
p4373
S'YLR438C-A'
p4374
sS'SGV1'
p4375
S'YPR161C'
p4376
sS'DOA4'
p4377
S'YDR069C'
p4378
sS'PNO1'
p4379
S'YOR145C'
p4380
sS'COM2'
p4381
S'YER130C'
p4382
sS'MTG2'
p4383
S'YHR168W'
p4384
sS'DOA1'
p4385
S'YKL213C'
p4386
sS'GLC3'
p4387
S'YEL011W'
p4388
sS'HOT13'
p4389
S'YKL084W'
p4390
sS'LIP2'
p4391
S'YLR239C'
p4392
sS'RPC82'
p4393
S'YPR190C'
p4394
sS'LIP5'
p4395
S'YOR196C'
p4396
sS'DUN1'
p4397
S'YDL101C'
p4398
sS'NCS6'
p4399
S'YGL211W'
p4400
sS'PUS1'
p4401
S'YPL212C'
p4402
sS'MAK21'
p4403
S'YDR060W'
p4404
sS'RPL36A'
p4405
S'YMR194W'
p4406
sS'SNR47'
p4407
S'snR47'
p4408
sS'SNR44'
p4409
S'snR44'
p4410
sS'RPL36B'
p4411
S'YPL249C-A'
p4412
sS'SNR42'
p4413
S'snR42'
p4414
sS'SNR43'
p4415
S'snR43'
p4416
sS'AKR1'
p4417
S'YDR264C'
p4418
sS'NDL1'
p4419
S'YLR254C'
p4420
sS'OST3'
p4421
S'YOR085W'
p4422
sS'SKT5'
p4423
S'YBL061C'
p4424
sS'SNL1'
p4425
S'YIL016W'
p4426
sS'SNR49'
p4427
S'snR49'
p4428
sS'ASG1'
p4429
S'YIL130W'
p4430
sS'SNR191'
p4431
S'snR191'
p4432
sS'RTT10'
p4433
S'YPL183C'
p4434
sS'COS10'
p4435
S'YNR075W'
p4436
sS'JSN1'
p4437
S'YJR091C'
p4438
sS'ASG7'
p4439
S'YJL170C'
p4440
sS'RHB1'
p4441
S'YCR027C'
p4442
sS'HEM4'
p4443
S'YOR278W'
p4444
sS'CUZ1'
p4445
S'YNL155W'
p4446
sS'YKU70'
p4447
S'YMR284W'
p4448
sS'EGD2'
p4449
S'YHR193C'
p4450
sS'RDN58-2'
p4451
S'RDN58-2'
p4452
sS'AGC1'
p4453
S'YPR021C'
p4454
sS'RRP36'
p4455
S'YOR287C'
p4456
sS'YRM1'
p4457
S'YOR172W'
p4458
sS'BBP1'
p4459
S'YPL255W'
p4460
sS'HEL2'
p4461
S'YDR266C'
p4462
sS'FAS2'
p4463
S'YPL231W'
p4464
sS'FIS1'
p4465
S'YIL065C'
p4466
sS'HXT2'
p4467
S'YMR011W'
p4468
sS'YPQ1'
p4469
S'YOL092W'
p4470
sS'YPQ2'
p4471
S'YDR352W'
p4472
sS'BNA7'
p4473
S'YDR428C'
p4474
sS'BNA6'
p4475
S'YFR047C'
p4476
sS'RSA4'
p4477
S'YCR072C'
p4478
sS'BNA4'
p4479
S'YBL098W'
p4480
sS'RPL21A'
p4481
S'YBR191W'
p4482
sS'BNA2'
p4483
S'YJR078W'
p4484
sS'BNA1'
p4485
S'YJR025C'
p4486
sS'RPL21B'
p4487
S'YPL079W'
p4488
sS'RAD34'
p4489
S'YDR314C'
p4490
sS'MIC19'
p4491
S'YFR011C'
p4492
sS'SWP82'
p4493
S'YFL049W'
p4494
sS'SAT4'
p4495
S'YCR008W'
p4496
sS'RAD30'
p4497
S'YDR419W'
p4498
sS'RAD33'
p4499
S'YML011C'
p4500
sS'MIC12'
p4501
S'YBR262C'
p4502
sS'RCK2'
p4503
S'YLR248W'
p4504
sS'MIC10'
p4505
S'YCL057C-A'
p4506
sS'MSK1'
p4507
S'YNL073W'
p4508
sS'GAA1'
p4509
S'YLR088W'
p4510
sS'NUT1'
p4511
S'YGL151W'
p4512
sS'AHC2'
p4513
S'YCR082W'
p4514
sS'NPL3'
p4515
S'YDR432W'
p4516
sS'PIP2'
p4517
S'YOR363C'
p4518
sS'CBF2'
p4519
S'YGR140W'
p4520
sS'BNS1'
p4521
S'YGR230W'
p4522
sS'NPL4'
p4523
S'YBR170C'
p4524
sS'FDC1'
p4525
S'YDR539W'
p4526
sS'POG1'
p4527
S'YIL122W'
p4528
sS'DAD1'
p4529
S'YDR016C'
p4530
sS'RVS161'
p4531
S'YCR009C'
p4532
sS'DAD3'
p4533
S'YBR233W-A'
p4534
sS'DAD2'
p4535
S'YKR083C'
p4536
sS'PAN3'
p4537
S'YKL025C'
p4538
sS'PAN2'
p4539
S'YGL094C'
p4540
sS'PAN1'
p4541
S'YIR006C'
p4542
sS'PAN6'
p4543
S'YIL145C'
p4544
sS'PAN5'
p4545
S'YHR063C'
p4546
sS'YSW1'
p4547
S'YBR148W'
p4548
sS'MES1'
p4549
S'YGR264C'
p4550
sS'RPS22B'
p4551
S'YLR367W'
p4552
sS'CBR1'
p4553
S'YIL043C'
p4554
sS'IRR1'
p4555
S'YIL026C'
p4556
sS'STD1'
p4557
S'YOR047C'
p4558
sS'DMC1'
p4559
S'YER179W'
p4560
sS'PUS5'
p4561
S'YLR165C'
p4562
sS'DPP1'
p4563
S'YDR284C'
p4564
sS'ARO10'
p4565
S'YDR380W'
p4566
sS'HST1'
p4567
S'YOL068C'
p4568
sS'RPA190'
p4569
S'YOR341W'
p4570
sS'GDT1'
p4571
S'YBR187W'
p4572
sS'YSY6'
p4573
S'YBR162W-A'
p4574
sS'RIB2'
p4575
S'YOL066C'
p4576
sS'FMP48'
p4577
S'YGR052W'
p4578
sS'GTS1'
p4579
S'YGL181W'
p4580
sS'FMP45'
p4581
S'YDL222C'
p4582
sS'MSI1'
p4583
S'YBR195C'
p4584
sS'HEM13'
p4585
S'YDR044W'
p4586
sS'HEM14'
p4587
S'YER014W'
p4588
sS'MNS1'
p4589
S'YJR131W'
p4590
sS'FMP27'
p4591
S'YLR454W'
p4592
sS'MCM7'
p4593
S'YBR202W'
p4594
sS'FUN14'
p4595
S'YAL008W'
p4596
sS'MCM5'
p4597
S'YLR274W'
p4598
sS'MCM4'
p4599
S'YPR019W'
p4600
sS'MCM3'
p4601
S'YEL032W'
p4602
sS'MCM2'
p4603
S'YBL023C'
p4604
sS'MCM1'
p4605
S'YMR043W'
p4606
sS'FUN12'
p4607
S'YAL035W'
p4608
sS'CKI1'
p4609
S'YLR133W'
p4610
sS'OPI1'
p4611
S'YHL020C'
p4612
sS'FUN19'
p4613
S'YAL034C'
p4614
sS'SUI3'
p4615
S'YPL237W'
p4616
sS'IMI1'
p4617
S'IMI1'
p4618
sS'IXR1'
p4619
S'YKL032C'
p4620
sS'POC4'
p4621
S'YPL144W'
p4622
sS'CSH1'
p4623
S'YBR161W'
p4624
sS'AI4'
p4625
S'Q0065'
p4626
sS'NAG1'
p4627
S'YGR031C-A'
p4628
sS'AI1'
p4629
S'Q0050'
p4630
sS'SUI1'
p4631
S'YNL244C'
p4632
sS'PCP1'
p4633
S'YGR101W'
p4634
sS'AI2'
p4635
S'Q0055'
p4636
sS'TSR1'
p4637
S'YDL060W'
p4638
sS'REC8'
p4639
S'YPR007C'
p4640
sS'CCT6'
p4641
S'YDR188W'
p4642
sS'PSR2'
p4643
S'YLR019W'
p4644
sS'COQ8'
p4645
S'YGL119W'
p4646
sS'PFK27'
p4647
S'YOL136C'
p4648
sS'AME1'
p4649
S'YBR211C'
p4650
sS'COQ4'
p4651
S'YDR204W'
p4652
sS'UTP30'
p4653
S'YKR060W'
p4654
sS'COQ6'
p4655
S'YGR255C'
p4656
sS'BRR2'
p4657
S'YER172C'
p4658
sS'COQ3'
p4659
S'YOL096C'
p4660
sS'SNU13'
p4661
S'YEL026W'
p4662
sS'RGA2'
p4663
S'YDR379W'
p4664
sS'EMT3'
p4665
S'tM(CAU)J2'
p4666
sS'ERV14'
p4667
S'YGL054C'
p4668
sS'EMT4'
p4669
S'tM(CAU)M'
p4670
sS'EMT5'
p4671
S'tM(CAU)J1'
p4672
sS'MHF2'
p4673
S'YDL160C-A'
p4674
sS'RLF2'
p4675
S'YPR018W'
p4676
sS'TSR4'
p4677
S'YOL022C'
p4678
sS'ATG13'
p4679
S'YPR185W'
p4680
sS'LUC7'
p4681
S'YDL087C'
p4682
sS'MLH1'
p4683
S'YMR167W'
p4684
sS'MDS3'
p4685
S'YGL197W'
p4686
sS'KAE1'
p4687
S'YKR038C'
p4688
sS'HRB1'
p4689
S'YNL004W'
p4690
sS'PHO23'
p4691
S'YNL097C'
p4692
sS'TOD6'
p4693
S'YBL054W'
p4694
sS'PFS1'
p4695
S'YHR185C'
p4696
sS'MUM2'
p4697
S'YBR057C'
p4698
sS'CPT1'
p4699
S'YNL130C'
p4700
sS'THI74'
p4701
S'YDR438W'
p4702
sS'PPT2'
p4703
S'YPL148C'
p4704
sS'SPO19'
p4705
S'YPL130W'
p4706
sS'DSC2'
p4707
S'YOL073C'
p4708
sS'DSC3'
p4709
S'YOR223W'
p4710
sS'EUG1'
p4711
S'YDR518W'
p4712
sS'THI72'
p4713
S'YOR192C'
p4714
sS'SPT20'
p4715
S'YOL148C'
p4716
sS'MGM1'
p4717
S'YOR211C'
p4718
sS'ELC1'
p4719
S'YPL046C'
p4720
sS'ARR1'
p4721
S'YPR199C'
p4722
sS'LIP1'
p4723
S'YMR298W'
p4724
sS'HAL9'
p4725
S'YOL089C'
p4726
sS'GOT1'
p4727
S'YMR292W'
p4728
sS'HOF1'
p4729
S'YMR032W'
p4730
sS'NTC20'
p4731
S'YBR188C'
p4732
sS'SAF1'
p4733
S'YBR280C'
p4734
sS'SFA1'
p4735
S'YDL168W'
p4736
sS'SOD2'
p4737
S'YHR008C'
p4738
sS'CAB4'
p4739
S'YGR277C'
p4740
sS'EMP24'
p4741
S'YGL200C'
p4742
sS'RCL1'
p4743
S'YOL010W'
p4744
sS'YKU80'
p4745
S'YMR106C'
p4746
sS'TIS11'
p4747
S'YLR136C'
p4748
sS'GDS1'
p4749
S'YOR355W'
p4750
sS'ASR1'
p4751
S'YPR093C'
p4752
sS'CDC6'
p4753
S'YJL194W'
p4754
sS'LSG1'
p4755
S'YGL099W'
p4756
sS'CRZ1'
p4757
S'YNL027W'
p4758
sS'SAH1'
p4759
S'YER043C'
p4760
sS'COX12'
p4761
S'YLR038C'
p4762
sS'PFA5'
p4763
S'YDR459C'
p4764
sS'PMS1'
p4765
S'YNL082W'
p4766
sS'RPL18B'
p4767
S'YNL301C'
p4768
sS'CWC15'
p4769
S'YDR163W'
p4770
sS'PRM10'
p4771
S'YJL108C'
p4772
sS'BCS1'
p4773
S'YDR375C'
p4774
sS'SEC39'
p4775
S'YLR440C'
p4776
sS'GIR2'
p4777
S'YDR152W'
p4778
sS'ALD6'
p4779
S'YPL061W'
p4780
sS'SUF4'
p4781
S'tG(UCC)G'
p4782
sS'MAL2'
p4783
S'MAL2'
p4784
sS'SNR3'
p4785
S'snR3'
p4786
sS'SQT1'
p4787
S'YIR012W'
p4788
sS'PET122'
p4789
S'YER153C'
p4790
sS'PET123'
p4791
S'YOR158W'
p4792
sS'RRG1'
p4793
S'YDR065W'
p4794
sS'MAC1'
p4795
S'YMR021C'
p4796
sS'TIM54'
p4797
S'YJL054W'
p4798
sS'CTR2'
p4799
S'YHR175W'
p4800
sS'CTR1'
p4801
S'YPR124W'
p4802
sS'RRG9'
p4803
S'YNL213C'
p4804
sS'AGP2'
p4805
S'YBR132C'
p4806
sS'OPY1'
p4807
S'YBR129C'
p4808
sS'NIT3'
p4809
S'YLR351C'
p4810
sS'NIT2'
p4811
S'YJL126W'
p4812
sS'NIT1'
p4813
S'YIL164C'
p4814
sS'ARH1'
p4815
S'YDR376W'
p4816
sS'BIL1'
p4817
S'YOR304C-A'
p4818
sS'FPS1'
p4819
S'YLL043W'
p4820
sS'SRL4'
p4821
S'YPL033C'
p4822
sS'FMN1'
p4823
S'YDR236C'
p4824
sS'INO80'
p4825
S'YGL150C'
p4826
sS'MSB3'
p4827
S'YNL293W'
p4828
sS'SNR9'
p4829
S'snR9'
p4830
sS'TRM44'
p4831
S'YPL030W'
p4832
sS'RDT1'
p4833
S'YCL054W-A'
p4834
sS'ATG34'
p4835
S'YOL083W'
p4836
sS'GPI8'
p4837
S'YDR331W'
p4838
sS'SSK2'
p4839
S'YNR031C'
p4840
sS'PGS1'
p4841
S'YCL004W'
p4842
sS'HSH49'
p4843
S'YOR319W'
p4844
sS'TAO3'
p4845
S'YIL129C'
p4846
sS'NMD5'
p4847
S'YJR132W'
p4848
sS'NMD4'
p4849
S'YLR363C'
p4850
sS'NMD3'
p4851
S'YHR170W'
p4852
sS'NMD2'
p4853
S'YHR077C'
p4854
sS'ATC1'
p4855
S'YDR184C'
p4856
sS'APL3'
p4857
S'YBL037W'
p4858
sS'APL2'
p4859
S'YKL135C'
p4860
sS'CTO1'
p4861
S'YCR015C'
p4862
sS'DIP2'
p4863
S'YLR129W'
p4864
sS'DIP5'
p4865
S'YPL265W'
p4866
sS'APL6'
p4867
S'YGR261C'
p4868
sS'APL5'
p4869
S'YPL195W'
p4870
sS'APL4'
p4871
S'YPR029C'
p4872
sS'PLM2'
p4873
S'YDR501W'
p4874
sS'UBC13'
p4875
S'YDR092W'
p4876
sS'UBC11'
p4877
S'YOR339C'
p4878
sS'NCP1'
p4879
S'YHR042W'
p4880
sS'CBP3'
p4881
S'YPL215W'
p4882
sS'PNS1'
p4883
S'YOR161C'
p4884
sS'SLZ1'
p4885
S'YNL196C'
p4886
sS'IRC20'
p4887
S'YLR247C'
p4888
sS'MIS1'
p4889
S'YBR084W'
p4890
sS'FAF1'
p4891
S'YIL019W'
p4892
sS'UNG1'
p4893
S'YML021C'
p4894
sS'MRPL44'
p4895
S'YMR225C'
p4896
sS'TAF12'
p4897
S'YDR145W'
p4898
sS'PGM1'
p4899
S'YKL127W'
p4900
sS'PGM2'
p4901
S'YMR105C'
p4902
sS'GSH2'
p4903
S'YOL049W'
p4904
sS'NKP2'
p4905
S'YLR315W'
p4906
sS'MPD2'
p4907
S'YOL088C'
p4908
sS'MPD1'
p4909
S'YOR288C'
p4910
sS'IMD3'
p4911
S'YLR432W'
p4912
sS'MFG1'
p4913
S'YDL233W'
p4914
sS'GET2'
p4915
S'YER083C'
p4916
sS'GET3'
p4917
S'YDL100C'
p4918
sS'GET4'
p4919
S'YOR164C'
p4920
sS'FSF1'
p4921
S'YOR271C'
p4922
sS'CLF1'
p4923
S'YLR117C'
p4924
sS'TMT1'
p4925
S'YER175C'
p4926
sS'FUI1'
p4927
S'YBL042C'
p4928
sS'RPL6B'
p4929
S'YLR448W'
p4930
sS'SNR58'
p4931
S'snR58'
p4932
sS'CDC28'
p4933
S'YBR160W'
p4934
sS'CDC27'
p4935
S'YBL084C'
p4936
sS'CDC26'
p4937
S'YFR036W'
p4938
sS'CDC25'
p4939
S'YLR310C'
p4940
sS'CDC24'
p4941
S'YAL041W'
p4942
sS'CDC23'
p4943
S'YHR166C'
p4944
sS'ROX3'
p4945
S'YBL093C'
p4946
sS'SMB1'
p4947
S'YER029C'
p4948
sS'LGE1'
p4949
S'YPL055C'
p4950
sS'ECI1'
p4951
S'YLR284C'
p4952
sS'BUR6'
p4953
S'YER159C'
p4954
sS'NUP157'
p4955
S'YER105C'
p4956
sS'TPD3'
p4957
S'YAL016W'
p4958
sS'NUP159'
p4959
S'YIL115C'
p4960
sS'RDH54'
p4961
S'YBR073W'
p4962
sS'BUD25'
p4963
S'YER014C-A'
p4964
sS'LEU3'
p4965
S'YLR451W'
p4966
sS'NAS2'
p4967
S'YIL007C'
p4968
sS'RSR1'
p4969
S'YGR152C'
p4970
sS'GLC7'
p4971
S'YER133W'
p4972
sS'MEL9'
p4973
S'MEL9'
p4974
sS'SML1'
p4975
S'YML058W'
p4976
sS'MSL5'
p4977
S'YLR116W'
p4978
sS'SRT1'
p4979
S'YMR101C'
p4980
sS'XYL2'
p4981
S'YLR070C'
p4982
sS'RPL42B'
p4983
S'YHR141C'
p4984
sS'RPL35A'
p4985
S'YDL191W'
p4986
sS'RPL35B'
p4987
S'YDL136W'
p4988
sS'RPL42A'
p4989
S'YNL162W'
p4990
sS'CLB3'
p4991
S'YDL155W'
p4992
sS'FRM2'
p4993
S'YCL026C-A'
p4994
sS'CLB1'
p4995
S'YGR108W'
p4996
sS'EPO1'
p4997
S'YMR124W'
p4998
sS'SME1'
p4999
S'YOR159C'
p5000
sS'CLB6'
p5001
S'YGR109C'
p5002
sS'CLB5'
p5003
S'YPR120C'
p5004
sS'CLB4'
p5005
S'YLR210W'
p5006
sS'STH1'
p5007
S'YIL126W'
p5008
sS'BSC4'
p5009
S'YNL269W'
p5010
sS'DCW1'
p5011
S'YKL046C'
p5012
sS'NAM9'
p5013
S'YNL137C'
p5014
sS'TRS23'
p5015
S'YDR246W'
p5016
sS'TRS20'
p5017
S'YBR254C'
p5018
sS'BSC5'
p5019
S'YNR069C'
p5020
sS'KRE1'
p5021
S'YNL322C'
p5022
sS'HEK2'
p5023
S'YBL032W'
p5024
sS'MET31'
p5025
S'YPL038W'
p5026
sS'KRE5'
p5027
S'YOR336W'
p5028
sS'KRE6'
p5029
S'YPR159W'
p5030
sS'KRE9'
p5031
S'YJL174W'
p5032
sS'TRR4'
p5033
S'tR(CCG)L'
p5034
sS'SSK1'
p5035
S'YLR006C'
p5036
sS'ARK1'
p5037
S'YNL020C'
p5038
sS'IDS2'
p5039
S'YJL146W'
p5040
sS'DIM1'
p5041
S'YPL266W'
p5042
sS'SEC65'
p5043
S'YML105C'
p5044
sS'RPL22A'
p5045
S'YLR061W'
p5046
sS'NIF3'
p5047
S'YGL221C'
p5048
sS'SHP1'
p5049
S'YBL058W'
p5050
sS'ARP10'
p5051
S'YDR106W'
p5052
sS'TEM1'
p5053
S'YML064C'
p5054
sS'DID2'
p5055
S'YKR035W-A'
p5056
sS'SNU114'
p5057
S'YKL173W'
p5058
sS'RBL2'
p5059
S'YOR265W'
p5060
sS'BMT6'
p5061
S'YLR063W'
p5062
sS'NUP84'
p5063
S'YDL116W'
p5064
sS'TIM23'
p5065
S'YNR017W'
p5066
sS'QRI1'
p5067
S'YDL103C'
p5068
sS'TEC1'
p5069
S'YBR083W'
p5070
sS'NBP2'
p5071
S'YDR162C'
p5072
sS'MCR1'
p5073
S'YKL150W'
p5074
sS'KTR6'
p5075
S'YPL053C'
p5076
sS'TGS1'
p5077
S'YPL157W'
p5078
sS'IRC18'
p5079
S'YJL037W'
p5080
sS'IMG2'
p5081
S'YCR071C'
p5082
sS'DML1'
p5083
S'YMR211W'
p5084
sS'RAD54'
p5085
S'YGL163C'
p5086
sS'PXA2'
p5087
S'YKL188C'
p5088
sS'COA6'
p5089
S'YMR244C-A'
p5090
sS'NDD1'
p5091
S'YOR372C'
p5092
sS'AIM24'
p5093
S'YJR080C'
p5094
sS'VPS33'
p5095
S'YLR396C'
p5096
sS'UBX2'
p5097
S'YML013W'
p5098
sS'VPS35'
p5099
S'YJL154C'
p5100
sS'SRO77'
p5101
S'YBL106C'
p5102
sS'HEM15'
p5103
S'YOR176W'
p5104
sS'AIM25'
p5105
S'YJR100C'
p5106
sS'MTF1'
p5107
S'YMR228W'
p5108
sS'BMT2'
p5109
S'YBR141C'
p5110
sS'SSE1'
p5111
S'YPL106C'
p5112
sS'MTF2'
p5113
S'YDL044C'
p5114
sS'LCB3'
p5115
S'YJL134W'
p5116
sS'BMT5'
p5117
S'YIL096C'
p5118
sS'UBX4'
p5119
S'YMR067C'
p5120
sS'MMR1'
p5121
S'YLR190W'
p5122
sS'LCB2'
p5123
S'YDR062W'
p5124
sS'FAA1'
p5125
S'YOR317W'
p5126
sS'FRE5'
p5127
S'YOR384W'
p5128
sS'EMG1'
p5129
S'YLR186W'
p5130
sS'CAB2'
p5131
S'YIL083C'
p5132
sS'MED6'
p5133
S'YHR058C'
p5134
sS'MAK11'
p5135
S'YKL021C'
p5136
sS'MAK10'
p5137
S'YEL053C'
p5138
sS'ADD66'
p5139
S'YKL206C'
p5140
sS'MAK16'
p5141
S'YAL025C'
p5142
sS'CHZ1'
p5143
S'YER030W'
p5144
sS'CAB5'
p5145
S'YDR196C'
p5146
sS'TAF14'
p5147
S'YPL129W'
p5148
sS'SNR46'
p5149
S'snR46'
p5150
sS'SNR71'
p5151
S'snR71'
p5152
sS'HPR1'
p5153
S'YDR138W'
p5154
sS'MRPS18'
p5155
S'YNL306W'
p5156
sS'MED4'
p5157
S'YOR174W'
p5158
sS'MTH1'
p5159
S'YDR277C'
p5160
sS'STE5'
p5161
S'YDR103W'
p5162
sS'SNO2'
p5163
S'YNL334C'
p5164
sS'SNO3'
p5165
S'YFL060C'
p5166
sS'SNR79'
p5167
S'snR79'
p5168
sS'SNO1'
p5169
S'YMR095C'
p5170
sS'THO1'
p5171
S'YER063W'
p5172
sS'SNO4'
p5173
S'YMR322C'
p5174
sS'THO2'
p5175
S'YNL139C'
p5176
sS'GRX3'
p5177
S'YDR098C'
p5178
sS'MRT4'
p5179
S'YKL009W'
p5180
sS'GRX1'
p5181
S'YCL035C'
p5182
sS'UIP4'
p5183
S'YPL186C'
p5184
sS'GRX7'
p5185
S'YBR014C'
p5186
sS'GRX6'
p5187
S'YDL010W'
p5188
sS'GRX5'
p5189
S'YPL059W'
p5190
sS'GRX4'
p5191
S'YER174C'
p5192
sS'CAT8'
p5193
S'YMR280C'
p5194
sS'SCS7'
p5195
S'YMR272C'
p5196
sS'PDC6'
p5197
S'YGR087C'
p5198
sS'TIF3'
p5199
S'YPR163C'
p5200
sS'ASH1'
p5201
S'YKL185W'
p5202
sS'RHO5'
p5203
S'YNL180C'
p5204
sS'SRF1'
p5205
S'YDL133W'
p5206
sS'TFB6'
p5207
S'YOR352W'
p5208
sS'SNR40'
p5209
S'snR40'
p5210
sS'AHP1'
p5211
S'YLR109W'
p5212
sS'RPS1B'
p5213
S'YML063W'
p5214
sS'MRP20'
p5215
S'YDR405W'
p5216
sS'MRP21'
p5217
S'YBL090W'
p5218
sS'YHC1'
p5219
S'YLR298C'
p5220
sS'SGF29'
p5221
S'YCL010C'
p5222
sS'ADE16'
p5223
S'YLR028C'
p5224
sS'ADE17'
p5225
S'YMR120C'
p5226
sS'HVG1'
p5227
S'YER039C'
p5228
sS'IRC8'
p5229
S'YJL051W'
p5230
sS'STF2'
p5231
S'YGR008C'
p5232
sS'YPP1'
p5233
S'YGR198W'
p5234
sS'IRC4'
p5235
S'YDR540C'
p5236
sS'YNK1'
p5237
S'YKL067W'
p5238
sS'IRC6'
p5239
S'YFR043C'
p5240
sS'IRC7'
p5241
S'YFR055W'
p5242
sS'FIR1'
p5243
S'YER032W'
p5244
sS'IRC3'
p5245
S'YDR332W'
p5246
sS'RAD26'
p5247
S'YJR035W'
p5248
sS'RAD27'
p5249
S'YKL113C'
p5250
sS'RAD24'
p5251
S'YER173W'
p5252
sS'ESF1'
p5253
S'YDR365C'
p5254
sS'POF1'
p5255
S'YCL047C'
p5256
sS'AUR1'
p5257
S'YKL004W'
p5258
sS'CYK3'
p5259
S'YDL117W'
p5260
sS'ATX2'
p5261
S'YOR079C'
p5262
sS'SRP72'
p5263
S'YPL210C'
p5264
sS'GIS2'
p5265
S'YNL255C'
p5266
sS'DGK1'
p5267
S'YOR311C'
p5268
sS'ACS1'
p5269
S'YAL054C'
p5270
sS'MUK1'
p5271
S'YPL070W'
p5272
sS'RAD28'
p5273
S'YDR030C'
p5274
sS'ACS2'
p5275
S'YLR153C'
p5276
sS'MNL1'
p5277
S'YHR204W'
p5278
sS'RTT101'
p5279
S'YJL047C'
p5280
sS'MNL2'
p5281
S'YLR057W'
p5282
sS'MEP2'
p5283
S'YNL142W'
p5284
sS'MEP3'
p5285
S'YPR138C'
p5286
sS'RSN1'
p5287
S'YMR266W'
p5288
sS'MEP1'
p5289
S'YGR121C'
p5290
sS'GEP3'
p5291
S'YOR205C'
p5292
sS'HTA2'
p5293
S'YBL003C'
p5294
sS'HTA1'
p5295
S'YDR225W'
p5296
sS'DFG10'
p5297
S'YIL049W'
p5298
sS'DFG16'
p5299
S'YOR030W'
p5300
sS'KCC4'
p5301
S'YCL024W'
p5302
sS'QCR10'
p5303
S'YHR001W-A'
p5304
sS'MHP1'
p5305
S'YJL042W'
p5306
sS'RIB4'
p5307
S'YOL143C'
p5308
sS'AGA2'
p5309
S'YGL032C'
p5310
sS'ATF1'
p5311
S'YOR377W'
p5312
sS'ELA1'
p5313
S'YNL230C'
p5314
sS'PAM1'
p5315
S'YDR251W'
p5316
sS'MVD1'
p5317
S'YNR043W'
p5318
sS'SEC2'
p5319
S'YNL272C'
p5320
sS'NDJ1'
p5321
S'YOL104C'
p5322
sS'MIP1'
p5323
S'YOR330C'
p5324
sS'URC2'
p5325
S'YDR520C'
p5326
sS'RTT106'
p5327
S'YNL206C'
p5328
sS'PCA1'
p5329
S'YBR295W'
p5330
sS'TAH11'
p5331
S'YJR046W'
p5332
sS'ZRG8'
p5333
S'YER033C'
p5334
sS'PAC2'
p5335
S'YER007W'
p5336
sS'ITR1'
p5337
S'YDR497C'
p5338
sS'FMP30'
p5339
S'YPL103C'
p5340
sS'FMP33'
p5341
S'YJL161W'
p5342
sS'FMP32'
p5343
S'YFL046W'
p5344
sS'MNR2'
p5345
S'YKL064W'
p5346
sS'JIP5'
p5347
S'YPR169W'
p5348
sS'JIP4'
p5349
S'YDR475C'
p5350
sS'STP22'
p5351
S'YCL008C'
p5352
sS'VPS8'
p5353
S'YAL002W'
p5354
sS'IFA38'
p5355
S'YBR159W'
p5356
sS'DCI1'
p5357
S'YOR180C'
p5358
sS'VPS3'
p5359
S'YDR495C'
p5360
sS'VPS1'
p5361
S'YKR001C'
p5362
sS'DED81'
p5363
S'YHR019C'
p5364
sS'DAL82'
p5365
S'YNL314W'
p5366
sS'DAL80'
p5367
S'YKR034W'
p5368
sS'DAL81'
p5369
S'YIR023W'
p5370
sS'CSI1'
p5371
S'YMR025W'
p5372
sS'SLI1'
p5373
S'YGR212W'
p5374
sS'CSI2'
p5375
S'YOL007C'
p5376
sS'REB1'
p5377
S'YBR049C'
p5378
sS'TSC11'
p5379
S'YER093C'
p5380
sS'SNF2'
p5381
S'YOR290C'
p5382
sS'TSC13'
p5383
S'YDL015C'
p5384
sS'RPF1'
p5385
S'YHR088W'
p5386
sS'RPF2'
p5387
S'YKR081C'
p5388
sS'YCF1'
p5389
S'YDR135C'
p5390
sS'SIP4'
p5391
S'YJL089W'
p5392
sS'SIP5'
p5393
S'YMR140W'
p5394
sS'TIF2'
p5395
S'YJL138C'
p5396
sS'FLX1'
p5397
S'YIL134W'
p5398
sS'SHB17'
p5399
S'YKR043C'
p5400
sS'SIP1'
p5401
S'YDR422C'
p5402
sS'SIP2'
p5403
S'YGL208W'
p5404
sS'SIP3'
p5405
S'YNL257C'
p5406
sS'ELG1'
p5407
S'YOR144C'
p5408
sS'SSY1'
p5409
S'YDR160W'
p5410
sS'SEC72'
p5411
S'YLR292C'
p5412
sS'RPT4'
p5413
S'YOR259C'
p5414
sS'MST28'
p5415
S'YAR033W'
p5416
sS'RPT2'
p5417
S'YDL007W'
p5418
sS'RPT3'
p5419
S'YDR394W'
p5420
sS'NAP1'
p5421
S'YKR048C'
p5422
sS'RPT1'
p5423
S'YKL145W'
p5424
sS'ATP3'
p5425
S'YBR039W'
p5426
sS'ATP2'
p5427
S'YJR121W'
p5428
sS'ATP1'
p5429
S'YBL099W'
p5430
sS'ATP7'
p5431
S'YKL016C'
p5432
sS'KIN28'
p5433
S'YDL108W'
p5434
sS'ATP5'
p5435
S'YDR298C'
p5436
sS'ATP4'
p5437
S'YPL078C'
p5438
sS'VPS20'
p5439
S'YMR077C'
p5440
sS'RET2'
p5441
S'YFR051C'
p5442
sS'RET1'
p5443
S'YOR207C'
p5444
sS'NGL1'
p5445
S'YOL042W'
p5446
sS'NGL3'
p5447
S'YML118W'
p5448
sS'NGL2'
p5449
S'YMR285C'
p5450
sS'GCD14'
p5451
S'YJL125C'
p5452
sS'NCA3'
p5453
S'YJL116C'
p5454
sS'DCS1'
p5455
S'YLR270W'
p5456
sS'PKH3'
p5457
S'YDR466W'
p5458
sS'GCD11'
p5459
S'YER025W'
p5460
sS'PKH1'
p5461
S'YDR490C'
p5462
sS'LST7'
p5463
S'YGR057C'
p5464
sS'LST4'
p5465
S'YKL176C'
p5466
sS'TTI2'
p5467
S'YJR136C'
p5468
sS'TTI1'
p5469
S'YKL033W'
p5470
sS'ERV41'
p5471
S'YML067C'
p5472
sS'YAT2'
p5473
S'YER024W'
p5474
sS'GCY1'
p5475
S'YOR120W'
p5476
sS'ATG17'
p5477
S'YLR423C'
p5478
sS'YAT1'
p5479
S'YAR035W'
p5480
sS'PMD1'
p5481
S'YER132C'
p5482
sS'PEP12'
p5483
S'YOR036W'
p5484
sS'TOG1'
p5485
S'YER184C'
p5486
sS'CTF13'
p5487
S'YMR094W'
p5488
sS'PHD1'
p5489
S'YKL043W'
p5490
sS'POP1'
p5491
S'YNL221C'
p5492
sS'POP7'
p5493
S'YBR167C'
p5494
sS'TIF1'
p5495
S'YKR059W'
p5496
sS'POP5'
p5497
S'YAL033W'
p5498
sS'POP4'
p5499
S'YBR257W'
p5500
sS'PRI1'
p5501
S'YIR008C'
p5502
sS'ESP1'
p5503
S'YGR098C'
p5504
sS'CTF19'
p5505
S'YPL018W'
p5506
sS'POP8'
p5507
S'YBL018C'
p5508
sS'CRS5'
p5509
S'YOR031W'
p5510
sS'YSF3'
p5511
S'YNL138W-A'
p5512
sS'PPG1'
p5513
S'YNR032W'
p5514
sS'HMLALPHA2'
p5515
S'YCL067C'
p5516
sS'TDH2'
p5517
S'YJR009C'
p5518
sS'DSL1'
p5519
S'YNL258C'
p5520
sS'HMLALPHA1'
p5521
S'YCL066W'
p5522
sS'HPM1'
p5523
S'YIL110W'
p5524
sS'RAS1'
p5525
S'YOR101W'
p5526
sS'ADF1'
p5527
S'YCL058W-A'
p5528
sS'CMR3'
p5529
S'YPR013C'
p5530
sS'HSP31'
p5531
S'YDR533C'
p5532
sS'HSP30'
p5533
S'YCR021C'
p5534
sS'HSP33'
p5535
S'YOR391C'
p5536
sS'HSP32'
p5537
S'YPL280W'
p5538
sS'HRQ1'
p5539
S'YDR291W'
p5540
sS'PFF1'
p5541
S'YBR074W'
p5542
sS'TPK3'
p5543
S'YKL166C'
p5544
sS'TPK2'
p5545
S'YPL203W'
p5546
sS'LPL1'
p5547
S'YOR059C'
p5548
sS'RIM4'
p5549
S'YHL024W'
p5550
sS'YOP1'
p5551
S'YPR028W'
p5552
sS'GIS3'
p5553
S'YLR094C'
p5554
sS'RPL7A'
p5555
S'YGL076C'
p5556
sS'GIS4'
p5557
S'YML006C'
p5558
sS'RIM2'
p5559
S'YBR192W'
p5560
sS'PBP1'
p5561
S'YGR178C'
p5562
sS'RIM8'
p5563
S'YGL045W'
p5564
sS'MST1'
p5565
S'YKL194C'
p5566
sS'COX16'
p5567
S'YJL003W'
p5568
sS'IRC19'
p5569
S'YLL033W'
p5570
sS'FHN1'
p5571
S'YGR131W'
p5572
sS'HSK3'
p5573
S'YKL138C-A'
p5574
sS'TIM21'
p5575
S'YGR033C'
p5576
sS'VMA4'
p5577
S'YOR332W'
p5578
sS'NSE4'
p5579
S'YDL105W'
p5580
sS'TIM22'
p5581
S'YDL217C'
p5582
sS'VTA1'
p5583
S'YLR181C'
p5584
sS'OYE2'
p5585
S'YHR179W'
p5586
sS'YMD8'
p5587
S'YML038C'
p5588
sS'YJU3'
p5589
S'YKL094W'
p5590
sS'ARO1'
p5591
S'YDR127W'
p5592
sS'ARO2'
p5593
S'YGL148W'
p5594
sS'ARO3'
p5595
S'YDR035W'
p5596
sS'ARO4'
p5597
S'YBR249C'
p5598
sS'ARO7'
p5599
S'YPR060C'
p5600
sS'ARO8'
p5601
S'YGL202W'
p5602
sS'ARO9'
p5603
S'YHR137W'
p5604
sS'BI3'
p5605
S'Q0115'
p5606
sS'RNA1'
p5607
S'YMR235C'
p5608
sS'HNM1'
p5609
S'YGL077C'
p5610
sS'SFC1'
p5611
S'YJR095W'
p5612
sS'BNA5'
p5613
S'YLR231C'
p5614
sS'TAN1'
p5615
S'YGL232W'
p5616
sS'VPS70'
p5617
S'YJR126C'
p5618
sS'SGF11'
p5619
S'YPL047W'
p5620
sS'SMX3'
p5621
S'YPR182W'
p5622
sS'AVO1'
p5623
S'YOL078W'
p5624
sS'AVO2'
p5625
S'YMR068W'
p5626
sS'SLY1'
p5627
S'YDR189W'
p5628
sS'BNA3'
p5629
S'YJL060W'
p5630
sS'CDC73'
p5631
S'YLR418C'
p5632
sS'RRP46'
p5633
S'YGR095C'
p5634
sS'SNZ1'
p5635
S'YMR096W'
p5636
sS'ZUO1'
p5637
S'YGR285C'
p5638
sS'HSP104'
p5639
S'YLL026W'
p5640
sS'TFB1'
p5641
S'YDR311W'
p5642
sS'TFB2'
p5643
S'YPL122C'
p5644
sS'TFB3'
p5645
S'YDR460W'
p5646
sS'TFB4'
p5647
S'YPR056W'
p5648
sS'TFB5'
p5649
S'YDR079C-A'
p5650
sS'USE1'
p5651
S'YGL098W'
p5652
sS'RPS19B'
p5653
S'YNL302C'
p5654
sS'EMC3'
p5655
S'YKL207W'
p5656
sS'EMC2'
p5657
S'YJR088C'
p5658
sS'EMC1'
p5659
S'YCL045C'
p5660
sS'NAB6'
p5661
S'YML117W'
p5662
sS'MIP6'
p5663
S'YHR015W'
p5664
sS'EMC6'
p5665
S'YLL014W'
p5666
sS'EMC5'
p5667
S'YIL027C'
p5668
sS'NAB2'
p5669
S'YGL122C'
p5670
sS'YPT31'
p5671
S'YER031C'
p5672
sS'PUT4'
p5673
S'YOR348C'
p5674
sS'YPT32'
p5675
S'YGL210W'
p5676
sS'YPT35'
p5677
S'YHR105W'
p5678
sS'BOP3'
p5679
S'YNL042W'
p5680
sS'PUT3'
p5681
S'YKL015W'
p5682
sS'PUT2'
p5683
S'YHR037W'
p5684
sS'BOP2'
p5685
S'YLR267W'
p5686
sS'CDC60'
p5687
S'YPL160W'
p5688
sS'MATA'
p5689
S'MATA'
p5690
sS'GYP5'
p5691
S'YPL249C'
p5692
sS'ITS1-2'
p5693
S'ITS1-2'
p5694
sS'MIF2'
p5695
S'YKL089W'
p5696
sS'ITS1-1'
p5697
S'ITS1-1'
p5698
sS'GYP6'
p5699
S'YJL044C'
p5700
sS'PSF3'
p5701
S'YOL146W'
p5702
sS'QNS1'
p5703
S'YHR074W'
p5704
sS'GON7'
p5705
S'YJL184W'
p5706
sS'PIH1'
p5707
S'YHR034C'
p5708
sS'TSC3'
p5709
S'YBR058C-A'
p5710
sS'JLP2'
p5711
S'YMR132C'
p5712
sS'CDC39'
p5713
S'YCR093W'
p5714
sS'SPI1'
p5715
S'YER150W'
p5716
sS'ISF1'
p5717
S'YMR081C'
p5718
sS'DYS1'
p5719
S'YHR068W'
p5720
sS'SMC1'
p5721
S'YFL008W'
p5722
sS'CDC31'
p5723
S'YOR257W'
p5724
sS'HIP1'
p5725
S'YGR191W'
p5726
sS'SMC2'
p5727
S'YFR031C'
p5728
sS'CDC34'
p5729
S'YDR054C'
p5730
sS'RAD5'
p5731
S'YLR032W'
p5732
sS'CDC36'
p5733
S'YDL165W'
p5734
sS'CDC37'
p5735
S'YDR168W'
p5736
sS'XDH1'
p5737
S'XDH1'
p5738
sS'MHF1'
p5739
S'YOL086W-A'
p5740
sS'RCK1'
p5741
S'YGL158W'
p5742
sS'ADP1'
p5743
S'YCR011C'
p5744
sS'LNP1'
p5745
S'YHR192W'
p5746
sS'SDP1'
p5747
S'YIL113W'
p5748
sS'DCV1'
p5749
S'YFR012W'
p5750
sS'SMM1'
p5751
S'YNR015W'
p5752
sS'ROM1'
p5753
S'YGR070W'
p5754
sS'DDR48'
p5755
S'YMR173W'
p5756
sS'FYV10'
p5757
S'YIL097W'
p5758
sS'BIG1'
p5759
S'YHR101C'
p5760
sS'TYE7'
p5761
S'YOR344C'
p5762
sS'KGD2'
p5763
S'YDR148C'
p5764
sS'PDR8'
p5765
S'YLR266C'
p5766
sS'KGD1'
p5767
S'YIL125W'
p5768
sS'SUF9'
p5769
S'tP(UGG)F'
p5770
sS'ALG11'
p5771
S'YNL048W'
p5772
sS'CLA4'
p5773
S'YNL298W'
p5774
sS'ALG13'
p5775
S'YGL047W'
p5776
sS'ALG14'
p5777
S'YBR070C'
p5778
sS'PDR3'
p5779
S'YBL005W'
p5780
sS'PDR1'
p5781
S'YGL013C'
p5782
sS'RPO21'
p5783
S'YDL140C'
p5784
sS'LTV1'
p5785
S'YKL143W'
p5786
sS'ALY1'
p5787
S'YKR021W'
p5788
sS'ALY2'
p5789
S'YJL084C'
p5790
sS'OXR1'
p5791
S'YPL196W'
p5792
sS'RRN10'
p5793
S'YBL025W'
p5794
sS'RRN11'
p5795
S'YML043C'
p5796
sS'SNG1'
p5797
S'YGR197C'
p5798
sS'YAE1'
p5799
S'YJR067C'
p5800
sS'ETP1'
p5801
S'YHL010C'
p5802
sS'COA4'
p5803
S'YLR218C'
p5804
sS'RPN12'
p5805
S'YFR052W'
p5806
sS'TMA10'
p5807
S'YLR327C'
p5808
sS'RPN10'
p5809
S'YHR200W'
p5810
sS'RPN11'
p5811
S'YFR004W'
p5812
sS'RPN14'
p5813
S'YGL004C'
p5814
sS'ALK2'
p5815
S'YBL009W'
p5816
sS'RPL23B'
p5817
S'YER117W'
p5818
sS'RPL23A'
p5819
S'YBL087C'
p5820
sS'ALK1'
p5821
S'YGL021W'
p5822
sS'CCW12'
p5823
S'YLR110C'
p5824
sS'TRM732'
p5825
S'YMR259C'
p5826
sS'RNA170'
p5827
S'RNA170'
p5828
sS'CCW14'
p5829
S'YLR390W-A'
p5830
sS'REC114'
p5831
S'YMR133W'
p5832
sS'DAD4'
p5833
S'YDR320C-A'
p5834
sS'NDE1'
p5835
S'YMR145C'
p5836
sS'IRC22'
p5837
S'YEL001C'
p5838
sS'MAK5'
p5839
S'YBR142W'
p5840
sS'NDE2'
p5841
S'YDL085W'
p5842
sS'MAK3'
p5843
S'YPR051W'
p5844
sS'DOC1'
p5845
S'YGL240W'
p5846
sS'IRC25'
p5847
S'YLR021W'
p5848
sS'IRC24'
p5849
S'YIR036C'
p5850
sS'COX26'
p5851
S'YDR119W-A'
p5852
sS'COX18'
p5853
S'YGR062C'
p5854
sS'SIM1'
p5855
S'YIL123W'
p5856
sS'RPH1'
p5857
S'YER169W'
p5858
sS'VPS27'
p5859
S'YNR006W'
p5860
sS'VPS24'
p5861
S'YKL041W'
p5862
sS'VPS25'
p5863
S'YJR102C'
p5864
sS'AKR2'
p5865
S'YOR034C'
p5866
sS'VPS28'
p5867
S'YPL065W'
p5868
sS'VPS29'
p5869
S'YHR012W'
p5870
sS'MDM20'
p5871
S'YOL076W'
p5872
sS'MMS2'
p5873
S'YGL087C'
p5874
sS'PUB1'
p5875
S'YNL016W'
p5876
sS'TPS2'
p5877
S'YDR074W'
p5878
sS'MMS4'
p5879
S'YBR098W'
p5880
sS'OGG1'
p5881
S'YML060W'
p5882
sS'FKS1'
p5883
S'YLR342W'
p5884
sS'YHP1'
p5885
S'YDR451C'
p5886
sS'ASK10'
p5887
S'YGR097W'
p5888
sS'SED4'
p5889
S'YCR067C'
p5890
sS'RTA1'
p5891
S'YGR213C'
p5892
sS'ALD4'
p5893
S'YOR374W'
p5894
sS'SNR68'
p5895
S'snR68'
p5896
sS'SNR69'
p5897
S'snR69'
p5898
sS'SED5'
p5899
S'YLR026C'
p5900
sS'FCY2'
p5901
S'YER056C'
p5902
sS'RPL34B'
p5903
S'YIL052C'
p5904
sS'RPL34A'
p5905
S'YER056C-A'
p5906
sS'ILV6'
p5907
S'YCL009C'
p5908
sS'ILV1'
p5909
S'YER086W'
p5910
sS'AXL1'
p5911
S'YPR122W'
p5912
sS'CFD1'
p5913
S'YIL003W'
p5914
sS'RPL43B'
p5915
S'YJR094W-A'
p5916
sS'CHO1'
p5917
S'YER026C'
p5918
sS'CHO2'
p5919
S'YGR157W'
p5920
sS'MRS3'
p5921
S'YJL133W'
p5922
sS'MRS4'
p5923
S'YKR052C'
p5924
sS'MRS6'
p5925
S'YOR370C'
p5926
sS'YSP3'
p5927
S'YOR003W'
p5928
sS'HXT7'
p5929
S'YDR342C'
p5930
sS'ASI3'
p5931
S'YNL008C'
p5932
sS'NRP1'
p5933
S'YDL167C'
p5934
sS'ASI1'
p5935
S'YMR119W'
p5936
sS'SED1'
p5937
S'YDR077W'
p5938
sS'OAC1'
p5939
S'YKL120W'
p5940
sS'HAP4'
p5941
S'YKL109W'
p5942
sS'PBP4'
p5943
S'YDL053C'
p5944
sS'GAS2'
p5945
S'YLR343W'
p5946
sS'PBP2'
p5947
S'YBR233W'
p5948
sS'SEN34'
p5949
S'YAR008W'
p5950
sS'HAP3'
p5951
S'YBL021C'
p5952
sS'HAP2'
p5953
S'YGL237C'
p5954
sS'CWP2'
p5955
S'YKL096W-A'
p5956
sS'GAS5'
p5957
S'YOL030W'
p5958
sS'CWP1'
p5959
S'YKL096W'
p5960
sS'DAT1'
p5961
S'YML113W'
p5962
sS'PET130'
p5963
S'YJL023C'
p5964
sS'ERR3'
p5965
S'YMR323W'
p5966
sS'GAS4'
p5967
S'YOL132W'
p5968
sS'STE2'
p5969
S'YFL026W'
p5970
sS'STE3'
p5971
S'YKL178C'
p5972
sS'PRP45'
p5973
S'YAL032C'
p5974
sS'YPS1'
p5975
S'YLR120C'
p5976
sS'YPS6'
p5977
S'YIR039C'
p5978
sS'SAS10'
p5979
S'YDL153C'
p5980
sS'STE4'
p5981
S'YOR212W'
p5982
sS'PRP40'
p5983
S'YKL012W'
p5984
sS'NOP10'
p5985
S'YHR072W-A'
p5986
sS'ARP9'
p5987
S'YMR033W'
p5988
sS'DPS1'
p5989
S'YLL018C'
p5990
sS'EMP70'
p5991
S'YLR083C'
p5992
sS'VAM6'
p5993
S'YDL077C'
p5994
sS'VAM7'
p5995
S'YGL212W'
p5996
sS'NNK1'
p5997
S'YKL171W'
p5998
sS'POA1'
p5999
S'YBR022W'
p6000
sS'PEX11'
p6001
S'YOL147C'
p6002
sS'RAD10'
p6003
S'YML095C'
p6004
sS'HTB2'
p6005
S'YBL002W'
p6006
sS'RAD16'
p6007
S'YBR114W'
p6008
sS'AUS1'
p6009
S'YOR011W'
p6010
sS'HTB1'
p6011
S'YDR224C'
p6012
sS'ACT1'
p6013
S'YFL039C'
p6014
sS'RAD18'
p6015
S'YCR066W'
p6016
sS'HST2'
p6017
S'YPL015C'
p6018
sS'PRX1'
p6019
S'YBL064C'
p6020
sS'PML1'
p6021
S'YLR016C'
p6022
sS'KEL1'
p6023
S'YHR158C'
p6024
sS'KEL2'
p6025
S'YGR238C'
p6026
sS'KEL3'
p6027
S'YPL263C'
p6028
sS'OXP1'
p6029
S'YKL215C'
p6030
sS'AAH1'
p6031
S'YNL141W'
p6032
sS'PEX10'
p6033
S'YDR265W'
p6034
sS'COX5A'
p6035
S'YNL052W'
p6036
sS'SEF1'
p6037
S'YBL066C'
p6038
sS'NME1'
p6039
S'NME1'
p6040
sS'PAL1'
p6041
S'YDR348C'
p6042
sS'SVP26'
p6043
S'YHR181W'
p6044
sS'CBT1'
p6045
S'YKL208W'
p6046
sS'SEN15'
p6047
S'YMR059W'
p6048
sS'HEF3'
p6049
S'YNL014W'
p6050
sS'AEP2'
p6051
S'YMR282C'
p6052
sS'AEP3'
p6053
S'YPL005W'
p6054
sS'LRO1'
p6055
S'YNR008W'
p6056
sS'DMA1'
p6057
S'YHR115C'
p6058
sS'SNN1'
p6059
S'YNL086W'
p6060
sS'RUF21'
p6061
S'RUF21'
p6062
sS'CDH1'
p6063
S'YGL003C'
p6064
sS'URB2'
p6065
S'YJR041C'
p6066
sS'URB1'
p6067
S'YKL014C'
p6068
sS'SXM1'
p6069
S'YDR395W'
p6070
sS'CBF1'
p6071
S'YJR060W'
p6072
sS'VID22'
p6073
S'YLR373C'
p6074
sS'MPO1'
p6075
S'YGL010W'
p6076
sS'RPS22A'
p6077
S'YJL190C'
p6078
sS'PAB1'
p6079
S'YER165W'
p6080
sS'HSP60'
p6081
S'YLR259C'
p6082
sS'RIB1'
p6083
S'YBL033C'
p6084
sS'FMP23'
p6085
S'YBR047W'
p6086
sS'RIB3'
p6087
S'YDR487C'
p6088
sS'SKN1'
p6089
S'YGR143W'
p6090
sS'RIB5'
p6091
S'YBR256C'
p6092
sS'OPI3'
p6093
S'YJR073C'
p6094
sS'RIB7'
p6095
S'YBR153W'
p6096
sS'LAG1'
p6097
S'YHL003C'
p6098
sS'THI11'
p6099
S'YJR156C'
p6100
sS'SUI2'
p6101
S'YJR007W'
p6102
sS'SSH4'
p6103
S'YKL124W'
p6104
sS'FUN30'
p6105
S'YAL019W'
p6106
sS'ATH1'
p6107
S'YPR026W'
p6108
sS'LDB7'
p6109
S'YBL006C'
p6110
sS'SSH1'
p6111
S'YBR283C'
p6112
sS'SWM1'
p6113
S'YDR260C'
p6114
sS'REE1'
p6115
S'YJL217W'
p6116
sS'SWM2'
p6117
S'YNR004W'
p6118
sS'GPI2'
p6119
S'YPL076W'
p6120
sS'BRL1'
p6121
S'YHR036W'
p6122
sS'GPI1'
p6123
S'YGR216C'
p6124
sS'YCG1'
p6125
S'YDR325W'
p6126
sS'SLI15'
p6127
S'YBR156C'
p6128
sS'RPG1'
p6129
S'YBR079C'
p6130
sS'CSF1'
p6131
S'YLR087C'
p6132
sS'LIN1'
p6133
S'YHR156C'
p6134
sS'RCN1'
p6135
S'YKL159C'
p6136
sS'SMT3'
p6137
S'YDR510W'
p6138
sS'RUF23'
p6139
S'RUF23'
p6140
sS'MRPL40'
p6141
S'YPL173W'
p6142
sS'NET1'
p6143
S'YJL076W'
p6144
sS'PAC10'
p6145
S'YGR078C'
p6146
sS'PAC11'
p6147
S'YDR488C'
p6148
sS'MRPL49'
p6149
S'YJL096W'
p6150
sS'FAL1'
p6151
S'YDR021W'
p6152
sS'BOI2'
p6153
S'YER114C'
p6154
sS'BOI1'
p6155
S'YBL085W'
p6156
sS'NAS6'
p6157
S'YGR232W'
p6158
sS'NBP1'
p6159
S'YLR457C'
p6160
sS'RNT1'
p6161
S'YMR239C'
p6162
sS'ATG36'
p6163
S'YJL185C'
p6164
sS'SEC66'
p6165
S'YBR171W'
p6166
sS'SEC61'
p6167
S'YLR378C'
p6168
sS'SEC62'
p6169
S'YPL094C'
p6170
sS'SEC63'
p6171
S'YOR254C'
p6172
sS'BRR6'
p6173
S'YGL247W'
p6174
sS'ATG33'
p6175
S'YLR356W'
p6176
sS'NSP1'
p6177
S'YJL041W'
p6178
sS'AOS1'
p6179
S'YPR180W'
p6180
sS'GOR1'
p6181
S'YNL274C'
p6182
sS'ACF4'
p6183
S'YJR083C'
p6184
sS'ACF2'
p6185
S'YLR144C'
p6186
sS'TOF1'
p6187
S'YNL273W'
p6188
sS'PMC1'
p6189
S'YGL006W'
p6190
sS'TOF2'
p6191
S'YKR010C'
p6192
sS'DXO1'
p6193
S'YDR370C'
p6194
sS'EXG1'
p6195
S'YLR300W'
p6196
sS'PDR18'
p6197
S'YNR070W'
p6198
sS'ENB1'
p6199
S'YOL158C'
p6200
sS'RPP2A'
p6201
S'YOL039W'
p6202
sS'TIF6'
p6203
S'YPR016C'
p6204
sS'TIF5'
p6205
S'YPR041W'
p6206
sS'RPP2B'
p6207
S'YDR382W'
p6208
sS'AUA1'
p6209
S'YFL010W-A'
p6210
sS'FMP46'
p6211
S'YKR049C'
p6212
sS'TRR2'
p6213
S'YHR106W'
p6214
sS'RML2'
p6215
S'YEL050C'
p6216
sS'SGT2'
p6217
S'YOR007C'
p6218
sS'BUB1'
p6219
S'YGR188C'
p6220
sS'TPT1'
p6221
S'YOL102C'
p6222
sS'ZWF1'
p6223
S'YNL241C'
p6224
sS'BUB2'
p6225
S'YMR055C'
p6226
sS'GAT4'
p6227
S'YIR013C'
p6228
sS'FMP40'
p6229
S'YPL222W'
p6230
sS'ADA2'
p6231
S'YDR448W'
p6232
sS'MCP2'
p6233
S'YLR253W'
p6234
sS'GAT1'
p6235
S'YFL021W'
p6236
sS'GAT2'
p6237
S'YMR136W'
p6238
sS'PPH3'
p6239
S'YDR075W'
p6240
sS'HSP26'
p6241
S'YBR072W'
p6242
sS'PRE10'
p6243
S'YOR362C'
p6244
sS'PRD1'
p6245
S'YCL057W'
p6246
sS'GSY1'
p6247
S'YFR015C'
p6248
sS'MGA2'
p6249
S'YIR033W'
p6250
sS'MGA1'
p6251
S'YGR249W'
p6252
sS'GSY2'
p6253
S'YLR258W'
p6254
sS'PRO2'
p6255
S'YOR323C'
p6256
sS'THI22'
p6257
S'YPR121W'
p6258
sS'CTT1'
p6259
S'YGR088W'
p6260
sS'CTP1'
p6261
S'YBR291C'
p6262
sS'SCY1'
p6263
S'YGL083W'
p6264
sS'BET5'
p6265
S'YML077W'
p6266
sS'ICY1'
p6267
S'YMR195W'
p6268
sS'MCM6'
p6269
S'YGL201C'
p6270
sS'SSN3'
p6271
S'YPL042C'
p6272
sS'BET4'
p6273
S'YJL031C'
p6274
sS'SIA1'
p6275
S'YOR137C'
p6276
sS'CAF40'
p6277
S'YNL288W'
p6278
sS'HUL5'
p6279
S'YGL141W'
p6280
sS'HUL4'
p6281
S'YJR036C'
p6282
sS'MHO1'
p6283
S'YJR008W'
p6284
sS'PXL1'
p6285
S'YKR090W'
p6286
sS'FDH2'
p6287
S'YPL275W'
p6288
sS'ATS1'
p6289
S'YAL020C'
p6290
sS'SNR60'
p6291
S'snR60'
p6292
sS'PAP1'
p6293
S'YKR002W'
p6294
sS'ERO1'
p6295
S'YML130C'
p6296
sS'PAP2'
p6297
S'YOL115W'
p6298
sS'ARN2'
p6299
S'YHL047C'
p6300
sS'ARN1'
p6301
S'YHL040C'
p6302
sS'RPS31'
p6303
S'YLR167W'
p6304
sS'RPL16B'
p6305
S'YNL069C'
p6306
sS'LTE1'
p6307
S'YAL024C'
p6308
sS'RPL16A'
p6309
S'YIL133C'
p6310
sS'LAG2'
p6311
S'YOL025W'
p6312
sS'APN1'
p6313
S'YKL114C'
p6314
sS'APN2'
p6315
S'YBL019W'
p6316
sS'SSO1'
p6317
S'YPL232W'
p6318
sS'TPM1'
p6319
S'YNL079C'
p6320
sS'DPM1'
p6321
S'YPR183W'
p6322
sS'RTC3'
p6323
S'YHR087W'
p6324
sS'RTC2'
p6325
S'YBR147W'
p6326
sS'RTC1'
p6327
S'YOL138C'
p6328
sS'RTC6'
p6329
S'YPL183W-A'
p6330
sS'RTC5'
p6331
S'YOR118W'
p6332
sS'RTC4'
p6333
S'YNL254C'
p6334
sS'SLX1'
p6335
S'YBR228W'
p6336
sS'MPT5'
p6337
S'YGL178W'
p6338
sS'ELP4'
p6339
S'YPL101W'
p6340
sS'SLX5'
p6341
S'YDL013W'
p6342
sS'SLX4'
p6343
S'YLR135W'
p6344
sS'SPS18'
p6345
S'YNL204C'
p6346
sS'SPS19'
p6347
S'YNL202W'
p6348
sS'SLX9'
p6349
S'YGR081C'
p6350
sS'SLX8'
p6351
S'YER116C'
p6352
sS'ATM1'
p6353
S'YMR301C'
p6354
sS'TDA6'
p6355
S'YPR157W'
p6356
sS'TFC3'
p6357
S'YAL001C'
p6358
sS'TFC1'
p6359
S'YBR123C'
p6360
sS'TFC7'
p6361
S'YOR110W'
p6362
sS'TFC6'
p6363
S'YDR362C'
p6364
sS'RAF1'
p6365
S'R0030W'
p6366
sS'TFC4'
p6367
S'YGR047C'
p6368
sS'SCS22'
p6369
S'YBL091C-A'
p6370
sS'SNR128'
p6371
S'snR128'
p6372
sS'TFC8'
p6373
S'YPL007C'
p6374
sS'MDG1'
p6375
S'YNL173C'
p6376
sS'MRPL1'
p6377
S'YDR116C'
p6378
sS'ELP3'
p6379
S'YPL086C'
p6380
sS'PUS2'
p6381
S'YGL063W'
p6382
sS'AIM9'
p6383
S'YER080W'
p6384
sS'PET10'
p6385
S'YKR046C'
p6386
sS'PUS6'
p6387
S'YGR169C'
p6388
sS'PUS7'
p6389
S'YOR243C'
p6390
sS'AIM4'
p6391
S'YBR194W'
p6392
sS'AIM7'
p6393
S'YDR063W'
p6394
sS'AIM6'
p6395
S'YDL237W'
p6396
sS'AIM1'
p6397
S'YAL046C'
p6398
sS'PET18'
p6399
S'YCR020C'
p6400
sS'AIM3'
p6401
S'YBR108W'
p6402
sS'AIM2'
p6403
S'YAL049C'
p6404
sS'MIG3'
p6405
S'YER028C'
p6406
sS'GCN1'
p6407
S'YGL195W'
p6408
sS'GCN2'
p6409
S'YDR283C'
p6410
sS'GCN3'
p6411
S'YKR026C'
p6412
sS'GCN4'
p6413
S'YEL009C'
p6414
sS'GCN5'
p6415
S'YGR252W'
p6416
sS'SDA1'
p6417
S'YGR245C'
p6418
sS'MSA1'
p6419
S'YOR066W'
p6420
sS'NHX1'
p6421
S'YDR456W'
p6422
sS'BIT2'
p6423
S'YBR270C'
p6424
sS'RUF22'
p6425
S'RUF22'
p6426
sS'HTS1'
p6427
S'YPR033C'
p6428
sS'PDA1'
p6429
S'YER178W'
p6430
sS'LOA1'
p6431
S'YPR139C'
p6432
sS'FOL1'
p6433
S'YNL256W'
p6434
sS'SFM1'
p6435
S'YOR021C'
p6436
sS'FOL3'
p6437
S'YMR113W'
p6438
sS'RAD6'
p6439
S'YGL058W'
p6440
sS'PET127'
p6441
S'YOR017W'
p6442
sS'SPH1'
p6443
S'YLR313C'
p6444
sS'RPL4B'
p6445
S'YDR012W'
p6446
sS'RPL4A'
p6447
S'YBR031W'
p6448
sS'OCT1'
p6449
S'YKL134C'
p6450
sS'CNB1'
p6451
S'YKL190W'
p6452
sS'RAD4'
p6453
S'YER162C'
p6454
sS'MIM1'
p6455
S'YOL026C'
p6456
sS'MGT1'
p6457
S'YDL200C'
p6458
sS'RPC17'
p6459
S'YJL011C'
p6460
sS'CLB2'
p6461
S'YPR119W'
p6462
sS'CYC7'
p6463
S'YEL039C'
p6464
sS'STA1'
p6465
S'STA1'
p6466
sS'IZH4'
p6467
S'YOL101C'
p6468
sS'STV1'
p6469
S'YMR054W'
p6470
sS'LEE1'
p6471
S'YPL054W'
p6472
sS'RPL40A'
p6473
S'YIL148W'
p6474
sS'RPL40B'
p6475
S'YKR094C'
p6476
sS'RSP5'
p6477
S'YER125W'
p6478
sS'RPS4B'
p6479
S'YHR203C'
p6480
sS'RPA12'
p6481
S'YJR063W'
p6482
sS'QDR1'
p6483
S'YIL120W'
p6484
sS'ADE5,7'
p6485
S'YGL234W'
p6486
sS'QDR3'
p6487
S'YBR043C'
p6488
sS'QDR2'
p6489
S'YIL121W'
p6490
sS'SVF1'
p6491
S'YDR346C'
p6492
sS'PRS5'
p6493
S'YOL061W'
p6494
sS'RMP1'
p6495
S'YLR145W'
p6496
sS'TAF4'
p6497
S'YMR005W'
p6498
sS'PDS1'
p6499
S'YDR113C'
p6500
sS'PUS4'
p6501
S'YNL292W'
p6502
sS'CYC2'
p6503
S'YOR037W'
p6504
sS'PDS5'
p6505
S'YMR076C'
p6506
sS'TES1'
p6507
S'YJR019C'
p6508
sS'COX1'
p6509
S'Q0045'
p6510
sS'ULI1'
p6511
S'YFR026C'
p6512
sS'TLG1'
p6513
S'YDR468C'
p6514
sS'NOP58'
p6515
S'YOR310C'
p6516
sS'PEX27'
p6517
S'YOR193W'
p6518
sS'YIA6'
p6519
S'YIL006W'
p6520
sS'YGK3'
p6521
S'YOL128C'
p6522
sS'NTO1'
p6523
S'YPR031W'
p6524
sS'NOP56'
p6525
S'YLR197W'
p6526
sS'NOP53'
p6527
S'YPL146C'
p6528
sS'CHL4'
p6529
S'YDR254W'
p6530
sS'TRR1'
p6531
S'YDR353W'
p6532
sS'TLG2'
p6533
S'YOL018C'
p6534
sS'YHB1'
p6535
S'YGR234W'
p6536
sS'MRP7'
p6537
S'YNL005C'
p6538
sS'GDE1'
p6539
S'YPL110C'
p6540
sS'PUS9'
p6541
S'YDL036C'
p6542
sS'COQ9'
p6543
S'YLR201C'
p6544
sS'DOP1'
p6545
S'YDR141C'
p6546
sS'VAN1'
p6547
S'YML115C'
p6548
sS'SGA1'
p6549
S'YIL099W'
p6550
sS'TCM62'
p6551
S'YBR044C'
p6552
sS'SNR83'
p6553
S'snR83'
p6554
sS'TEA1'
p6555
S'YOR337W'
p6556
sS'ECL1'
p6557
S'YGR146C'
p6558
sS'PTC1'
p6559
S'YDL006W'
p6560
sS'REC102'
p6561
S'YLR329W'
p6562
sS'RCN2'
p6563
S'YOR220W'
p6564
sS'REC104'
p6565
S'YHR157W'
p6566
sS'REC107'
p6567
S'YJR021C'
p6568
sS'TUM1'
p6569
S'YOR251C'
p6570
sS'UPC2'
p6571
S'YDR213W'
p6572
sS'PTC3'
p6573
S'YBL056W'
p6574
sS'SNR87'
p6575
S'snR87'
p6576
sS'CAD1'
p6577
S'YDR423C'
p6578
sS'GRH1'
p6579
S'YDR517W'
p6580
sS'PTC2'
p6581
S'YER089C'
p6582
sS'MRD1'
p6583
S'YPR112C'
p6584
sS'MIG2'
p6585
S'YGL209W'
p6586
sS'VPS17'
p6587
S'YOR132W'
p6588
sS'COQ1'
p6589
S'YBR003W'
p6590
sS'VPS15'
p6591
S'YBR097W'
p6592
sS'SNR85'
p6593
S'snR85'
p6594
sS'VPS13'
p6595
S'YLL040C'
p6596
sS'MIG1'
p6597
S'YGL035C'
p6598
sS'PTC4'
p6599
S'YBR125C'
p6600
sS'SRV2'
p6601
S'YNL138W'
p6602
sS'YSP2'
p6603
S'YDR326C'
p6604
sS'TSL1'
p6605
S'YML100W'
p6606
sS'OAR1'
p6607
S'YKL055C'
p6608
sS'SUP16'
p6609
S'tS(UGA)P'
p6610
sS'TAM41'
p6611
S'YGR046W'
p6612
sS'SKN7'
p6613
S'YHR206W'
p6614
sS'SNP1'
p6615
S'YIL061C'
p6616
sS'MMP1'
p6617
S'YLL061W'
p6618
sS'SNR19'
p6619
S'snR19'
p6620
sS'RPS21A'
p6621
S'YKR057W'
p6622
sS'FET5'
p6623
S'YFL041W'
p6624
sS'CUE4'
p6625
S'YML101C'
p6626
sS'CUE3'
p6627
S'YGL110C'
p6628
sS'CUE2'
p6629
S'YKL090W'
p6630
sS'CUE1'
p6631
S'YMR264W'
p6632
sS'JLP1'
p6633
S'YLL057C'
p6634
sS'THI3'
p6635
S'YDL080C'
p6636
sS'THI2'
p6637
S'YBR240C'
p6638
sS'SNR13'
p6639
S'snR13'
p6640
sS'PNP1'
p6641
S'YLR209C'
p6642
sS'THI7'
p6643
S'YLR237W'
p6644
sS'BMH2'
p6645
S'YDR099W'
p6646
sS'BMH1'
p6647
S'YER177W'
p6648
sS'THI4'
p6649
S'YGR144W'
p6650
sS'RPC34'
p6651
S'YNR003C'
p6652
sS'RPC37'
p6653
S'YKR025W'
p6654
sS'RGA1'
p6655
S'YOR127W'
p6656
sS'RPC31'
p6657
S'YNL151C'
p6658
sS'CCT4'
p6659
S'YDL143W'
p6660
sS'POM34'
p6661
S'YLR018C'
p6662
sS'NUG1'
p6663
S'YER006W'
p6664
sS'YNG1'
p6665
S'YOR064C'
p6666
sS'POM33'
p6667
S'YLL023C'
p6668
sS'TCO89'
p6669
S'YPL180W'
p6670
sS'ELP6'
p6671
S'YMR312W'
p6672
sS'CAF20'
p6673
S'YOR276W'
p6674
sS'HMO1'
p6675
S'YDR174W'
p6676
sS'FMP25'
p6677
S'YLR077W'
p6678
sS'DAS1'
p6679
S'YJL149W'
p6680
sS'KCS1'
p6681
S'YDR017C'
p6682
sS'YRB2'
p6683
S'YIL063C'
p6684
sS'YRB1'
p6685
S'YDR002W'
p6686
sS'OXA1'
p6687
S'YER154W'
p6688
sS'FPR1'
p6689
S'YNL135C'
p6690
sS'OCH1'
p6691
S'YGL038C'
p6692
sS'CLN3'
p6693
S'YAL040C'
p6694
sS'FRA2'
p6695
S'YGL220W'
p6696
sS'FRA1'
p6697
S'YLL029W'
p6698
sS'SPC19'
p6699
S'YDR201W'
p6700
sS'IRA2'
p6701
S'YOL081W'
p6702
sS'RPL11B'
p6703
S'YGR085C'
p6704
sS'FIT1'
p6705
S'YDR534C'
p6706
sS'IRA1'
p6707
S'YBR140C'
p6708
sS'YPR1'
p6709
S'YDR368W'
p6710
sS'DCC1'
p6711
S'YCL016C'
p6712
sS'RPL24B'
p6713
S'YGR148C'
p6714
sS'BUD17'
p6715
S'YNR027W'
p6716
sS'CYM1'
p6717
S'YDR430C'
p6718
sS'RPL24A'
p6719
S'YGL031C'
p6720
sS'SNR73'
p6721
S'snR73'
p6722
sS'AFI1'
p6723
S'YOR129C'
p6724
sS'SAW1'
p6725
S'YAL027W'
p6726
sS'CDC53'
p6727
S'YDL132W'
p6728
sS'PRY3'
p6729
S'YJL078C'
p6730
sS'PRY2'
p6731
S'YKR013W'
p6732
sS'KHS1'
p6733
S'KHS1'
p6734
sS'IMA5'
p6735
S'YJL216C'
p6736
sS'RPS10A'
p6737
S'YOR293W'
p6738
sS'RPS10B'
p6739
S'YMR230W'
p6740
sS'STB2'
p6741
S'YMR053C'
p6742
sS'DYN3'
p6743
S'YMR299C'
p6744
sS'PUN1'
p6745
S'YLR414C'
p6746
sS'SCW4'
p6747
S'YGR279C'
p6748
sS'VPS64'
p6749
S'YDR200C'
p6750
sS'NNT1'
p6751
S'YLR285W'
p6752
sS'URA6'
p6753
S'YKL024C'
p6754
sS'URA7'
p6755
S'YBL039C'
p6756
sS'URA4'
p6757
S'YLR420W'
p6758
sS'PSF2'
p6759
S'YJL072C'
p6760
sS'URA2'
p6761
S'YJL130C'
p6762
sS'URA3'
p6763
S'YEL021W'
p6764
sS'URA1'
p6765
S'YKL216W'
p6766
sS'MHR1'
p6767
S'YDR296W'
p6768
sS'VPS62'
p6769
S'YGR141W'
p6770
sS'FOL2'
p6771
S'YGR267C'
p6772
sS'SEG1'
p6773
S'YMR086W'
p6774
sS'AGE2'
p6775
S'YIL044C'
p6776
sS'AGE1'
p6777
S'YDR524C'
p6778
sS'SEG2'
p6779
S'YKL105C'
p6780
sS'LPX1'
p6781
S'YOR084W'
p6782
sS'PFA4'
p6783
S'YOL003C'
p6784
sS'STB5'
p6785
S'YHR178W'
p6786
sS'SRP21'
p6787
S'YKL122C'
p6788
sS'IMD4'
p6789
S'YML056C'
p6790
sS'DFG5'
p6791
S'YMR238W'
p6792
sS'SPO20'
p6793
S'YMR017W'
p6794
sS'ATG11'
p6795
S'YPR049C'
p6796
sS'YPT7'
p6797
S'YML001W'
p6798
sS'MEF1'
p6799
S'YLR069C'
p6800
sS'RRP1'
p6801
S'YDR087C'
p6802
sS'MEL8'
p6803
S'MEL8'
p6804
sS'RRP3'
p6805
S'YHR065C'
p6806
sS'RRP4'
p6807
S'YHR069C'
p6808
sS'CIN8'
p6809
S'YEL061C'
p6810
sS'DDI1'
p6811
S'YER143W'
p6812
sS'RRP7'
p6813
S'YCL031C'
p6814
sS'RRP8'
p6815
S'YDR083W'
p6816
sS'TAD1'
p6817
S'YGL243W'
p6818
sS'MEL1'
p6819
S'MEL1'
p6820
sS'TLC1'
p6821
S'TLC1'
p6822
sS'MEL7'
p6823
S'MEL7'
p6824
sS'MEL4'
p6825
S'MEL4'
p6826
sS'MEL5'
p6827
S'MEL5'
p6828
sS'SNU23'
p6829
S'YDL098C'
p6830
sS'PCL8'
p6831
S'YPL219W'
p6832
sS'RPD3'
p6833
S'YNL330C'
p6834
sS'BI4'
p6835
S'Q0120'
p6836
sS'MCH1'
p6837
S'YDL054C'
p6838
sS'MCH2'
p6839
S'YKL221W'
p6840
sS'MCH4'
p6841
S'YOL119C'
p6842
sS'DCN1'
p6843
S'YLR128W'
p6844
sS'GPH1'
p6845
S'YPR160W'
p6846
sS'RED1'
p6847
S'YLR263W'
p6848
sS'SLK19'
p6849
S'YOR195W'
p6850
sS'HMRA2'
p6851
S'YCR096C'
p6852
sS'HMRA1'
p6853
S'YCR097W'
p6854
sS'COT1'
p6855
S'YOR316C'
p6856
sS'CSG2'
p6857
S'YBR036C'
p6858
sS'NCB2'
p6859
S'YDR397C'
p6860
sS'SIR2'
p6861
S'YDL042C'
p6862
sS'SIR3'
p6863
S'YLR442C'
p6864
sS'MIC60'
p6865
S'YKR016W'
p6866
sS'SIR1'
p6867
S'YKR101W'
p6868
sS'SIR4'
p6869
S'YDR227W'
p6870
sS'YRF1-3'
p6871
S'YGR296W'
p6872
sS'YRF1-2'
p6873
S'YER190W'
p6874
sS'YRF1-1'
p6875
S'YDR545W'
p6876
sS'ENV10'
p6877
S'YLR065C'
p6878
sS'YRF1-7'
p6879
S'YPL283C'
p6880
sS'PCL1'
p6881
S'YNL289W'
p6882
sS'YRF1-5'
p6883
S'YLR467W'
p6884
sS'YRF1-4'
p6885
S'YLR466W'
p6886
sS'RCO1'
p6887
S'YMR075W'
p6888
sS'SEC18'
p6889
S'YBR080C'
p6890
sS'LCL1'
p6891
S'YPL056C'
p6892
sS'NNF1'
p6893
S'YJR112W'
p6894
sS'APP1'
p6895
S'YNL094W'
p6896
sS'SEC11'
p6897
S'YIR022W'
p6898
sS'SEC10'
p6899
S'YLR166C'
p6900
sS'SEC13'
p6901
S'YLR208W'
p6902
sS'SEC12'
p6903
S'YNR026C'
p6904
sS'SEC15'
p6905
S'YGL233W'
p6906
sS'SEC14'
p6907
S'YMR079W'
p6908
sS'SEC17'
p6909
S'YBL050W'
p6910
sS'SEC16'
p6911
S'YPL085W'
p6912
sS'HIS4'
p6913
S'YCL030C'
p6914
sS'PAU24'
p6915
S'YBR301W'
p6916
sS'HIS6'
p6917
S'YIL020C'
p6918
sS'HIS7'
p6919
S'YBR248C'
p6920
sS'PAU21'
p6921
S'YOR394W'
p6922
sS'HIS1'
p6923
S'YER055C'
p6924
sS'HIS2'
p6925
S'YFR025C'
p6926
sS'HIS3'
p6927
S'YOR202W'
p6928
sS'APC4'
p6929
S'YDR118W'
p6930
sS'AMN1'
p6931
S'YBR158W'
p6932
sS'REV3'
p6933
S'YPL167C'
p6934
sS'MET22'
p6935
S'YOL064C'
p6936
sS'CLN2'
p6937
S'YPL256C'
p6938
sS'REV7'
p6939
S'YIL139C'
p6940
sS'HOG1'
p6941
S'YLR113W'
p6942
sS'NEJ1'
p6943
S'YLR265C'
p6944
sS'CRM1'
p6945
S'YGR218W'
p6946
sS'GOS1'
p6947
S'YHL031C'
p6948
sS'MUM3'
p6949
S'YOR298W'
p6950
sS'MRPS28'
p6951
S'YDR337W'
p6952
sS'HOC1'
p6953
S'YJR075W'
p6954
sS'HRA1'
p6955
S'HRA1'
p6956
sS'RCY1'
p6957
S'YJL204C'
p6958
sS'PLB2'
p6959
S'YMR006C'
p6960
sS'GIC1'
p6961
S'YHR061C'
p6962
sS'FMP16'
p6963
S'YDR070C'
p6964
sS'ENA1'
p6965
S'YDR040C'
p6966
sS'MNP1'
p6967
S'YGL068W'
p6968
sS'APC5'
p6969
S'YOR249C'
p6970
sS'FMP10'
p6971
S'YER182W'
p6972
sS'POR1'
p6973
S'YNL055C'
p6974
sS'CUP1-1'
p6975
S'YHR053C'
p6976
sS'CUP1-2'
p6977
S'YHR055C'
p6978
sS'POR2'
p6979
S'YIL114C'
p6980
sS'RDN18-2'
p6981
S'RDN18-2'
p6982
sS'MSD1'
p6983
S'YPL104W'
p6984
sS'TAF8'
p6985
S'YML114C'
p6986
sS'PMP1'
p6987
S'YCR024C-A'
p6988
sS'SNR17B'
p6989
S'snR17b'
p6990
sS'PMP3'
p6991
S'YDR276C'
p6992
sS'PMP2'
p6993
S'YEL017C-A'
p6994
sS'SUF16'
p6995
S'tG(GCC)C'
p6996
sS'PFD1'
p6997
S'YJL179W'
p6998
sS'RPL7B'
p6999
S'YPL198W'
p7000
sS'SFB3'
p7001
S'YHR098C'
p7002
sS'SFB2'
p7003
S'YNL049C'
p7004
sS'DSN1'
p7005
S'YIR010W'
p7006
sS'SOK2'
p7007
S'YMR016C'
p7008
sS'SOK1'
p7009
S'YDR006C'
p7010
sS'HSP12'
p7011
S'YFL014W'
p7012
sS'HSP10'
p7013
S'YOR020C'
p7014
sS'TRA1'
p7015
S'YHR099W'
p7016
sS'THI73'
p7017
S'YLR004C'
p7018
sS'PRE5'
p7019
S'YMR314W'
p7020
sS'PRE4'
p7021
S'YFR050C'
p7022
sS'PRE7'
p7023
S'YBL041W'
p7024
sS'PRE6'
p7025
S'YOL038W'
p7026
sS'PRE1'
p7027
S'YER012W'
p7028
sS'EAR1'
p7029
S'YMR171C'
p7030
sS'PRE3'
p7031
S'YJL001W'
p7032
sS'PRE2'
p7033
S'YPR103W'
p7034
sS'RIO2'
p7035
S'YNL207W'
p7036
sS'RIO1'
p7037
S'YOR119C'
p7038
sS'LCD1'
p7039
S'YDR499W'
p7040
sS'BCP1'
p7041
S'YDR361C'
p7042
sS'RTR1'
p7043
S'YER139C'
p7044
sS'RTR2'
p7045
S'YDR066C'
p7046
sS'NPA3'
p7047
S'YJR072C'
p7048
sS'OMS1'
p7049
S'YDR316W'
p7050
sS'MPP6'
p7051
S'YNR024W'
p7052
sS'YOR1'
p7053
S'YGR281W'
p7054
sS'ATR1'
p7055
S'YML116W'
p7056
sS'PBS2'
p7057
S'YJL128C'
p7058
sS'LOC1'
p7059
S'YFR001W'
p7060
sS'RPA14'
p7061
S'YDR156W'
p7062
sS'CKB1'
p7063
S'YGL019W'
p7064
sS'GTF1'
p7065
S'YGR102C'
p7066
sS'FTH1'
p7067
S'YBR207W'
p7068
sS'DDP1'
p7069
S'YOR163W'
p7070
sS'LPD1'
p7071
S'YFL018C'
p7072
sS'RRB1'
p7073
S'YMR131C'
p7074
sS'EXO84'
p7075
S'YBR102C'
p7076
sS'TAL1'
p7077
S'YLR354C'
p7078
sS'RPS20'
p7079
S'YHL015W'
p7080
sS'MRP10'
p7081
S'YDL045W-A'
p7082
sS'MEL3'
p7083
S'MEL3'
p7084
sS'SHG1'
p7085
S'YBR258C'
p7086
sS'PUF2'
p7087
S'YPR042C'
p7088
sS'MEL10'
p7089
S'MEL10'
p7090
sS'NSI1'
p7091
S'YDR026C'
p7092
sS'ZOD1'
p7093
S'ZOD1'
p7094
sS'EMT2'
p7095
S'tM(CAU)O2'
p7096
sS'SRC1'
p7097
S'YML034W'
p7098
sS'TRM11'
p7099
S'YOL124C'
p7100
sS'HSE1'
p7101
S'YHL002W'
p7102
sS'TRM13'
p7103
S'YOL125W'
p7104
sS'TRM12'
p7105
S'YML005W'
p7106
sS'OPT1'
p7107
S'YJL212C'
p7108
sS'DBR1'
p7109
S'YKL149C'
p7110
sS'APA2'
p7111
S'YDR530C'
p7112
sS'RPS28B'
p7113
S'YLR264W'
p7114
sS'RGT1'
p7115
S'YKL038W'
p7116
sS'RGT2'
p7117
S'YDL138W'
p7118
sS'AFT1'
p7119
S'YGL071W'
p7120
sS'RPS28A'
p7121
S'YOR167C'
p7122
sS'ATP12'
p7123
S'YJL180C'
p7124
sS'SPS22'
p7125
S'YCL048W'
p7126
sS'NMA2'
p7127
S'YGR010W'
p7128
sS'ARP8'
p7129
S'YOR141C'
p7130
sS'AWA1'
p7131
S'AWA1'
p7132
sS'REX4'
p7133
S'YOL080C'
p7134
sS'REX3'
p7135
S'YLR107W'
p7136
sS'CRH1'
p7137
S'YGR189C'
p7138
sS'ERI1'
p7139
S'YPL096C-A'
p7140
sS'GLE1'
p7141
S'YDL207W'
p7142
sS'GLO4'
p7143
S'YOR040W'
p7144
sS'YTM1'
p7145
S'YOR272W'
p7146
sS'VTC3'
p7147
S'YPL019C'
p7148
sS'RDN25-2'
p7149
S'RDN25-2'
p7150
sS'RDN25-1'
p7151
S'RDN25-1'
p7152
sS'GUP1'
p7153
S'YGL084C'
p7154
sS'GUP2'
p7155
S'YPL189W'
p7156
sS'APS2'
p7157
S'YJR058C'
p7158
sS'APS3'
p7159
S'YJL024C'
p7160
sS'APS1'
p7161
S'YLR170C'
p7162
sS'COS111'
p7163
S'YBR203W'
p7164
sS'YPT11'
p7165
S'YNL304W'
p7166
sS'YPT10'
p7167
S'YBR264C'
p7168
sS'MET28'
p7169
S'YIR017C'
p7170
sS'AFB1'
p7171
S'YLR040C'
p7172
sS'MDH3'
p7173
S'YDL078C'
p7174
sS'MTR4'
p7175
S'YJL050W'
p7176
sS'MDH1'
p7177
S'YKL085W'
p7178
sS'ALD2'
p7179
S'YMR170C'
p7180
sS'PIN2'
p7181
S'YOR104W'
p7182
sS'HFD1'
p7183
S'YMR110C'
p7184
sS'MID2'
p7185
S'YLR332W'
p7186
sS'MDM38'
p7187
S'YOL027C'
p7188
sS'PIN4'
p7189
S'YBL051C'
p7190
sS'ADR1'
p7191
S'YDR216W'
p7192
sS'SNR37'
p7193
S'snR37'
p7194
sS'SAM3'
p7195
S'YPL274W'
p7196
sS'DNA2'
p7197
S'YHR164C'
p7198
sS'RMA1'
p7199
S'YKL132C'
p7200
sS'IPP1'
p7201
S'YBR011C'
p7202
sS'IFH1'
p7203
S'YLR223C'
p7204
sS'SPO1'
p7205
S'YNL012W'
p7206
sS'SOD1'
p7207
S'YJR104C'
p7208
sS'PDB1'
p7209
S'YBR221C'
p7210
sS'NUP188'
p7211
S'YML103C'
p7212
sS'YIP4'
p7213
S'YGL198W'
p7214
sS'YIP5'
p7215
S'YGL161C'
p7216
sS'TOM20'
p7217
S'YGR082W'
p7218
sS'YIP3'
p7219
S'YNL044W'
p7220
sS'YIP1'
p7221
S'YGR172C'
p7222
sS'AI3'
p7223
S'Q0060'
p7224
sS'RSC4'
p7225
S'YKR008W'
p7226
sS'HRT1'
p7227
S'YOL133W'
p7228
sS'XDJ1'
p7229
S'YLR090W'
p7230
sS'STU2'
p7231
S'YLR045C'
p7232
sS'DCP2'
p7233
S'YNL118C'
p7234
sS'DCP1'
p7235
S'YOL149W'
p7236
sS'STU1'
p7237
S'YBL034C'
p7238
sS'SKI8'
p7239
S'YGL213C'
p7240
sS'LHP1'
p7241
S'YDL051W'
p7242
sS'OLI1'
p7243
S'Q0130'
p7244
sS'IGO2'
p7245
S'YHR132W-A'
p7246
sS'RRP12'
p7247
S'YPL012W'
p7248
sS'GPI18'
p7249
S'YBR004C'
p7250
sS'GPI19'
p7251
S'YDR437W'
p7252
sS'GPI14'
p7253
S'YJR013W'
p7254
sS'GPI15'
p7255
S'YNL038W'
p7256
sS'GPI16'
p7257
S'YHR188C'
p7258
sS'GPI17'
p7259
S'YDR434W'
p7260
sS'GPI10'
p7261
S'YGL142C'
p7262
sS'GPI11'
p7263
S'YDR302W'
p7264
sS'GPI12'
p7265
S'YMR281W'
p7266
sS'GPI13'
p7267
S'YLL031C'
p7268
sS'RUF5-2'
p7269
S'RUF5-2'
p7270
sS'SHU2'
p7271
S'YDR078C'
p7272
sS'ARC1'
p7273
S'YGL105W'
p7274
sS'SHU1'
p7275
S'YHL006C'
p7276
sS'VPS4'
p7277
S'YPR173C'
p7278
sS'HEH2'
p7279
S'YDR458C'
p7280
sS'MRPS12'
p7281
S'YNR036C'
p7282
sS'SWR1'
p7283
S'YDR334W'
p7284
sS'SSK22'
p7285
S'YCR073C'
p7286
sS'NOC2'
p7287
S'YOR206W'
p7288
sS'NOC3'
p7289
S'YLR002C'
p7290
sS'NOC4'
p7291
S'YPR144C'
p7292
sS'DOS2'
p7293
S'YDR068W'
p7294
sS'SSP120'
p7295
S'YLR250W'
p7296
sS'ETR1'
p7297
S'YBR026C'
p7298
sS'ABZ2'
p7299
S'YMR289W'
p7300
sS'ABZ1'
p7301
S'YNR033W'
p7302
sS'CIN4'
p7303
S'YMR138W'
p7304
sS'MUB1'
p7305
S'YMR100W'
p7306
sS'SOL1'
p7307
S'YNR034W'
p7308
sS'HDA3'
p7309
S'YPR179C'
p7310
sS'TIM50'
p7311
S'YPL063W'
p7312
sS'MPS1'
p7313
S'YDL028C'
p7314
sS'GAD1'
p7315
S'YMR250W'
p7316
sS'ALE1'
p7317
S'YOR175C'
p7318
sS'NTR2'
p7319
S'YKR022C'
p7320
sS'TUL1'
p7321
S'YKL034W'
p7322
sS'HXT13'
p7323
S'YEL069C'
p7324
sS'HXT10'
p7325
S'YFL011W'
p7326
sS'HXT11'
p7327
S'YOL156W'
p7328
sS'HXT16'
p7329
S'YJR158W'
p7330
sS'HXT17'
p7331
S'YNR072W'
p7332
sS'HXT14'
p7333
S'YNL318C'
p7334
sS'IWR1'
p7335
S'YDL115C'
p7336
sS'TIF35'
p7337
S'YDR429C'
p7338
sS'TIF34'
p7339
S'YMR146C'
p7340
sS'CFT2'
p7341
S'YLR115W'
p7342
sS'CFT1'
p7343
S'YDR301W'
p7344
sS'MRC1'
p7345
S'YCL061C'
p7346
sS'SPE3'
p7347
S'YPR069C'
p7348
sS'JHD2'
p7349
S'YJR119C'
p7350
sS'JHD1'
p7351
S'YER051W'
p7352
sS'GAS1'
p7353
S'YMR307W'
p7354
sS'TDP1'
p7355
S'YBR223C'
p7356
sS'YEA4'
p7357
S'YEL004W'
p7358
sS'YEA6'
p7359
S'YEL006W'
p7360
sS'SMX2'
p7361
S'YFL017W-A'
p7362
sS'NUT2'
p7363
S'YPR168W'
p7364
sS'HRP1'
p7365
S'YOL123W'
p7366
sS'SRY1'
p7367
S'YKL218C'
p7368
sS'SKO1'
p7369
S'YNL167C'
p7370
sS'SPT10'
p7371
S'YJL127C'
p7372
sS'COG8'
p7373
S'YML071C'
p7374
sS'SPT15'
p7375
S'YER148W'
p7376
sS'SPT14'
p7377
S'YPL175W'
p7378
sS'GRE2'
p7379
S'YOL151W'
p7380
sS'GRE3'
p7381
S'YHR104W'
p7382
sS'COG3'
p7383
S'YER157W'
p7384
sS'COG2'
p7385
S'YGR120C'
p7386
sS'COG1'
p7387
S'YGL223C'
p7388
sS'IMT1'
p7389
S'tM(CAU)O1'
p7390
sS'COG7'
p7391
S'YGL005C'
p7392
sS'YRB30'
p7393
S'YGL164C'
p7394
sS'COG5'
p7395
S'YNL051W'
p7396
sS'INA1'
p7397
S'YLR413W'
p7398
sS'TMA108'
p7399
S'YIL137C'
p7400
sS'RPC25'
p7401
S'YKL144C'
p7402
sS'RPL41B'
p7403
S'YDL133C-A'
p7404
sS'SBP1'
p7405
S'YHL034C'
p7406
sS'SPC29'
p7407
S'YPL124W'
p7408
sS'IBD2'
p7409
S'YNL164C'
p7410
sS'OST4'
p7411
S'YDL232W'
p7412
sS'SEC8'
p7413
S'YPR055W'
p7414
sS'TAF13'
p7415
S'YML098W'
p7416
sS'SNR34'
p7417
S'snR34'
p7418
sS'OST5'
p7419
S'YGL226C-A'
p7420
sS'CDC9'
p7421
S'YDL164C'
p7422
sS'YRA2'
p7423
S'YKL214C'
p7424
sS'GAS3'
p7425
S'YMR215W'
p7426
sS'YRA1'
p7427
S'YDR381W'
p7428
sS'CWC27'
p7429
S'YPL064C'
p7430
sS'RPO41'
p7431
S'YFL036W'
p7432
sS'BLI1'
p7433
S'YKL061W'
p7434
sS'FDH1'
p7435
S'YOR388C'
p7436
sS'DPB4'
p7437
S'YDR121W'
p7438
sS'DPB2'
p7439
S'YPR175W'
p7440
sS'DPB3'
p7441
S'YBR278W'
p7442
sS'SMY2'
p7443
S'YBR172C'
p7444
sS'SMY1'
p7445
S'YKL079W'
p7446
sS'OST1'
p7447
S'YJL002C'
p7448
sS'EMW1'
p7449
S'YNL313C'
p7450
sS'SNX41'
p7451
S'YDR425W'
p7452
sS'SPC25'
p7453
S'YER018C'
p7454
sS'SPC24'
p7455
S'YMR117C'
p7456
sS'TIF4631'
p7457
S'YGR162W'
p7458
sS'RPC40'
p7459
S'YPR110C'
p7460
sS'ZAP1'
p7461
S'YJL056C'
p7462
sS'TIF4632'
p7463
S'YGL049C'
p7464
sS'RFA3'
p7465
S'YJL173C'
p7466
sS'RFA2'
p7467
S'YNL312W'
p7468
sS'RFA1'
p7469
S'YAR007C'
p7470
sS'HOP2'
p7471
S'YGL033W'
p7472
sS'HOP1'
p7473
S'YIL072W'
p7474
sS'CSE2'
p7475
S'YNR010W'
p7476
sS'MDM30'
p7477
S'YLR368W'
p7478
sS'KHR1'
p7479
S'KHR1'
p7480
sS'NBP35'
p7481
S'YGL091C'
p7482
sS'BOR1'
p7483
S'YNL275W'
p7484
sS'PLP1'
p7485
S'YDR183W'
p7486
sS'CIN1'
p7487
S'YOR349W'
p7488
sS'SKG3'
p7489
S'YLR187W'
p7490
sS'SOG2'
p7491
S'YOR353C'
p7492
sS'SCT1'
p7493
S'YBL011W'
p7494
sS'PLP2'
p7495
S'YOR281C'
p7496
sS'SNR77'
p7497
S'snR77'
p7498
sS'KRI1'
p7499
S'YNL308C'
p7500
sS'NCE103'
p7501
S'YNL036W'
p7502
sS'VAM3'
p7503
S'YOR106W'
p7504
sS'GTO1'
p7505
S'YGR154C'
p7506
sS'PUT1'
p7507
S'YLR142W'
p7508
sS'ZPS1'
p7509
S'YOL154W'
p7510
sS'CTR9'
p7511
S'YOL145C'
p7512
sS'BRR1'
p7513
S'YPR057W'
p7514
sS'THI6'
p7515
S'YPL214C'
p7516
sS'TMA64'
p7517
S'YDR117C'
p7518
sS'SER33'
p7519
S'YIL074C'
p7520
sS'SRP14'
p7521
S'YDL092W'
p7522
sS'NDI1'
p7523
S'YML120C'
p7524
sS'XRN1'
p7525
S'YGL173C'
p7526
sS'SEN54'
p7527
S'YPL083C'
p7528
sS'SER2'
p7529
S'YGR208W'
p7530
sS'SER3'
p7531
S'YER081W'
p7532
sS'SNR18'
p7533
S'snR18'
p7534
sS'TOM7'
p7535
S'YNL070W'
p7536
sS'NST1'
p7537
S'YNL091W'
p7538
sS'MDM32'
p7539
S'YOR147W'
p7540
sS'SDC1'
p7541
S'YDR469W'
p7542
sS'MER1'
p7543
S'YNL210W'
p7544
sS'RPE1'
p7545
S'YJL121C'
p7546
sS'CTR3'
p7547
S'YLR411W'
p7548
sS'PCT1'
p7549
S'YGR202C'
p7550
sS'PRM15'
p7551
S'YMR278W'
p7552
sS'CDD1'
p7553
S'YLR245C'
p7554
sS'SSF1'
p7555
S'YHR066W'
p7556
sS'SSF2'
p7557
S'YDR312W'
p7558
sS'BET3'
p7559
S'YKR068C'
p7560
sS'PEX1'
p7561
S'YKL197C'
p7562
sS'PEX3'
p7563
S'YDR329C'
p7564
sS'BRN1'
p7565
S'YBL097W'
p7566
sS'PEX5'
p7567
S'YDR244W'
p7568
sS'PEX4'
p7569
S'YGR133W'
p7570
sS'INO2'
p7571
S'YDR123C'
p7572
sS'SFH1'
p7573
S'YLR321C'
p7574
sS'SWC7'
p7575
S'YLR385C'
p7576
sS'EBS1'
p7577
S'YDR206W'
p7578
sS'SWC5'
p7579
S'YBR231C'
p7580
sS'SWC4'
p7581
S'YGR002C'
p7582
sS'SWC3'
p7583
S'YAL011W'
p7584
sS'GPG1'
p7585
S'YGL121C'
p7586
sS'REG1'
p7587
S'YDR028C'
p7588
sS'ROD1'
p7589
S'YOR018W'
p7590
sS'NUP2'
p7591
S'YLR335W'
p7592
sS'NUP1'
p7593
S'YOR098C'
p7594
sS'CDC42'
p7595
S'YLR229C'
p7596
sS'CHC1'
p7597
S'YGL206C'
p7598
sS'ARR3'
p7599
S'YPR201W'
p7600
sS'CUP2'
p7601
S'YGL166W'
p7602
sS'SIS1'
p7603
S'YNL007C'
p7604
sS'BET2'
p7605
S'YPR176C'
p7606
sS'MPA43'
p7607
S'YNL249C'
p7608
sS'SIS2'
p7609
S'YKR072C'
p7610
sS'CEX1'
p7611
S'YOR112W'
p7612
sS'TFS1'
p7613
S'YLR178C'
p7614
sS'REF2'
p7615
S'YDR195W'
p7616
sS'ILV5'
p7617
S'YLR355C'
p7618
sS'REI1'
p7619
S'YBR267W'
p7620
sS'MME1'
p7621
S'YMR166C'
p7622
sS'SST2'
p7623
S'YLR452C'
p7624
sS'YCK1'
p7625
S'YHR135C'
p7626
sS'YCK3'
p7627
S'YER123W'
p7628
sS'ILM1'
p7629
S'YJR118C'
p7630
sS'LSC1'
p7631
S'YOR142W'
p7632
sS'OKP1'
p7633
S'YGR179C'
p7634
sS'HIR3'
p7635
S'YJR140C'
p7636
sS'HIR2'
p7637
S'YOR038C'
p7638
sS'CTR86'
p7639
S'YCR054C'
p7640
sS'PMA1'
p7641
S'YGL008C'
p7642
sS'MIX14'
p7643
S'YDR031W'
p7644
sS'TOS8'
p7645
S'YGL096W'
p7646
sS'PPX1'
p7647
S'YHR201C'
p7648
sS'ESS1'
p7649
S'YJR017C'
p7650
sS'NPT1'
p7651
S'YOR209C'
p7652
sS'MRPS35'
p7653
S'YGR165W'
p7654
sS'RPL30'
p7655
S'YGL030W'
p7656
sS'DHR2'
p7657
S'YKL078W'
p7658
sS'ACH1'
p7659
S'YBL015W'
p7660
sS'AAD3'
p7661
S'YCR107W'
p7662
sS'AAD6'
p7663
S'YFL056C'
p7664
sS'AAD4'
p7665
S'YDL243C'
p7666
sS'TRP2'
p7667
S'YER090W'
p7668
sS'TRP3'
p7669
S'YKL211C'
p7670
sS'ATP18'
p7671
S'YML081C-A'
p7672
sS'TRP1'
p7673
S'YDR007W'
p7674
sS'RFS1'
p7675
S'YBR052C'
p7676
sS'TRP4'
p7677
S'YDR354W'
p7678
sS'TRP5'
p7679
S'YGL026C'
p7680
sS'BUD3'
p7681
S'YCL014W'
p7682
sS'BUD2'
p7683
S'YKL092C'
p7684
sS'OM14'
p7685
S'YBR230C'
p7686
sS'LSC2'
p7687
S'YGR244C'
p7688
sS'BUD6'
p7689
S'YLR319C'
p7690
sS'BUD5'
p7691
S'YCR038C'
p7692
sS'BUD4'
p7693
S'YJR092W'
p7694
sS'BUD9'
p7695
S'YGR041W'
p7696
sS'SOH1'
p7697
S'YGL127C'
p7698
sS'OTU2'
p7699
S'YHL013C'
p7700
sS'OTU1'
p7701
S'YFL044C'
p7702
sS'TIR3'
p7703
S'YIL011W'
p7704
sS'TIR2'
p7705
S'YOR010C'
p7706
sS'TIR1'
p7707
S'YER011W'
p7708
sS'CYR1'
p7709
S'YJL005W'
p7710
sS'MSW1'
p7711
S'YDR268W'
p7712
sS'VRP1'
p7713
S'YLR337C'
p7714
sS'TIR4'
p7715
S'YOR009W'
p7716
sS'PRB1'
p7717
S'YEL060C'
p7718
sS'TPK1'
p7719
S'YJL164C'
p7720
sS'YOS9'
p7721
S'YDR057W'
p7722
sS'TIM11'
p7723
S'YDR322C-A'
p7724
sS'TIM12'
p7725
S'YBR091C'
p7726
sS'TIM13'
p7727
S'YGR181W'
p7728
sS'IGO1'
p7729
S'YNL157W'
p7730
sS'PDR16'
p7731
S'YNL231C'
p7732
sS'TIM17'
p7733
S'YJL143W'
p7734
sS'RTS3'
p7735
S'YGR161C'
p7736
sS'RTS2'
p7737
S'YOR077W'
p7738
sS'RTS1'
p7739
S'YOR014W'
p7740
sS'PKH2'
p7741
S'YOL100W'
p7742
sS'RCF2'
p7743
S'YNR018W'
p7744
sS'SLH1'
p7745
S'YGR271W'
p7746
sS'FAR7'
p7747
S'YFR008W'
p7748
sS'SUE1'
p7749
S'YPR151C'
p7750
sS'VPS16'
p7751
S'YPL045W'
p7752
sS'DNM1'
p7753
S'YLL001W'
p7754
sS'OMA1'
p7755
S'YKR087C'
p7756
sS'SIN4'
p7757
S'YNL236W'
p7758
sS'FLP1'
p7759
S'R0010W'
p7760
sS'RNH1'
p7761
S'YMR234W'
p7762
sS'RPS13'
p7763
S'YDR064W'
p7764
sS'SLY41'
p7765
S'YOR307C'
p7766
sS'ICR1'
p7767
S'ICR1'
p7768
sS'NOT3'
p7769
S'YIL038C'
p7770
sS'FBP26'
p7771
S'YJL155C'
p7772
sS'ARL1'
p7773
S'YBR164C'
p7774
sS'ARL3'
p7775
S'YPL051W'
p7776
sS'MAL43'
p7777
S'MAL43'
p7778
sS'SIN3'
p7779
S'YOL004W'
p7780
sS'HNT3'
p7781
S'YOR258W'
p7782
sS'SUP53'
p7783
S'tL(CAA)C'
p7784
sS'ATP8'
p7785
S'Q0080'
p7786
sS'RRM3'
p7787
S'YHR031C'
p7788
sS'GEF1'
p7789
S'YJR040W'
p7790
sS'CTF3'
p7791
S'YLR381W'
p7792
sS'RIX1'
p7793
S'YHR197W'
p7794
sS'RIX7'
p7795
S'YLL034C'
p7796
sS'AVL9'
p7797
S'YLR114C'
p7798
sS'BUB3'
p7799
S'YOR026W'
p7800
sS'MDY2'
p7801
S'YOL111C'
p7802
sS'STB1'
p7803
S'YNL309W'
p7804
sS'PFK26'
p7805
S'YIL107C'
p7806
sS'ATO3'
p7807
S'YDR384C'
p7808
sS'TSR3'
p7809
S'YOR006C'
p7810
sS'RPS30A'
p7811
S'YLR287C-A'
p7812
sS'LSM12'
p7813
S'YHR121W'
p7814
sS'FAR1'
p7815
S'YJL157C'
p7816
sS'MATA2'
p7817
S'MATA2'
p7818
sS'NAT3'
p7819
S'YPR131C'
p7820
sS'NGG1'
p7821
S'YDR176W'
p7822
sS'TFA1'
p7823
S'YKL028W'
p7824
sS'DGR1'
p7825
S'YNL130C-A'
p7826
sS'HUT1'
p7827
S'YPL244C'
p7828
sS'TFA2'
p7829
S'YKR062W'
p7830
sS'YME1'
p7831
S'YPR024W'
p7832
sS'LDB19'
p7833
S'YOR322C'
p7834
sS'YIF1'
p7835
S'YNL263C'
p7836
sS'RAX2'
p7837
S'YLR084C'
p7838
sS'RAX1'
p7839
S'YOR301W'
p7840
sS'GUA1'
p7841
S'YMR217W'
p7842
sS'PIM1'
p7843
S'YBL022C'
p7844
sS'GND2'
p7845
S'YGR256W'
p7846
sS'GND1'
p7847
S'YHR183W'
p7848
sS'CCH1'
p7849
S'YGR217W'
p7850
sS'GEX1'
p7851
S'YCL073C'
p7852
sS'GEX2'
p7853
S'YKR106W'
p7854
sS'GAL80'
p7855
S'YML051W'
p7856
sS'OSM1'
p7857
S'YJR051W'
p7858
sS'LEU4'
p7859
S'YNL104C'
p7860
sS'LEU5'
p7861
S'YHR002W'
p7862
sS'LEU2'
p7863
S'YCL018W'
p7864
sS'CIS3'
p7865
S'YJL158C'
p7866
sS'LEU1'
p7867
S'YGL009C'
p7868
sS'MET32'
p7869
S'YDR253C'
p7870
sS'MET30'
p7871
S'YIL046W'
p7872
sS'SCH9'
p7873
S'YHR205W'
p7874
sS'COQ11'
p7875
S'YLR290C'
p7876
sS'SDO1'
p7877
S'YLR022C'
p7878
sS'IKI1'
p7879
S'YHR187W'
p7880
sS'LEU9'
p7881
S'YOR108W'
p7882
sS'MGE1'
p7883
S'YOR232W'
p7884
sS'NUP192'
p7885
S'YJL039C'
p7886
sS'RME2'
p7887
S'RME2'
p7888
sS'PDC1'
p7889
S'YLR044C'
p7890
sS'SPN1'
p7891
S'YPR133C'
p7892
sS'PDC2'
p7893
S'YDR081C'
p7894
sS'PDC5'
p7895
S'YLR134W'
p7896
sS'DER1'
p7897
S'YBR201W'
p7898
sS'CWC2'
p7899
S'YDL209C'
p7900
sS'MLC2'
p7901
S'YPR188C'
p7902
sS'NSE1'
p7903
S'YLR007W'
p7904
sS'RPS1A'
p7905
S'YLR441C'
p7906
sS'MLC1'
p7907
S'YGL106W'
p7908
sS'FKS3'
p7909
S'YMR306W'
p7910
sS'CRP1'
p7911
S'YHR146W'
p7912
sS'RME1'
p7913
S'YGR044C'
p7914
sS'LCB1'
p7915
S'YMR296C'
p7916
sS'APL1'
p7917
S'YJR005W'
p7918
sS'CNL1'
p7919
S'YDR357C'
p7920
sS'DGA1'
p7921
S'YOR245C'
p7922
sS'RME3'
p7923
S'RME3'
p7924
sS'SNR161'
p7925
S'snR161'
p7926
sS'FRQ1'
p7927
S'YDR373W'
p7928
sS'TRS65'
p7929
S'YGR166W'
p7930
sS'RNY1'
p7931
S'YPL123C'
p7932
sS'STT4'
p7933
S'YLR305C'
p7934
sS'ORC3'
p7935
S'YLL004W'
p7936
sS'DCS2'
p7937
S'YOR173W'
p7938
sS'RPS21B'
p7939
S'YJL136C'
p7940
sS'STT3'
p7941
S'YGL022W'
p7942
sS'RPA34'
p7943
S'YJL148W'
p7944
sS'MEC3'
p7945
S'YLR288C'
p7946
sS'FET4'
p7947
S'YMR319C'
p7948
sS'HHF2'
p7949
S'YNL030W'
p7950
sS'SFH5'
p7951
S'YJL145W'
p7952
sS'YME2'
p7953
S'YMR302C'
p7954
sS'FET3'
p7955
S'YMR058W'
p7956
sS'FOX2'
p7957
S'YKR009C'
p7958
sS'RMR1'
p7959
S'YGL250W'
p7960
sS'GYP8'
p7961
S'YFL027C'
p7962
sS'UBC12'
p7963
S'YLR306W'
p7964
sS'NIP7'
p7965
S'YPL211W'
p7966
sS'ROX1'
p7967
S'YPR065W'
p7968
sS'ARB1'
p7969
S'YER036C'
p7970
sS'MDE1'
p7971
S'YJR024C'
p7972
sS'SUP45'
p7973
S'YBR143C'
p7974
sS'GYP1'
p7975
S'YOR070C'
p7976
sS'DRE2'
p7977
S'YKR071C'
p7978
sS'UPS2'
p7979
S'YLR168C'
p7980
sS'UPS3'
p7981
S'YDR185C'
p7982
sS'FMT1'
p7983
S'YBL013W'
p7984
sS'GYP7'
p7985
S'YDL234C'
p7986
sS'EFM6'
p7987
S'YNL024C'
p7988
sS'PGI1'
p7989
S'YBR196C'
p7990
sS'EFM4'
p7991
S'YIL064W'
p7992
sS'EFM5'
p7993
S'YGR001C'
p7994
sS'EFM2'
p7995
S'YBR271W'
p7996
sS'RNR4'
p7997
S'YGR180C'
p7998
sS'EFM1'
p7999
S'YHL039W'
p8000
sS'DUS4'
p8001
S'YLR405W'
p8002
sS'BCK1'
p8003
S'YJL095W'
p8004
sS'BCK2'
p8005
S'YER167W'
p8006
sS'VAS1'
p8007
S'YGR094W'
p8008
sS'VAC14'
p8009
S'YLR386W'
p8010
sS'DUS1'
p8011
S'YML080W'
p8012
sS'VAC17'
p8013
S'YCL063W'
p8014
sS'HXT8'
p8015
S'YJL214W'
p8016
sS'CMK1'
p8017
S'YFR014C'
p8018
sS'RPL8A'
p8019
S'YHL033C'
p8020
sS'SOV1'
p8021
S'YMR066W'
p8022
sS'IPL1'
p8023
S'YPL209C'
p8024
sS'THI12'
p8025
S'YNL332W'
p8026
sS'HXT1'
p8027
S'YHR094C'
p8028
sS'ALD5'
p8029
S'YER073W'
p8030
sS'HXT3'
p8031
S'YDR345C'
p8032
sS'HXT4'
p8033
S'YHR092C'
p8034
sS'HXT5'
p8035
S'YHR096C'
p8036
sS'HXT6'
p8037
S'YDR343C'
p8038
sS'PRP28'
p8039
S'YDR243C'
p8040
sS'UBX6'
p8041
S'YJL048C'
p8042
sS'MGR1'
p8043
S'YCL044C'
p8044
sS'RPS23A'
p8045
S'YGR118W'
p8046
sS'THI5'
p8047
S'YFL058W'
p8048
sS'MON1'
p8049
S'YGL124C'
p8050
sS'ARP5'
p8051
S'YNL059C'
p8052
sS'ARP4'
p8053
S'YJL081C'
p8054
sS'ARP7'
p8055
S'YPR034W'
p8056
sS'ARP6'
p8057
S'YLR085C'
p8058
sS'ARP1'
p8059
S'YHR129C'
p8060
sS'ARP3'
p8061
S'YJR065C'
p8062
sS'ARP2'
p8063
S'YDL029W'
p8064
sS'SNU66'
p8065
S'YOR308C'
p8066
sS'VCX1'
p8067
S'YDL128W'
p8068
sS'SBA1'
p8069
S'YKL117W'
p8070
sS'MKC7'
p8071
S'YDR144C'
p8072
sS'FRE1'
p8073
S'YLR214W'
p8074
sS'CAF4'
p8075
S'YKR036C'
p8076
sS'RPL29'
p8077
S'YFR032C-A'
p8078
sS'MAL21'
p8079
S'MAL21'
p8080
sS'MAL23'
p8081
S'MAL23'
p8082
sS'MAL22'
p8083
S'MAL22'
p8084
sS'PBA1'
p8085
S'YLR199C'
p8086
sS'YEF1'
p8087
S'YEL041W'
p8088
sS'LCB5'
p8089
S'YLR260W'
p8090
sS'YEF3'
p8091
S'YLR249W'
p8092
sS'POL31'
p8093
S'YJR006W'
p8094
sS'LSP1'
p8095
S'YPL004C'
p8096
sS'SRX1'
p8097
S'YKL086W'
p8098
sS'BUL2'
p8099
S'YML111W'
p8100
sS'SSY5'
p8101
S'YJL156C'
p8102
sS'YUH1'
p8103
S'YJR099W'
p8104
sS'CST26'
p8105
S'YBR042C'
p8106
sS'RPS27B'
p8107
S'YHR021C'
p8108
sS'MTL1'
p8109
S'YGR023W'
p8110
sS'RPS27A'
p8111
S'YKL156W'
p8112
sS'PSA1'
p8113
S'YDL055C'
p8114
sS'MSH2'
p8115
S'YOL090W'
p8116
sS'HIM1'
p8117
S'YDR317W'
p8118
sS'RAD7'
p8119
S'YJR052W'
p8120
sS'MRP8'
p8121
S'YKL142W'
p8122
sS'RPC11'
p8123
S'YDR045C'
p8124
sS'RPC10'
p8125
S'YHR143W-A'
p8126
sS'RAD3'
p8127
S'YER171W'
p8128
sS'RAD2'
p8129
S'YGR258C'
p8130
sS'RAD1'
p8131
S'YPL022W'
p8132
sS'MRP1'
p8133
S'YDR347W'
p8134
sS'SKS1'
p8135
S'YPL026C'
p8136
sS'RPC19'
p8137
S'YNL113W'
p8138
sS'MRP2'
p8139
S'YPR166C'
p8140
sS'SER1'
p8141
S'YOR184W'
p8142
sS'MRP4'
p8143
S'YHL004W'
p8144
sS'RAD9'
p8145
S'YDR217C'
p8146
sS'SPC34'
p8147
S'YKR037C'
p8148
sS'COS7'
p8149
S'YDL248W'
p8150
sS'CCT8'
p8151
S'YJL008C'
p8152
sS'URE2'
p8153
S'YNL229C'
p8154
sS'ESA1'
p8155
S'YOR244W'
p8156
sS'SCC2'
p8157
S'YDR180W'
p8158
sS'CCT2'
p8159
S'YIL142W'
p8160
sS'CCT3'
p8161
S'YJL014W'
p8162
sS'SUF11'
p8163
S'tP(UGG)O2'
p8164
sS'STE50'
p8165
S'YCL032W'
p8166
sS'CCT7'
p8167
S'YJL111W'
p8168
sS'YNG2'
p8169
S'YHR090C'
p8170
sS'CCT5'
p8171
S'YJR064W'
p8172
sS'EXG2'
p8173
S'YDR261C'
p8174
sS'PPZ2'
p8175
S'YDR436W'
p8176
sS'COS4'
p8177
S'YFL062W'
p8178
sS'GLG1'
p8179
S'YKR058W'
p8180
sS'PDH1'
p8181
S'YPR002W'
p8182
sS'STB3'
p8183
S'YDR169C'
p8184
sS'IMA4'
p8185
S'YJL221C'
p8186
sS'YPT1'
p8187
S'YFL038C'
p8188
sS'RDL1'
p8189
S'YOR285W'
p8190
sS'IMA1'
p8191
S'YGR287C'
p8192
sS'STB6'
p8193
S'YKL072W'
p8194
sS'IMA3'
p8195
S'YIL172C'
p8196
sS'STB4'
p8197
S'YMR019W'
p8198
sS'NNF2'
p8199
S'YGR089W'
p8200
sS'POB3'
p8201
S'YML069W'
p8202
sS'RAD61'
p8203
S'YDR014W'
p8204
sS'RPL26A'
p8205
S'YLR344W'
p8206
sS'RPL26B'
p8207
S'YGR034W'
p8208
sS'EGD1'
p8209
S'YPL037C'
p8210
sS'VMA13'
p8211
S'YPR036W'
p8212
sS'GLG2'
p8213
S'YJL137C'
p8214
sS'NSL1'
p8215
S'YPL233W'
p8216
sS'UBP10'
p8217
S'YNL186W'
p8218
sS'SPP2'
p8219
S'YOR148C'
p8220
sS'GDI1'
p8221
S'YER136W'
p8222
sS'ENS2'
p8223
S'ENS2'
p8224
sS'GIM5'
p8225
S'YML094W'
p8226
sS'COA3'
p8227
S'YJL062W-A'
p8228
sS'CMP2'
p8229
S'YML057W'
p8230
sS'UBP12'
p8231
S'YJL197W'
p8232
sS'MCX1'
p8233
S'YBR227C'
p8234
sS'SNR50'
p8235
S'snR50'
p8236
sS'LDS1'
p8237
S'YAL018C'
p8238
sS'SEA4'
p8239
S'YBL104C'
p8240
sS'GPX1'
p8241
S'YKL026C'
p8242
sS'SNR36'
p8243
S'snR36'
p8244
sS'SNR35'
p8245
S'snR35'
p8246
sS'GPX2'
p8247
S'YBR244W'
p8248
sS'SNR33'
p8249
S'snR33'
p8250
sS'SWI3'
p8251
S'YJL176C'
p8252
sS'SNR31'
p8253
S'snR31'
p8254
sS'ILS1'
p8255
S'YBL076C'
p8256
sS'RUF5-1'
p8257
S'RUF5-1'
p8258
sS'HES1'
p8259
S'YOR237W'
p8260
sS'NRD1'
p8261
S'YNL251C'
p8262
sS'DAS2'
p8263
S'YDR020C'
p8264
sS'SNR39'
p8265
S'snR39'
p8266
sS'SNR38'
p8267
S'snR38'
p8268
sS'SES1'
p8269
S'YDR023W'
p8270
sS'LSB1'
p8271
S'YGR136W'
p8272
sS'LOS1'
p8273
S'YKL205W'
p8274
sS'SUT1'
p8275
S'YGL162W'
p8276
sS'SUT2'
p8277
S'YPR009W'
p8278
sS'SNR17A'
p8279
S'snR17a'
p8280
sS'CBK1'
p8281
S'YNL161W'
p8282
sS'PPZ1'
p8283
S'YML016C'
p8284
sS'LSB3'
p8285
S'YFR024C-A'
p8286
sS'CDC8'
p8287
S'YJR057W'
p8288
sS'CSE4'
p8289
S'YKL049C'
p8290
sS'TAF11'
p8291
S'YML015C'
p8292
sS'TAF10'
p8293
S'YDR167W'
p8294
sS'CSE1'
p8295
S'YGL238W'
p8296
sS'SUP17'
p8297
S'tS(UGA)I'
p8298
sS'GET1'
p8299
S'YGL020C'
p8300
sS'CDC1'
p8301
S'YDR182W'
p8302
sS'CDC123'
p8303
S'YLR215C'
p8304
sS'CDC3'
p8305
S'YLR314C'
p8306
sS'CDC4'
p8307
S'YFL009W'
p8308
sS'CDC5'
p8309
S'YMR001C'
p8310
sS'GSC2'
p8311
S'YGR032W'
p8312
sS'CDC7'
p8313
S'YDL017W'
p8314
sS'FAR11'
p8315
S'YNL127W'
p8316
sS'IQG1'
p8317
S'YPL242C'
p8318
sS'IFM1'
p8319
S'YOL023W'
p8320
sS'MLP1'
p8321
S'YKR095W'
p8322
sS'INN1'
p8323
S'YNL152W'
p8324
sS'PSD2'
p8325
S'YGR170W'
p8326
sS'BPH1'
p8327
S'YCR032W'
p8328
sS'BRO1'
p8329
S'YPL084W'
p8330
sS'BLM10'
p8331
S'YFL007W'
p8332
sS'RSC58'
p8333
S'YLR033W'
p8334
sS'MAL64'
p8335
S'MAL64'
p8336
sS'HFM1'
p8337
S'YGL251C'
p8338
sS'HOS4'
p8339
S'YIL112W'
p8340
sS'RUB1'
p8341
S'YDR139C'
p8342
sS'HOS3'
p8343
S'YPL116W'
p8344
sS'ERC1'
p8345
S'YHR032W'
p8346
sS'SIT1'
p8347
S'YEL065W'
p8348
sS'SIT4'
p8349
S'YDL047W'
p8350
sS'YHI9'
p8351
S'YHR029C'
p8352
sS'RCF1'
p8353
S'YML030W'
p8354
sS'NUS1'
p8355
S'YDL193W'
p8356
sS'RPL6A'
p8357
S'YML073C'
p8358
sS'RPS30B'
p8359
S'YOR182C'
p8360
sS'CLN1'
p8361
S'YMR199W'
p8362
sS'REH1'
p8363
S'YLR387C'
p8364
sS'TAF6'
p8365
S'YGL112C'
p8366
sS'MDV1'
p8367
S'YJL112W'
p8368
sS'NAT2'
p8369
S'YGR147C'
p8370
sS'NAT1'
p8371
S'YDL040C'
p8372
sS'NAT5'
p8373
S'YOR253W'
p8374
sS'NAT4'
p8375
S'YMR069W'
p8376
sS'PHO91'
p8377
S'YNR013C'
p8378
sS'PHO90'
p8379
S'YJL198W'
p8380
sS'THI20'
p8381
S'YOL055C'
p8382
sS'PHO92'
p8383
S'YDR374C'
p8384
sS'ASP1'
p8385
S'YDR321W'
p8386
sS'GLO1'
p8387
S'YML004C'
p8388
sS'YAP6'
p8389
S'YDR259C'
p8390
sS'YAP7'
p8391
S'YOL028C'
p8392
sS'YAP5'
p8393
S'YIR018W'
p8394
sS'YAP3'
p8395
S'YHL009C'
p8396
sS'YAP1'
p8397
S'YML007W'
p8398
sS'MGR2'
p8399
S'YPL098C'
p8400
sS'MGR3'
p8401
S'YMR115W'
p8402
sS'POL5'
p8403
S'YEL055C'
p8404
sS'POL4'
p8405
S'YCR014C'
p8406
sS'POL3'
p8407
S'YDL102W'
p8408
sS'POL2'
p8409
S'YNL262W'
p8410
sS'POL1'
p8411
S'YNL102W'
p8412
sS'HSP78'
p8413
S'YDR258C'
p8414
sS'FLC3'
p8415
S'YGL139W'
p8416
sS'HOM6'
p8417
S'YJR139C'
p8418
sS'ETS2-2'
p8419
S'ETS2-2'
p8420
sS'HFI1'
p8421
S'YPL254W'
p8422
sS'HOM2'
p8423
S'YDR158W'
p8424
sS'HOM3'
p8425
S'YER052C'
p8426
sS'ZRC1'
p8427
S'YMR243C'
p8428
sS'FIN1'
p8429
S'YDR130C'
p8430
sS'PTA1'
p8431
S'YAL043C'
p8432
sS'FLC1'
p8433
S'YPL221W'
p8434
sS'DSS1'
p8435
S'YMR287C'
p8436
sS'SCC4'
p8437
S'YER147C'
p8438
sS'UBP11'
p8439
S'YKR098C'
p8440
sS'RFT1'
p8441
S'YBL020W'
p8442
sS'UBP13'
p8443
S'YBL067C'
p8444
sS'GIM4'
p8445
S'YEL003W'
p8446
sS'UBP15'
p8447
S'YMR304W'
p8448
sS'UBP14'
p8449
S'YBR058C'
p8450
sS'SQS1'
p8451
S'YNL224C'
p8452
sS'MUD2'
p8453
S'YKL074C'
p8454
sS'RPP1A'
p8455
S'YDL081C'
p8456
sS'RPP1B'
p8457
S'YDL130W'
p8458
sS'MUD1'
p8459
S'YBR119W'
p8460
sS'LSB5'
p8461
S'YCL034W'
p8462
sS'MLP2'
p8463
S'YIL149C'
p8464
sS'COX5B'
p8465
S'YIL111W'
p8466
sS'LSB6'
p8467
S'YJL100W'
p8468
sS'MAG2'
p8469
S'YLR427W'
p8470
sS'TOM1'
p8471
S'YDR457W'
p8472
sS'THI21'
p8473
S'YPL258C'
p8474
sS'RTP1'
p8475
S'YMR185W'
p8476
sS'TOM5'
p8477
S'YPR133W-A'
p8478
sS'TOM6'
p8479
S'YOR045W'
p8480
sS'BUG1'
p8481
S'YDL099W'
p8482
sS'RKM2'
p8483
S'YDR198C'
p8484
sS'FRE7'
p8485
S'YOL152W'
p8486
sS'ISU1'
p8487
S'YPL135W'
p8488
sS'RNA15'
p8489
S'YGL044C'
p8490
sS'GAL10'
p8491
S'YBR019C'
p8492
sS'SAM2'
p8493
S'YDR502C'
p8494
sS'ZTA1'
p8495
S'YBR046C'
p8496
sS'RKM3'
p8497
S'YBR030W'
p8498
sS'SAM1'
p8499
S'YLR180W'
p8500
sS'EAP1'
p8501
S'YKL204W'
p8502
sS'PRC1'
p8503
S'YMR297W'
p8504
sS'CYS3'
p8505
S'YAL012W'
p8506
sS'RKM5'
p8507
S'YLR137W'
p8508
sS'PAU6'
p8509
S'YNR076W'
p8510
sS'PAU7'
p8511
S'YAR020C'
p8512
sS'PAU4'
p8513
S'YLR461W'
p8514
sS'PAU5'
p8515
S'YFL020C'
p8516
sS'PAU2'
p8517
S'YEL049W'
p8518
sS'PAU3'
p8519
S'YCR104W'
p8520
sS'ALD3'
p8521
S'YMR169C'
p8522
sS'PAU1'
p8523
S'YJL223C'
p8524
sS'CKA2'
p8525
S'YOR061W'
p8526
sS'PAU8'
p8527
S'YAL068C'
p8528
sS'PAU9'
p8529
S'YBL108C-A'
p8530
sS'RGD1'
p8531
S'YBR260C'
p8532
sS'PRY1'
p8533
S'YJL079C'
p8534
sS'RGD2'
p8535
S'YFL047W'
p8536
sS'SSU1'
p8537
S'YPL092W'
p8538
sS'RKM4'
p8539
S'YDR257C'
p8540
sS'SEC31'
p8541
S'YDL195W'
p8542
sS'SUF5'
p8543
S'tG(CCC)O'
p8544
sS'SUF8'
p8545
S'tP(UGG)H'
p8546
sS'SAM4'
p8547
S'YPL273W'
p8548
sS'RPS0A'
p8549
S'YGR214W'
p8550
sS'ISA1'
p8551
S'YLL027W'
p8552
sS'YMR1'
p8553
S'YJR110W'
p8554
sS'UTP23'
p8555
S'YOR004W'
p8556
sS'MFM1'
p8557
S'YPL060W'
p8558
sS'ERV1'
p8559
S'YGR029W'
p8560
sS'BUR2'
p8561
S'YLR226W'
p8562
sS'RTN1'
p8563
S'YDR233C'
p8564
sS'RTN2'
p8565
S'YDL204W'
p8566
sS'MFT1'
p8567
S'YML062C'
p8568
sS'RRN3'
p8569
S'YKL125W'
p8570
sS'DBP8'
p8571
S'YHR169W'
p8572
sS'APC9'
p8573
S'YLR102C'
p8574
sS'RRN6'
p8575
S'YBL014C'
p8576
sS'RRN7'
p8577
S'YJL025W'
p8578
sS'RRN5'
p8579
S'YLR141W'
p8580
sS'APC2'
p8581
S'YLR127C'
p8582
sS'DBP3'
p8583
S'YGL078C'
p8584
sS'RRN9'
p8585
S'YMR270C'
p8586
sS'DBP6'
p8587
S'YNR038W'
p8588
sS'DBP7'
p8589
S'YKR024C'
p8590
sS'LCP5'
p8591
S'YER127W'
p8592
sS'DBP5'
p8593
S'YOR046C'
p8594
sS'NAF1'
p8595
S'YNL124W'
p8596
sS'SKI7'
p8597
S'YOR076C'
p8598
sS'AFR1'
p8599
S'YDR085C'
p8600
sS'SOP4'
p8601
S'YJL192C'
p8602
sS'MYO3'
p8603
S'YKL129C'
p8604
sS'MYO2'
p8605
S'YOR326W'
p8606
sS'MYO1'
p8607
S'YHR023W'
p8608
sS'ULP1'
p8609
S'YPL020C'
p8610
sS'SLU7'
p8611
S'YDR088C'
p8612
sS'MYO5'
p8613
S'YMR109W'
p8614
sS'MYO4'
p8615
S'YAL029C'
p8616
sS'ATG3'
p8617
S'YNR007C'
p8618
sS'DUR1,2'
p8619
S'YBR208C'
p8620
sS'USA1'
p8621
S'YML029W'
p8622
sS'HPA3'
p8623
S'YEL066W'
p8624
sS'HPA2'
p8625
S'YPR193C'
p8626
sS'MNN11'
p8627
S'YJL183W'
p8628
sS'MNN10'
p8629
S'YDR245W'
p8630
sS'PIL1'
p8631
S'YGR086C'
p8632
sS'MSE1'
p8633
S'YOL033W'
p8634
sS'MPC2'
p8635
S'YHR162W'
p8636
sS'MPC3'
p8637
S'YGR243W'
p8638
sS'MPC1'
p8639
S'YGL080W'
p8640
sS'PUP1'
p8641
S'YOR157C'
p8642
sS'PUP3'
p8643
S'YER094C'
p8644
sS'IMO32'
p8645
S'YGR031W'
p8646
sS'PET20'
p8647
S'YPL159C'
p8648
sS'RPL9A'
p8649
S'YGL147C'
p8650
sS'RPL9B'
p8651
S'YNL067W'
p8652
sS'ADE6'
p8653
S'YGR061C'
p8654
sS'PKP2'
p8655
S'YGL059W'
p8656
sS'PKP1'
p8657
S'YIL042C'
p8658
sS'REV1'
p8659
S'YOR346W'
p8660
sS'MDJ1'
p8661
S'YFL016C'
p8662
sS'MDJ2'
p8663
S'YNL328C'
p8664
sS'TRE2'
p8665
S'YOR256C'
p8666
sS'SUF2'
p8667
S'tP(AGG)C'
p8668
sS'SNR11'
p8669
S'snR11'
p8670
sS'SUF3'
p8671
S'tG(CCC)D'
p8672
sS'TIM8'
p8673
S'YJR135W-A'
p8674
sS'EAF1'
p8675
S'YDR359C'
p8676
sS'CAF16'
p8677
S'YFL028C'
p8678
sS'ACB1'
p8679
S'YGR037C'
p8680
sS'SHE2'
p8681
S'YKL130C'
p8682
sS'SHE3'
p8683
S'YBR130C'
p8684
sS'EAF6'
p8685
S'YJR082C'
p8686
sS'SHE1'
p8687
S'YBL031W'
p8688
sS'SPC98'
p8689
S'YNL126W'
p8690
sS'SUF6'
p8691
S'tG(UCC)N'
p8692
sS'TPA1'
p8693
S'YER049W'
p8694
sS'THR1'
p8695
S'YHR025W'
p8696
sS'MAM3'
p8697
S'YOL060C'
p8698
sS'SHE9'
p8699
S'YDR393W'
p8700
sS'IMP2'
p8701
S'YMR035W'
p8702
sS'IMP3'
p8703
S'YHR148W'
p8704
sS'IMP1'
p8705
S'YMR150C'
p8706
sS'TEP1'
p8707
S'YNL128W'
p8708
sS'HSP82'
p8709
S'YPL240C'
p8710
sS'IMP4'
p8711
S'YNL075W'
p8712
sS'SPS4'
p8713
S'YOR313C'
p8714
sS'STS1'
p8715
S'YIR011C'
p8716
sS'SMI1'
p8717
S'YGR229C'
p8718
sS'DCR2'
p8719
S'YLR361C'
p8720
sS'DOM34'
p8721
S'YNL001W'
p8722
sS'SPS1'
p8723
S'YDR523C'
p8724
sS'SPS2'
p8725
S'YDR522C'
p8726
sS'NVJ1'
p8727
S'YHR195W'
p8728
sS'IDP3'
p8729
S'YNL009W'
p8730
sS'IDP2'
p8731
S'YLR174W'
p8732
sS'IDP1'
p8733
S'YDL066W'
p8734
sS'NOP9'
p8735
S'YJL010C'
p8736
sS'YBP1'
p8737
S'YBR216C'
p8738
sS'YBP2'
p8739
S'YGL060W'
p8740
sS'ZDS1'
p8741
S'YMR273C'
p8742
sS'PIS1'
p8743
S'YPR113W'
p8744
sS'SUC8'
p8745
S'SUC8'
p8746
sS'ARA2'
p8747
S'YMR041C'
p8748
sS'ARA1'
p8749
S'YBR149W'
p8750
sS'NIC96'
p8751
S'YFR002W'
p8752
sS'IAH1'
p8753
S'YOR126C'
p8754
sS'SUP56'
p8755
S'tL(CAA)A'
p8756
sS'SUP54'
p8757
S'tL(CAA)G2'
p8758
sS'PPN1'
p8759
S'YDR452W'
p8760
sS'SLG1'
p8761
S'YOR008C'
p8762
sS'DBF2'
p8763
S'YGR092W'
p8764
sS'DBF4'
p8765
S'YDR052C'
p8766
sS'FTR1'
p8767
S'YER145C'
p8768
sS'SPS100'
p8769
S'YHR139C'
p8770
sS'MDM12'
p8771
S'YOL009C'
p8772
sS'ETT1'
p8773
S'YOR051C'
p8774
sS'DUR3'
p8775
S'YHL016C'
p8776
sS'TCA17'
p8777
S'YEL048C'
p8778
sS'HLR1'
p8779
S'YDR528W'
p8780
sS'SNX3'
p8781
S'YOR357C'
p8782
sS'OPY2'
p8783
S'YPR075C'
p8784
sS'JNM1'
p8785
S'YMR294W'
p8786
sS'ALG9'
p8787
S'YNL219C'
p8788
sS'MAL12'
p8789
S'YGR292W'
p8790
sS'SNX4'
p8791
S'YJL036W'
p8792
sS'ALG2'
p8793
S'YGL065C'
p8794
sS'ALG3'
p8795
S'YBL082C'
p8796
sS'RPL27A'
p8797
S'YHR010W'
p8798
sS'ALG1'
p8799
S'YBR110W'
p8800
sS'ALG6'
p8801
S'YOR002W'
p8802
sS'ALG7'
p8803
S'YBR243C'
p8804
sS'SGD1'
p8805
S'YLR336C'
p8806
sS'KTR3'
p8807
S'YBR205W'
p8808
sS'KTR2'
p8809
S'YKR061W'
p8810
sS'KTR1'
p8811
S'YOR099W'
p8812
sS'KTR7'
p8813
S'YIL085C'
p8814
sS'URA8'
p8815
S'YJR103W'
p8816
sS'KTR5'
p8817
S'YNL029C'
p8818
sS'KTR4'
p8819
S'YBR199W'
p8820
sS'SCJ1'
p8821
S'YMR214W'
p8822
sS'DGR2'
p8823
S'YKL121W'
p8824
sS'GLE2'
p8825
S'YER107C'
p8826
sS'TUB2'
p8827
S'YFL037W'
p8828
sS'TUB1'
p8829
S'YML085C'
p8830
sS'PMI40'
p8831
S'YER003C'
p8832
sS'CEF1'
p8833
S'YMR213W'
p8834
sS'SKM1'
p8835
S'YOL113W'
p8836
sS'ATG5'
p8837
S'YPL149W'
p8838
sS'SNR75'
p8839
S'snR75'
p8840
sS'MAL34'
p8841
S'MAL34'
p8842
sS'MAL32'
p8843
S'YBR299W'
p8844
sS'MAL33'
p8845
S'YBR297W'
p8846
sS'DIG2'
p8847
S'YDR480W'
p8848
sS'MAL31'
p8849
S'YBR298C'
p8850
sS'CPR3'
p8851
S'YML078W'
p8852
sS'BNI1'
p8853
S'YNL271C'
p8854
sS'IML1'
p8855
S'YJR138W'
p8856
sS'BAT2'
p8857
S'YJR148W'
p8858
sS'FIG2'
p8859
S'YCR089W'
p8860
sS'PSP1'
p8861
S'YDR505C'
p8862
sS'FIG1'
p8863
S'YBR040W'
p8864
sS'GUD1'
p8865
S'YDL238C'
p8866
sS'TAT2'
p8867
S'YOL020W'
p8868
sS'PBN1'
p8869
S'YCL052C'
p8870
sS'ENT4'
p8871
S'YLL038C'
p8872
sS'CHS5'
p8873
S'YLR330W'
p8874
sS'FLO9'
p8875
S'YAL063C'
p8876
sS'FLO8'
p8877
S'YER109C'
p8878
sS'CHS1'
p8879
S'YNL192W'
p8880
sS'CHS2'
p8881
S'YBR038W'
p8882
sS'CHS3'
p8883
S'YBR023C'
p8884
sS'FLO1'
p8885
S'YAR050W'
p8886
sS'BPT1'
p8887
S'YLL015W'
p8888
sS'SIC1'
p8889
S'YLR079W'
p8890
sS'KRE2'
p8891
S'YDR483W'
p8892
sS'FLO5'
p8893
S'YHR211W'
p8894
sS'DAP1'
p8895
S'YPL170W'
p8896
sS'SRM1'
p8897
S'YGL097W'
p8898
sS'DAP2'
p8899
S'YHR028C'
p8900
sS'BIM1'
p8901
S'YER016W'
p8902
sS'HSP150'
p8903
S'YJL159W'
p8904
sS'GAT3'
p8905
S'YLR013W'
p8906
sS'TGA1'
p8907
S'tA(UGC)A'
p8908
sS'EEB1'
p8909
S'YPL095C'
p8910
sS'DTR1'
p8911
S'YBR180W'
p8912
sS'STA2'
p8913
S'STA2'
p8914
sS'STA3'
p8915
S'STA3'
p8916
sS'LPP1'
p8917
S'YDR503C'
p8918
sS'HAT1'
p8919
S'YPL001W'
p8920
sS'STE20'
p8921
S'YHL007C'
p8922
sS'STE23'
p8923
S'YLR389C'
p8924
sS'HAT2'
p8925
S'YEL056W'
p8926
sS'AQY1'
p8927
S'YPR192W'
p8928
sS'KOG1'
p8929
S'YHR186C'
p8930
sS'TEF2'
p8931
S'YBR118W'
p8932
sS'TEF1'
p8933
S'YPR080W'
p8934
sS'DBP9'
p8935
S'YLR276C'
p8936
sS'LDB16'
p8937
S'YCL005W'
p8938
sS'TEF4'
p8939
S'YKL081W'
p8940
sS'LDB18'
p8941
S'YLL049W'
p8942
sS'FRD1'
p8943
S'YEL047C'
p8944
sS'RIM1'
p8945
S'YCR028C-A'
p8946
sS'PDX3'
p8947
S'YBR035C'
p8948
sS'DPL1'
p8949
S'YDR294C'
p8950
sS'HCH1'
p8951
S'YNL281W'
p8952
sS'UBX3'
p8953
S'YDL091C'
p8954
sS'AAT2'
p8955
S'YLR027C'
p8956
sS'PTP1'
p8957
S'YDL230W'
p8958
sS'BNI5'
p8959
S'YNL166C'
p8960
sS'AAT1'
p8961
S'YKL106W'
p8962
sS'GDH1'
p8963
S'YOR375C'
p8964
sS'KAP120'
p8965
S'YPL125W'
p8966
sS'KAP123'
p8967
S'YER110C'
p8968
sS'GDH2'
p8969
S'YDL215C'
p8970
sS'RFC5'
p8971
S'YBR087W'
p8972
sS'RFC4'
p8973
S'YOL094C'
p8974
sS'DAN4'
p8975
S'YJR151C'
p8976
sS'ENP1'
p8977
S'YBR247C'
p8978
sS'TAF9'
p8979
S'YMR236W'
p8980
sS'DAN1'
p8981
S'YJR150C'
p8982
sS'ENP2'
p8983
S'YGR145W'
p8984
sS'PWR1'
p8985
S'PWR1'
p8986
sS'DBP2'
p8987
S'YNL112W'
p8988
sS'PAA1'
p8989
S'YDR071C'
p8990
sS'RPS0B'
p8991
S'YLR048W'
p8992
sS'IRT1'
p8993
S'IRT1'
p8994
sS'DDI3'
p8995
S'YNL335W'
p8996
sS'NDC80'
p8997
S'YIL144W'
p8998
sS'DDI2'
p8999
S'YFL061W'
p9000
sS'JEM1'
p9001
S'YJL073W'
p9002
sS'UTP22'
p9003
S'YGR090W'
p9004
sS'LRS4'
p9005
S'YDR439W'
p9006
sS'STRP'
p9007
S'STRP'
p9008
sS'RRP6'
p9009
S'YOR001W'
p9010
sS'RPA43'
p9011
S'YOR340C'
p9012
sS'URN1'
p9013
S'YPR152C'
p9014
sS'ERV29'
p9015
S'YGR284C'
p9016
sS'QCR2'
p9017
S'YPR191W'
p9018
sS'MEL2'
p9019
S'MEL2'
p9020
sS'CST9'
p9021
S'YLR394W'
p9022
sS'TUP1'
p9023
S'YCR084C'
p9024
sS'GLK1'
p9025
S'YCL040W'
p9026
sS'EHT1'
p9027
S'YBR177C'
p9028
sS'MTO1'
p9029
S'YGL236C'
p9030
sS'HER2'
p9031
S'YMR293C'
p9032
sS'RRT14'
p9033
S'YIL127C'
p9034
sS'QCR9'
p9035
S'YGR183C'
p9036
sS'RRT12'
p9037
S'YCR045C'
p9038
sS'RRT13'
p9039
S'YER066W'
p9040
sS'TMS1'
p9041
S'YDR105C'
p9042
sS'MCK1'
p9043
S'YNL307C'
p9044
sS'RPS26A'
p9045
S'YGL189C'
p9046
sS'ARG8'
p9047
S'YOL140W'
p9048
sS'CKS1'
p9049
S'YBR135W'
p9050
sS'RPS26B'
p9051
S'YER131W'
p9052
sS'KDX1'
p9053
S'YKL161C'
p9054
sS'LYS9'
p9055
S'YNR050C'
p9056
sS'VFA1'
p9057
S'YER128W'
p9058
sS'MAS2'
p9059
S'YHR024C'
p9060
sS'MAS1'
p9061
S'YLR163C'
p9062
sS'SWA2'
p9063
S'YDR320C'
p9064
sS'CMC1'
p9065
S'YKL137W'
p9066
sS'LYS1'
p9067
S'YIR034C'
p9068
sS'LYS2'
p9069
S'YBR115C'
p9070
sS'SSD1'
p9071
S'YDR293C'
p9072
sS'LYS4'
p9073
S'YDR234W'
p9074
sS'LYS5'
p9075
S'YGL154C'
p9076
sS'ECM5'
p9077
S'YMR176W'
p9078
sS'INM2'
p9079
S'YDR287W'
p9080
sS'INM1'
p9081
S'YHR046C'
p9082
sS'CUR1'
p9083
S'YPR158W'
p9084
sS'BTS1'
p9085
S'YPL069C'
p9086
sS'TDA11'
p9087
S'YHR159W'
p9088
sS'TDA10'
p9089
S'YGR205W'
p9090
sS'MTQ1'
p9091
S'YNL063W'
p9092
sS'MTQ2'
p9093
S'YDR140W'
p9094
sS'KSH1'
p9095
S'YNL024C-A'
p9096
sS'RAD57'
p9097
S'YDR004W'
p9098
sS'LTO1'
p9099
S'YNL260C'
p9100
sS'RAD55'
p9101
S'YDR076W'
p9102
sS'CHA1'
p9103
S'YCL064C'
p9104
sS'HKR1'
p9105
S'YDR420W'
p9106
sS'RAD52'
p9107
S'YML032C'
p9108
sS'RAD51'
p9109
S'YER095W'
p9110
sS'RAD50'
p9111
S'YNL250W'
p9112
sS'NUR1'
p9113
S'YDL089W'
p9114
sS'ESC8'
p9115
S'YOL017W'
p9116
sS'PML39'
p9117
S'YML107C'
p9118
sS'RCE1'
p9119
S'YMR274C'
p9120
sS'RAD59'
p9121
S'YDL059C'
p9122
sS'TAX4'
p9123
S'YJL083W'
p9124
sS'SNR65'
p9125
S'snR65'
p9126
sS'VNX1'
p9127
S'YNL321W'
p9128
sS'WWM1'
p9129
S'YFL010C'
p9130
sS'COQ5'
p9131
S'YML110C'
p9132
sS'BDS1'
p9133
S'YOL164W'
p9134
sS'SEI1'
p9135
S'YLR404W'
p9136
sS'TRS130'
p9137
S'YMR218C'
p9138
sS'MRPS17'
p9139
S'YMR188C'
p9140
sS'MRPS16'
p9141
S'YPL013C'
p9142
sS'PHO80'
p9143
S'YOL001W'
p9144
sS'PHO81'
p9145
S'YGR233C'
p9146
sS'PHO86'
p9147
S'YJL117W'
p9148
sS'PHO87'
p9149
S'YCR037C'
p9150
sS'PHO84'
p9151
S'YML123C'
p9152
sS'PHO85'
p9153
S'YPL031C'
p9154
sS'PAU14'
p9155
S'YIL176C'
p9156
sS'PAU15'
p9157
S'YIR041W'
p9158
sS'PHO88'
p9159
S'YBR106W'
p9160
sS'PHO89'
p9161
S'YBR296C'
p9162
sS'THI13'
p9163
S'YDL244W'
p9164
sS'FUN26'
p9165
S'YAL022C'
p9166
sS'PAU12'
p9167
S'YGR294W'
p9168
sS'PAU13'
p9169
S'YHL046C'
p9170
sS'CYB2'
p9171
S'YML054C'
p9172
sS'PPT1'
p9173
S'YGR123C'
p9174
sS'HOS1'
p9175
S'YPR068C'
p9176
sS'CYB5'
p9177
S'YNL111C'
p9178
sS'CRN1'
p9179
S'YLR429W'
p9180
sS'PRR1'
p9181
S'YKL116C'
p9182
sS'PRR2'
p9183
S'YDL214C'
p9184
sS'MGS1'
p9185
S'YNL218W'
p9186
sS'RIP1'
p9187
S'YEL024W'
p9188
sS'HOL1'
p9189
S'YNR055C'
p9190
sS'WAR1'
p9191
S'YML076C'
p9192
sS'MED11'
p9193
S'YMR112C'
p9194
sS'MEK1'
p9195
S'YOR351C'
p9196
sS'GCN20'
p9197
S'YFR009W'
p9198
sS'RFU1'
p9199
S'YLR073C'
p9200
sS'GIN4'
p9201
S'YDR507C'
p9202
sS'HAL1'
p9203
S'YPR005C'
p9204
sS'MLS1'
p9205
S'YNL117W'
p9206
sS'LSM8'
p9207
S'YJR022W'
p9208
sS'SAN1'
p9209
S'YDR143C'
p9210
sS'LSM4'
p9211
S'YER112W'
p9212
sS'LSM5'
p9213
S'YER146W'
p9214
sS'LSM6'
p9215
S'YDR378C'
p9216
sS'LSM7'
p9217
S'YNL147W'
p9218
sS'LSM1'
p9219
S'YJL124C'
p9220
sS'LSM2'
p9221
S'YBL026W'
p9222
sS'QRI7'
p9223
S'YDL104C'
p9224
sS'ARC15'
p9225
S'YIL062C'
p9226
sS'TRM112'
p9227
S'YNR046W'
p9228
sS'TIP1'
p9229
S'YBR067C'
p9230
sS'CYT1'
p9231
S'YOR065W'
p9232
sS'CYT2'
p9233
S'YKL087C'
p9234
sS'QRI5'
p9235
S'YLR204W'
p9236
sS'URA10'
p9237
S'YMR271C'
p9238
sS'APC1'
p9239
S'YNL172W'
p9240
sS'ARC18'
p9241
S'YLR370C'
p9242
sS'ARC19'
p9243
S'YKL013C'
p9244
sS'PAT1'
p9245
S'YCR077C'
p9246
sS'GAL11'
p9247
S'YOL051W'
p9248
sS'AIM19'
p9249
S'YIL087C'
p9250
sS'AIM18'
p9251
S'YHR198C'
p9252
sS'HST3'
p9253
S'YOR025W'
p9254
sS'AIM14'
p9255
S'YGL160W'
p9256
sS'AIM17'
p9257
S'YHL021C'
p9258
sS'AIM11'
p9259
S'YER093C-A'
p9260
sS'AIM10'
p9261
S'YER087W'
p9262
sS'YSA1'
p9263
S'YBR111C'
p9264
sS'HST4'
p9265
S'YDR191W'
p9266
sS'FZO1'
p9267
S'YBR179C'
p9268
sS'SEC21'
p9269
S'YNL287W'
p9270
sS'SEC22'
p9271
S'YLR268W'
p9272
sS'SEC23'
p9273
S'YPR181C'
p9274
sS'SEC24'
p9275
S'YIL109C'
p9276
sS'SEC26'
p9277
S'YDR238C'
p9278
sS'SEC27'
p9279
S'YGL137W'
p9280
sS'SEC28'
p9281
S'YIL076W'
p9282
sS'BIO6'
p9283
S'YAR069W-A'
p9284
sS'ZEO1'
p9285
S'YOL109W'
p9286
sS'SBE22'
p9287
S'YHR103W'
p9288
sS'SLF1'
p9289
S'YDR515W'
p9290
sS'TIP41'
p9291
S'YPR040W'
p9292
sS'HSF1'
p9293
S'YGL073W'
p9294
sS'BIO4'
p9295
S'YNR057C'
p9296
sS'RUF20'
p9297
S'RUF20'
p9298
sS'UGA4'
p9299
S'YDL210W'
p9300
sS'UGA3'
p9301
S'YDL170W'
p9302
sS'UGA2'
p9303
S'YBR006W'
p9304
sS'UGA1'
p9305
S'YGR019W'
p9306
sS'IST1'
p9307
S'YNL265C'
p9308
sS'IST2'
p9309
S'YBR086C'
p9310
sS'IST3'
p9311
S'YIR005W'
p9312
sS'IZH1'
p9313
S'YDR492W'
p9314
sS'RIM13'
p9315
S'YMR154C'
p9316
sS'IZH3'
p9317
S'YLR023C'
p9318
sS'SLT2'
p9319
S'YHR030C'
p9320
sS'INP54'
p9321
S'YOL065C'
p9322
sS'TRS120'
p9323
S'YDR407C'
p9324
sS'INP51'
p9325
S'YIL002C'
p9326
sS'INP53'
p9327
S'YOR109W'
p9328
sS'INP52'
p9329
S'YNL106C'
p9330
sS'CAX4'
p9331
S'YGR036C'
p9332
sS'VPS63'
p9333
S'YLR261C'
p9334
sS'CET1'
p9335
S'YPL228W'
p9336
sS'USB1'
p9337
S'YLR132C'
p9338
sS'IES6'
p9339
S'YEL044W'
p9340
sS'IES5'
p9341
S'YER092W'
p9342
sS'PEX30'
p9343
S'YLR324W'
p9344
sS'IES3'
p9345
S'YLR052W'
p9346
sS'BOS1'
p9347
S'YLR078C'
p9348
sS'IES1'
p9349
S'YFL013C'
p9350
sS'GAP1'
p9351
S'YKR039W'
p9352
sS'COX23'
p9353
S'YHR116W'
p9354
sS'YRF1-8'
p9355
S'YOR396W'
p9356
sS'DSK2'
p9357
S'YMR276W'
p9358
sS'IRC10'
p9359
S'YOL015W'
p9360
sS'IDI1'
p9361
S'YPL117C'
p9362
sS'RDN5-1'
p9363
S'RDN5-1'
p9364
sS'RDN5-2'
p9365
S'RDN5-2'
p9366
sS'RDN5-3'
p9367
S'RDN5-3'
p9368
sS'RDN5-4'
p9369
S'RDN5-4'
p9370
sS'LAS17'
p9371
S'YOR181W'
p9372
sS'RDN5-6'
p9373
S'RDN5-6'
p9374
sS'MPP10'
p9375
S'YJR002W'
p9376
sS'MET10'
p9377
S'YFR030W'
p9378
sS'ALG12'
p9379
S'YNR030W'
p9380
sS'MET12'
p9381
S'YPL023C'
p9382
sS'MET13'
p9383
S'YGL125W'
p9384
sS'MET14'
p9385
S'YKL001C'
p9386
sS'GCR1'
p9387
S'YPL075W'
p9388
sS'TDA9'
p9389
S'YML081W'
p9390
sS'TDA8'
p9391
S'YAL064C-A'
p9392
sS'MET18'
p9393
S'YIL128W'
p9394
sS'WTM2'
p9395
S'YOR229W'
p9396
sS'TDA5'
p9397
S'YLR426W'
p9398
sS'TDA4'
p9399
S'YJR116W'
p9400
sS'TDA3'
p9401
S'YHR009C'
p9402
sS'TDA2'
p9403
S'YER071C'
p9404
sS'PIC2'
p9405
S'YER053C'
p9406
sS'HPT1'
p9407
S'YDR399W'
p9408
sS'SPL2'
p9409
S'YHR136C'
p9410
sS'DEP1'
p9411
S'YAL013W'
p9412
sS'COQ2'
p9413
S'YNR041C'
p9414
sS'MDM1'
p9415
S'YML104C'
p9416
sS'RDL2'
p9417
S'YOR286W'
p9418
sS'VPS34'
p9419
S'YLR240W'
p9420
sS'INP2'
p9421
S'YMR163C'
p9422
sS'CNN1'
p9423
S'YFR046C'
p9424
sS'REG2'
p9425
S'YBR050C'
p9426
sS'ICS3'
p9427
S'YJL077C'
p9428
sS'ICS2'
p9429
S'YBR157C'
p9430
sS'SFI1'
p9431
S'YLL003W'
p9432
sS'VPS36'
p9433
S'YLR417W'
p9434
sS'DNL4'
p9435
S'YOR005C'
p9436
sS'YRF1-6'
p9437
S'YNL339C'
p9438
sS'LAC1'
p9439
S'YKL008C'
p9440
sS'BST1'
p9441
S'YFL025C'
p9442
sS'VPS38'
p9443
S'YLR360W'
p9444
sS'RPS7A'
p9445
S'YOR096W'
p9446
sS'DHH1'
p9447
S'YDL160C'
p9448
sS'RPS7B'
p9449
S'YNL096C'
p9450
sS'CRR1'
p9451
S'YLR213C'
p9452
sS'VEL1'
p9453
S'YGL258W'
p9454
sS'NCR1'
p9455
S'YPL006W'
p9456
sS'RGS2'
p9457
S'YOR107W'
p9458
sS'STR3'
p9459
S'YGL184C'
p9460
sS'SPR6'
p9461
S'YER115C'
p9462
sS'YPD1'
p9463
S'YDL235C'
p9464
sS'SPR3'
p9465
S'YGR059W'
p9466
sS'SPR2'
p9467
S'YOR214C'
p9468
sS'SPR1'
p9469
S'YOR190W'
p9470
sS'FRS2'
p9471
S'YFL022C'
p9472
sS'ICE2'
p9473
S'YIL090W'
p9474
sS'NOP13'
p9475
S'YNL175C'
p9476
sS'PHO2'
p9477
S'YDL106C'
p9478
sS'YIM1'
p9479
S'YMR152W'
p9480
sS'NOP14'
p9481
S'YDL148C'
p9482
sS'NOP16'
p9483
S'YER002W'
p9484
sS'NOP19'
p9485
S'YGR251W'
p9486
sS'RMT2'
p9487
S'YDR465C'
p9488
sS'MAM33'
p9489
S'YIL070C'
p9490
sS'ALT2'
p9491
S'YDR111C'
p9492
sS'ALT1'
p9493
S'YLR089C'
p9494
sS'CUE5'
p9495
S'YOR042W'
p9496
sS'DOT1'
p9497
S'YDR440W'
p9498
sS'DOT6'
p9499
S'YER088C'
p9500
sS'DOT5'
p9501
S'YIL010W'
p9502
sS'SNU56'
p9503
S'YDR240C'
p9504
sS'DIC1'
p9505
S'YLR348C'
p9506
sS'SUP61'
p9507
S'tS(CGA)C'
p9508
sS'GRX8'
p9509
S'YLR364W'
p9510
sS'PXR1'
p9511
S'YGR280C'
p9512
sS'MKS1'
p9513
S'YNL076W'
p9514
sS'KKQ8'
p9515
S'YKL168C'
p9516
sS'APT1'
p9517
S'YML022W'
p9518
sS'VAM10'
p9519
S'YOR068C'
p9520
sS'PGK1'
p9521
S'YCR012W'
p9522
sS'SMA2'
p9523
S'YML066C'
p9524
sS'NOT5'
p9525
S'YPR072W'
p9526
sS'ERV2'
p9527
S'YPR037C'
p9528
sS'SGE1'
p9529
S'YPR198W'
p9530
sS'GBP2'
p9531
S'YCL011C'
p9532
sS'MAL4'
p9533
S'MAL4'
p9534
sS'TOM22'
p9535
S'YNL131W'
p9536
sS'GYL1'
p9537
S'YMR192W'
p9538
sS'NPY1'
p9539
S'YGL067W'
p9540
sS'IRC15'
p9541
S'YPL017C'
p9542
sS'DUG1'
p9543
S'YFR044C'
p9544
sS'DUG2'
p9545
S'YBR281C'
p9546
sS'DUG3'
p9547
S'YNL191W'
p9548
sS'VTS1'
p9549
S'YOR359W'
p9550
sS'CAB3'
p9551
S'YKL088W'
p9552
sS'ARV1'
p9553
S'YLR242C'
p9554
sS'SSQ1'
p9555
S'YLR369W'
p9556
sS'ABM1'
p9557
S'YJR108W'
p9558
sS'COS12'
p9559
S'YGL263W'
p9560
sS'CAB1'
p9561
S'YDR531W'
p9562
sS'UTP21'
p9563
S'YLR409C'
p9564
sS'RAT1'
p9565
S'YOR048C'
p9566
sS'HIS5'
p9567
S'YIL116W'
p9568
sS'YGP1'
p9569
S'YNL160W'
p9570
sS'GAL2'
p9571
S'YLR081W'
p9572
sS'DIF1'
p9573
S'YLR437C'
p9574
sS'LHS1'
p9575
S'YKL073W'
p9576
sS'MRF1'
p9577
S'YGL143C'
p9578
sS'SYN8'
p9579
S'YAL014C'
p9580
sS'ART10'
p9581
S'YLR392C'
p9582
sS'PAU20'
p9583
S'YOL161C'
p9584
sS'HMX1'
p9585
S'YLR205C'
p9586
sS'CAJ1'
p9587
S'YER048C'
p9588
sS'PAU23'
p9589
S'YLR037C'
p9590
sS'MRN1'
p9591
S'YPL184C'
p9592
sS'SNR72'
p9593
S'snR72'
p9594
sS'FAP7'
p9595
S'YDL166C'
p9596
sS'SPT21'
p9597
S'YMR179W'
p9598
sS'SPT23'
p9599
S'YKL020C'
p9600
sS'ASN2'
p9601
S'YGR124W'
p9602
sS'ENV9'
p9603
S'YOR246C'
p9604
sS'FAP1'
p9605
S'YNL023C'
p9606
sS'NUC1'
p9607
S'YJL208C'
p9608
sS'SRL3'
p9609
S'YKR091W'
p9610
sS'SRL2'
p9611
S'YLR082C'
p9612
sS'SRL1'
p9613
S'YOR247W'
p9614
sS'SNR70'
p9615
S'snR70'
p9616
sS'CCR4'
p9617
S'YAL021C'
p9618
sS'RPS25A'
p9619
S'YGR027C'
p9620
sS'RPS25B'
p9621
S'YLR333C'
p9622
sS'MRX10'
p9623
S'YDR282C'
p9624
sS'RRG7'
p9625
S'YOR305W'
p9626
sS'GLR1'
p9627
S'YPL091W'
p9628
sS'KHA1'
p9629
S'YJL094C'
p9630
sS'PAC1'
p9631
S'YOR269W'
p9632
sS'NCA2'
p9633
S'YPR155C'
p9634
sS'SNR76'
p9635
S'snR76'
p9636
sS'MPH3'
p9637
S'YJR160C'
p9638
sS'FUS2'
p9639
S'YMR232W'
p9640
sS'FUS3'
p9641
S'YBL016W'
p9642
sS'FUS1'
p9643
S'YCL027W'
p9644
sS'RPS23B'
p9645
S'YPR132W'
p9646
sS'VHT1'
p9647
S'YGR065C'
p9648
sS'SHE4'
p9649
S'YOR035C'
p9650
sS'IRE1'
p9651
S'YHR079C'
p9652
sS'RPL13A'
p9653
S'YDL082W'
p9654
sS'RPL13B'
p9655
S'YMR142C'
p9656
sS'FRE8'
p9657
S'YLR047C'
p9658
sS'ALF1'
p9659
S'YNL148C'
p9660
sS'HSX1'
p9661
S'tR(CCU)J'
p9662
sS'UBP2'
p9663
S'YOR124C'
p9664
sS'TRN1'
p9665
S'tP(UGG)A'
p9666
sS'FRE3'
p9667
S'YOR381W'
p9668
sS'FRE2'
p9669
S'YKL220C'
p9670
sS'IMG1'
p9671
S'YCR046C'
p9672
sS'XKS1'
p9673
S'YGR194C'
p9674
sS'UBX5'
p9675
S'YDR330W'
p9676
sS'FRE6'
p9677
S'YLL051C'
p9678
sS'UBX7'
p9679
S'YBR273C'
p9680
sS'EAF5'
p9681
S'YEL018W'
p9682
sS'SCS3'
p9683
S'YGL126W'
p9684
sS'SCS2'
p9685
S'YER120W'
p9686
sS'SNR78'
p9687
S'snR78'
p9688
sS'KAP114'
p9689
S'YGL241W'
p9690
sS'ETS2-1'
p9691
S'ETS2-1'
p9692
sS'ENV7'
p9693
S'YPL236C'
p9694
sS'DAM1'
p9695
S'YGR113W'
p9696
sS'SUP3'
p9697
S'tY(GUA)O'
p9698
sS'SUC3'
p9699
S'SUC3'
p9700
sS'SEC1'
p9701
S'YDR164C'
p9702
sS'ARO80'
p9703
S'YDR421W'
p9704
sS'SEC3'
p9705
S'YER008C'
p9706
sS'EDS1'
p9707
S'YBR033W'
p9708
sS'SEC5'
p9709
S'YDR166C'
p9710
sS'SEC4'
p9711
S'YFL005W'
p9712
sS'SEC7'
p9713
S'YDR170C'
p9714
sS'SEC6'
p9715
S'YIL068C'
p9716
sS'SEC9'
p9717
S'YGR009C'
p9718
sS'FMS1'
p9719
S'YMR020W'
p9720
sS'KEI1'
p9721
S'YDR367W'
p9722
sS'MNE1'
p9723
S'YOR350C'
p9724
sS'TYW1'
p9725
S'YPL207W'
p9726
sS'TYW3'
p9727
S'YGL050W'
p9728
sS'SSB2'
p9729
S'YNL209W'
p9730
sS'HUG1'
p9731
S'YML058W-A'
p9732
sS'LRP1'
p9733
S'YHR081W'
p9734
sS'SAY1'
p9735
S'YGR263C'
p9736
sS'ERV15'
p9737
S'YBR210W'
p9738
sS'GRX2'
p9739
S'YDR513W'
p9740
sS'MAL41'
p9741
S'MAL41'
p9742
sS'CDS1'
p9743
S'YBR029C'
p9744
sS'URM1'
p9745
S'YIL008W'
p9746
sS'CAT2'
p9747
S'YML042W'
p9748
sS'CMR1'
p9749
S'YDL156W'
p9750
sS'MRPL16'
p9751
S'YBL038W'
p9752
sS'VMA1'
p9753
S'YDL185W'
p9754
sS'VMA2'
p9755
S'YBR127C'
p9756
sS'VMA3'
p9757
S'YEL027W'
p9758
sS'YJU2'
p9759
S'YKL095W'
p9760
sS'VMA5'
p9761
S'YKL080W'
p9762
sS'VMA6'
p9763
S'YLR447C'
p9764
sS'VMA7'
p9765
S'YGR020C'
p9766
sS'VMA8'
p9767
S'YEL051W'
p9768
sS'VMA9'
p9769
S'YCL005W-A'
p9770
sS'SWP1'
p9771
S'YMR149W'
p9772
sS'CAT5'
p9773
S'YOR125C'
p9774
sS'NQM1'
p9775
S'YGR043C'
p9776
sS'PIN3'
p9777
S'YPR154W'
p9778
sS'CDA2'
p9779
S'YLR308W'
p9780
sS'SSE2'
p9781
S'YBR169C'
p9782
sS'MCD4'
p9783
S'YKL165C'
p9784
sS'SSN8'
p9785
S'YNL025C'
p9786
sS'MRPS8'
p9787
S'YMR158W'
p9788
sS'VIK1'
p9789
S'YPL253C'
p9790
sS'PCI8'
p9791
S'YIL071C'
p9792
sS'MCD1'
p9793
S'YDL003W'
p9794
sS'PET309'
p9795
S'YLR067C'
p9796
sS'MAP2'
p9797
S'YBL091C'
p9798
sS'SWF1'
p9799
S'YDR126W'
p9800
sS'CSC1'
p9801
S'YLR241W'
p9802
sS'EBP2'
p9803
S'YKL172W'
p9804
sS'GPD1'
p9805
S'YDL022W'
p9806
sS'SRP101'
p9807
S'YDR292C'
p9808
sS'SRP102'
p9809
S'YKL154W'
p9810
sS'GPD2'
p9811
S'YOL059W'
p9812
sS'ARG81'
p9813
S'YML099C'
p9814
sS'ARG80'
p9815
S'YMR042W'
p9816
sS'ECM21'
p9817
S'YBL101C'
p9818
sS'ITT1'
p9819
S'YML068W'
p9820
sS'YOS1'
p9821
S'YER074W-A'
p9822
sS'CUS1'
p9823
S'YMR240C'
p9824
sS'AXL2'
p9825
S'YIL140W'
p9826
sS'COX8'
p9827
S'YLR395C'
p9828
sS'COX9'
p9829
S'YDL067C'
p9830
sS'NUM1'
p9831
S'YDR150W'
p9832
sS'IMH1'
p9833
S'YLR309C'
p9834
sS'COX3'
p9835
S'Q0275'
p9836
sS'PGC1'
p9837
S'YPL206C'
p9838
sS'COX6'
p9839
S'YHR051W'
p9840
sS'FLR1'
p9841
S'YBR008C'
p9842
sS'COX4'
p9843
S'YGL187C'
p9844
sS'RRP45'
p9845
S'YDR280W'
p9846
sS'GIC2'
p9847
S'YDR309C'
p9848
sS'RRP40'
p9849
S'YOL142W'
p9850
sS'RRP43'
p9851
S'YCR035C'
p9852
sS'RRP42'
p9853
S'YDL111C'
p9854
sS'NRG1'
p9855
S'YDR043C'
p9856
sS'ENA6'
p9857
S'ENA6'
p9858
sS'YHK8'
p9859
S'YHR048W'
p9860
sS'NRG2'
p9861
S'YBR066C'
p9862
sS'ESL1'
p9863
S'YIL151C'
p9864
sS'ESL2'
p9865
S'YKR096W'
p9866
sS'CYS4'
p9867
S'YGR155W'
p9868
sS'CSR1'
p9869
S'YLR380W'
p9870
sS'NVJ2'
p9871
S'YPR091C'
p9872
sS'MIM2'
p9873
S'YLR099W-A'
p9874
sS'ENA5'
p9875
S'YDR038C'
p9876
sS'NIP100'
p9877
S'YPL174C'
p9878
sS'LSR1'
p9879
S'LSR1'
p9880
sS'RCR2'
p9881
S'YDR003W'
p9882
sS'RCR1'
p9883
S'YBR005W'
p9884
sS'PRP46'
p9885
S'YPL151C'
p9886
sS'ACK1'
p9887
S'YDL203C'
p9888
sS'GVP36'
p9889
S'YIL041W'
p9890
sS'RPS12'
p9891
S'YOR369C'
p9892
sS'GSH1'
p9893
S'YJL101C'
p9894
sS'MPC54'
p9895
S'YOR177C'
p9896
sS'CYC8'
p9897
S'YBR112C'
p9898
sS'PRS3'
p9899
S'YHL011C'
p9900
sS'PRS2'
p9901
S'YER099C'
p9902
sS'PRS1'
p9903
S'YKL181W'
p9904
sS'HER1'
p9905
S'YOR227W'
p9906
sS'CYC1'
p9907
S'YJR048W'
p9908
sS'CYC3'
p9909
S'YAL039C'
p9910
sS'PRS4'
p9911
S'YBL068W'
p9912
sS'GTT1'
p9913
S'YIR038C'
p9914
sS'GTT3'
p9915
S'YEL017W'
p9916
sS'GTT2'
p9917
S'YLL060C'
p9918
sS'MEL6'
p9919
S'MEL6'
p9920
sS'YHC3'
p9921
S'YJL059W'
p9922
sS'AAC3'
p9923
S'YBR085W'
p9924
sS'YDC1'
p9925
S'YPL087W'
p9926
sS'MNT3'
p9927
S'YIL014W'
p9928
sS'CTM1'
p9929
S'YHR109W'
p9930
sS'PTC5'
p9931
S'YOR090C'
p9932
sS'YSP1'
p9933
S'YHR155W'
p9934
sS'PTC7'
p9935
S'YHR076W'
p9936
sS'MEH1'
p9937
S'YKR007W'
p9938
sS'CRC1'
p9939
S'YOR100C'
p9940
sS'LAT1'
p9941
S'YNL071W'
p9942
sS'SEC20'
p9943
S'YDR498C'
p9944
sS'SAP155'
p9945
S'YFR040W'
p9946
sS'HRK1'
p9947
S'YOR267C'
p9948
sS'OM45'
p9949
S'YIL136W'
p9950
sS'ATP22'
p9951
S'YDR350C'
p9952
sS'ATP23'
p9953
S'YNR020C'
p9954
sS'ATP20'
p9955
S'YPR020W'
p9956
sS'TOK1'
p9957
S'YJL093C'
p9958
sS'RDN37-2'
p9959
S'RDN37-2'
p9960
sS'SCO2'
p9961
S'YBR024W'
p9962
sS'PTM1'
p9963
S'YKL039W'
p9964
sS'ATP25'
p9965
S'YMR098C'
p9966
sS'TRE1'
p9967
S'YPL176C'
p9968
sS'SNR4'
p9969
S'snR4'
p9970
sS'POX1'
p9971
S'YGL205W'
p9972
sS'CIN5'
p9973
S'YOR028C'
p9974
sS'CIN2'
p9975
S'YPL241C'
p9976
sS'UGP1'
p9977
S'YKL035W'
p9978
sS'ENV11'
p9979
S'YGR071C'
p9980
sS'MSR1'
p9981
S'YHR091C'
p9982
sS'HEM12'
p9983
S'YDR047W'
p9984
sS'MKK2'
p9985
S'YPL140C'
p9986
sS'ISC1'
p9987
S'YER019W'
p9988
sS'ERJ5'
p9989
S'YFR041C'
p9990
sS'TRX1'
p9991
S'YLR043C'
p9992
sS'PET191'
p9993
S'YJR034W'
p9994
sS'PRP43'
p9995
S'YGL120C'
p9996
sS'SSS1'
p9997
S'YDR086C'
p9998
sS'MPR2'
p9999
S'MPR2'
p10000
sS'BDP1'
p10001
S'YNL039W'
p10002
sS'RPS6B'
p10003
S'YBR181C'
p10004
sS'ADE12'
p10005
S'YNL220W'
p10006
sS'RPS6A'
p10007
S'YPL090C'
p10008
sS'HRI1'
p10009
S'YLR301W'
p10010
sS'ADE13'
p10011
S'YLR359W'
p10012
sS'APE1'
p10013
S'YKL103C'
p10014
sS'APE2'
p10015
S'YKL157W'
p10016
sS'APE3'
p10017
S'YBR286W'
p10018
sS'APE4'
p10019
S'YHR113W'
p10020
sS'IGD1'
p10021
S'YFR017C'
p10022
sS'VAC7'
p10023
S'YNL054W'
p10024
sS'TAH1'
p10025
S'YCR060W'
p10026
sS'YOX1'
p10027
S'YML027W'
p10028
sS'PRP42'
p10029
S'YDR235W'
p10030
sS'NHP10'
p10031
S'YDL002C'
p10032
sS'CRT10'
p10033
S'YOL063C'
p10034
sS'SLS1'
p10035
S'YLR139C'
p10036
sS'RIM21'
p10037
S'YNL294C'
p10038
sS'RIM20'
p10039
S'YOR275C'
p10040
sS'MPS2'
p10041
S'YGL075C'
p10042
sS'MPS3'
p10043
S'YJL019W'
p10044
sS'IRC5'
p10045
S'YFR038W'
p10046
sS'TCD2'
p10047
S'YKL027W'
p10048
sS'TCD1'
p10049
S'YHR003C'
p10050
sS'ERR1'
p10051
S'YOR393W'
p10052
sS'UAF30'
p10053
S'YOR295W'
p10054
sS'TMA22'
p10055
S'YJR014W'
p10056
sS'LAS21'
p10057
S'YJL062W'
p10058
sS'HPC2'
p10059
S'YBR215W'
p10060
sS'YCP4'
p10061
S'YCR004C'
p10062
sS'PSE1'
p10063
S'YMR308C'
p10064
sS'NAM2'
p10065
S'YLR382C'
p10066
sS'EPT1'
p10067
S'YHR123W'
p10068
sS'PPM2'
p10069
S'YOL141W'
p10070
sS'PPM1'
p10071
S'YDR435C'
p10072
sS'ARG5,6'
p10073
S'YER069W'
p10074
sS'RPS15'
p10075
S'YOL040C'
p10076
sS'IMA2'
p10077
S'YOL157C'
p10078
sS'PRE9'
p10079
S'YGR135W'
p10080
sS'EKI1'
p10081
S'YDR147W'
p10082
sS'CPS1'
p10083
S'YJL172W'
p10084
sS'RPS2'
p10085
S'YGL123W'
p10086
sS'ESF2'
p10087
S'YNR054C'
p10088
sS'RFC3'
p10089
S'YNL290W'
p10090
sS'SDL1'
p10091
S'YIL167W'
p10092
sS'ECM16'
p10093
S'YMR128W'
p10094
sS'GCS1'
p10095
S'YDL226C'
p10096
sS'SNU71'
p10097
S'YGR013W'
p10098
sS'GUT1'
p10099
S'YHL032C'
p10100
sS'GUT2'
p10101
S'YIL155C'
p10102
sS'PIB2'
p10103
S'YGL023C'
p10104
sS'PIB1'
p10105
S'YDR313C'
p10106
sS'MOT3'
p10107
S'YMR070W'
p10108
sS'SLP1'
p10109
S'YOR154W'
p10110
sS'RPL14B'
p10111
S'YHL001W'
p10112
sS'GMC1'
p10113
S'YDR506C'
p10114
sS'GMC2'
p10115
S'YLR445W'
p10116
sS'MDL2'
p10117
S'YPL270W'
p10118
sS'MDL1'
p10119
S'YLR188W'
p10120
sS'SUP51'
p10121
S'tL(UAA)J'
p10122
sS'CEG1'
p10123
S'YGL130W'
p10124
sS'SPC1'
p10125
S'YJR010C-A'
p10126
sS'YCH1'
p10127
S'YGR203W'
p10128
sS'RAD23'
p10129
S'YEL037C'
p10130
sS'TPC1'
p10131
S'YGR096W'
p10132
sS'ICT1'
p10133
S'YLR099C'
p10134
sS'BER1'
p10135
S'YLR412W'
p10136
sS'MUP3'
p10137
S'YHL036W'
p10138
sS'MUP1'
p10139
S'YGR055W'
p10140
sS'CPA2'
p10141
S'YJR109C'
p10142
sS'SAK1'
p10143
S'YER129W'
p10144
sS'IPT1'
p10145
S'YDR072C'
p10146
sS'CPA1'
p10147
S'YOR303W'
p10148
sS'TOM40'
p10149
S'YMR203W'
p10150
sS'DST1'
p10151
S'YGL043W'
p10152
sS'SVS1'
p10153
S'YPL163C'
p10154
sS'GSP2'
p10155
S'YOR185C'
p10156
sS'GSP1'
p10157
S'YLR293C'
p10158
sS'TRK2'
p10159
S'YKR050W'
p10160
sS'TRK1'
p10161
S'YJL129C'
p10162
sS'RLP7'
p10163
S'YNL002C'
p10164
sS'TAP42'
p10165
S'YMR028W'
p10166
sS'GCD1'
p10167
S'YOR260W'
p10168
sS'MOT1'
p10169
S'YPL082C'
p10170
sS'SCL1'
p10171
S'YGL011C'
p10172
sS'BUL1'
p10173
S'YMR275C'
p10174
sS'PSO2'
p10175
S'YMR137C'
p10176
sS'NUP120'
p10177
S'YKL057C'
p10178
sS'FRT1'
p10179
S'YOR324C'
p10180
sS'FRT2'
p10181
S'YAL028W'
p10182
sS'RIM101'
p10183
S'YHL027W'
p10184
sS'YLF2'
p10185
S'YHL014C'
p10186
sS'RVB2'
p10187
S'YPL235W'
p10188
sS'KIN4'
p10189
S'YOR233W'
p10190
sS'RVB1'
p10191
S'YDR190C'
p10192
sS'KIN2'
p10193
S'YLR096W'
p10194
sS'KIN3'
p10195
S'YAR018C'
p10196
sS'ISN1'
p10197
S'YOR155C'
p10198
sS'KIN1'
p10199
S'YDR122W'
p10200
sS'RKI1'
p10201
S'YOR095C'
p10202
sS'SOR1'
p10203
S'YJR159W'
p10204
sS'TAF7'
p10205
S'YMR227C'
p10206
sS'EMP47'
p10207
S'YFL048C'
p10208
sS'TAF5'
p10209
S'YBR198C'
p10210
sS'BCH2'
p10211
S'YKR027W'
p10212
sS'TAF3'
p10213
S'YPL011C'
p10214
sS'TAF2'
p10215
S'YCR042C'
p10216
sS'TAF1'
p10217
S'YGR274C'
p10218
sS'EMP46'
p10219
S'YLR080W'
p10220
sS'PPH22'
p10221
S'YDL188C'
p10222
sS'PPH21'
p10223
S'YDL134C'
p10224
sS'GAL3'
p10225
S'YDR009W'
p10226
sS'ARG4'
p10227
S'YHR018C'
p10228
sS'RPS24A'
p10229
S'YER074W'
p10230
sS'SIP18'
p10231
S'YMR175W'
p10232
sS'SPT4'
p10233
S'YGR063C'
p10234
sS'ITS2-1'
p10235
S'ITS2-1'
p10236
sS'PDE1'
p10237
S'YGL248W'
p10238
sS'BAT1'
p10239
S'YHR208W'
p10240
sS'BUD31'
p10241
S'YCR063W'
p10242
sS'COY1'
p10243
S'YKL179C'
p10244
sS'BUD32'
p10245
S'YGR262C'
p10246
sS'AIF1'
p10247
S'YNR074C'
p10248
sS'EFB1'
p10249
S'YAL003W'
p10250
sS'SNF8'
p10251
S'YPL002C'
p10252
sS'YRR1'
p10253
S'YOR162C'
p10254
sS'PNG1'
p10255
S'YPL096W'
p10256
sS'EHD3'
p10257
S'YDR036C'
p10258
sS'MAM1'
p10259
S'YER106W'
p10260
sS'DRN1'
p10261
S'YGR093W'
p10262
sS'SNZ3'
p10263
S'YFL059W'
p10264
sS'SNZ2'
p10265
S'YNL333W'
p10266
sS'KIP1'
p10267
S'YBL063W'
p10268
sS'KIP2'
p10269
S'YPL155C'
p10270
sS'KIP3'
p10271
S'YGL216W'
p10272
sS'TAZ1'
p10273
S'YPR140W'
p10274
sS'DUF1'
p10275
S'YOL087C'
p10276
sS'RPL37A'
p10277
S'YLR185W'
p10278
sS'MAL11'
p10279
S'YGR289C'
p10280
sS'PGD1'
p10281
S'YGL025C'
p10282
sS'MAL13'
p10283
S'YGR288W'
p10284
sS'SPC110'
p10285
S'YDR356W'
p10286
sS'TAT1'
p10287
S'YBR069C'
p10288
sS'SNF7'
p10289
S'YLR025W'
p10290
sS'FAA2'
p10291
S'YER015W'
p10292
sS'FAA3'
p10293
S'YIL009W'
p10294
sS'CAF130'
p10295
S'YGR134W'
p10296
sS'MZM1'
p10297
S'YDR493W'
p10298
sS'CCE1'
p10299
S'YKL011C'
p10300
sS'GUF1'
p10301
S'YLR289W'
p10302
sS'DIE2'
p10303
S'YGR227W'
p10304
sS'SNF1'
p10305
S'YDR477W'
p10306
sS'RDN5-5'
p10307
S'RDN5-5'
p10308
sS'SYF1'
p10309
S'YDR416W'
p10310
sS'MMM1'
p10311
S'YLL006W'
p10312
sS'SMK1'
p10313
S'YPR054W'
p10314
sS'ROG1'
p10315
S'YGL144C'
p10316
sS'HRR25'
p10317
S'YPL204W'
p10318
sS'ROG3'
p10319
S'YFR022W'
p10320
sS'SNF3'
p10321
S'YDL194W'
p10322
sS'RPL27B'
p10323
S'YDR471W'
p10324
sS'SYO1'
p10325
S'YDL063C'
p10326
sS'EAF3'
p10327
S'YPR023C'
p10328
sS'RPA49'
p10329
S'YNL248C'
p10330
sS'MRM2'
p10331
S'YGL136C'
p10332
sS'AAC1'
p10333
S'YMR056C'
p10334
sS'MRM1'
p10335
S'YOR201C'
p10336
sS'ERG6'
p10337
S'YML008C'
p10338
sS'KAR3'
p10339
S'YPR141C'
p10340
sS'PAU11'
p10341
S'YGL261C'
p10342
sS'HED1'
p10343
S'YDR014W-A'
p10344
sS'FAS1'
p10345
S'YKL182W'
p10346
sS'CAK1'
p10347
S'YFL029C'
p10348
sS'BIO2'
p10349
S'YGR286C'
p10350
sS'BIO3'
p10351
S'YNR058W'
p10352
sS'CCS1'
p10353
S'YMR038C'
p10354
sS'BIO1'
p10355
S'YAR070W-A'
p10356
sS'YND1'
p10357
S'YER005W'
p10358
sS'BIO7'
p10359
S'YHR214W-G'
p10360
sS'SWT21'
p10361
S'YNL187W'
p10362
sS'SRO9'
p10363
S'YCL037C'
p10364
sS'SKY1'
p10365
S'YMR216C'
p10366
sS'GIM3'
p10367
S'YNL153C'
p10368
sS'BIO8'
p10369
S'YHR214W-F'
p10370
sS'ALG5'
p10371
S'YPL227C'
p10372
sS'CKB2'
p10373
S'YOR039W'
p10374
sS'ENA2'
p10375
S'YDR039C'
p10376
sS'FUR1'
p10377
S'YHR128W'
p10378
sS'AGP1'
p10379
S'YCL025C'
p10380
sS'VAC8'
p10381
S'YEL013W'
p10382
sS'AGP3'
p10383
S'YFL055W'
p10384
sS'IMD2'
p10385
S'YHR216W'
p10386
sS'FUR4'
p10387
S'YBR021W'
p10388
sS'KEX1'
p10389
S'YGL203C'
p10390
sS'KEX2'
p10391
S'YNL238W'
p10392
sS'KAR5'
p10393
S'YMR065W'
p10394
sS'STO1'
p10395
S'YMR125W'
p10396
sS'RBK1'
p10397
S'YCR036W'
p10398
sS'ALA1'
p10399
S'YOR335C'
p10400
sS'TED1'
p10401
S'YIL039W'
p10402
sS'FRK1'
p10403
S'YPL141C'
p10404
sS'NMA111'
p10405
S'YNL123W'
p10406
sS'UTP7'
p10407
S'YER082C'
p10408
sS'UTP6'
p10409
S'YDR449C'
p10410
sS'UTP5'
p10411
S'YDR398W'
p10412
sS'UTP4'
p10413
S'YDR324C'
p10414
sS'MCM22'
p10415
S'YJR135C'
p10416
sS'MCM21'
p10417
S'YDR318W'
p10418
sS'AAR2'
p10419
S'YBL074C'
p10420
sS'KAP104'
p10421
S'YBR017C'
p10422
sS'PTR2'
p10423
S'YKR093W'
p10424
sS'PTR3'
p10425
S'YFR029W'
p10426
sS'UTP9'
p10427
S'YHR196W'
p10428
sS'UTP8'
p10429
S'YGR128C'
p10430
sS'BLS1'
p10431
S'YLR408C'
p10432
sS'OPI10'
p10433
S'YOL032W'
p10434
sS'RPB10'
p10435
S'YOR210W'
p10436
sS'RPB11'
p10437
S'YOL005C'
p10438
sS'ELF1'
p10439
S'YKL160W'
p10440
sS'YFT2'
p10441
S'YDR319C'
p10442
sS'TIF11'
p10443
S'YMR260C'
p10444
sS'XBP1'
p10445
S'YIL101C'
p10446
sS'OPT2'
p10447
S'YPR194C'
p10448
sS'DAL5'
p10449
S'YJR152W'
p10450
sS'CSR2'
p10451
S'YPR030W'
p10452
sS'TUB4'
p10453
S'YLR212C'
p10454
sS'SNT2'
p10455
S'YGL131C'
p10456
sS'SNT1'
p10457
S'YCR033W'
p10458
sS'CMS1'
p10459
S'YLR003C'
p10460
sS'DOG2'
p10461
S'YHR043C'
p10462
sS'VMA10'
p10463
S'YHR039C-A'
p10464
sS'VMA11'
p10465
S'YPL234C'
p10466
sS'VMA16'
p10467
S'YHR026W'
p10468
sS'YMR31'
p10469
S'YFR049W'
p10470
sS'PZF1'
p10471
S'YPR186C'
p10472
sS'RNH70'
p10473
S'YGR276C'
p10474
sS'SVL3'
p10475
S'YPL032C'
p10476
sS'FES1'
p10477
S'YBR101C'
p10478
sS'RPO31'
p10479
S'YOR116C'
p10480
sS'TMA20'
p10481
S'YER007C-A'
p10482
sS'TMA23'
p10483
S'YMR269W'
p10484
sS'DOG1'
p10485
S'YHR044C'
p10486
sS'PEF1'
p10487
S'YGR058W'
p10488
sS'ARF3'
p10489
S'YOR094W'
p10490
sS'SSB1'
p10491
S'YDL229W'
p10492
sS'HSV2'
p10493
S'YGR223C'
p10494
sS'TOA1'
p10495
S'YOR194C'
p10496
sS'RPI1'
p10497
S'YIL119C'
p10498
sS'PCH2'
p10499
S'YBR186W'
p10500
sS'ORC6'
p10501
S'YHR118C'
p10502
sS'REX2'
p10503
S'YLR059C'
p10504
sS'ORC4'
p10505
S'YPR162C'
p10506
sS'ORC5'
p10507
S'YNL261W'
p10508
sS'ORC2'
p10509
S'YBR060C'
p10510
sS'LDH1'
p10511
S'YBR204C'
p10512
sS'LOT5'
p10513
S'YKL183W'
p10514
sS'ORC1'
p10515
S'YML065W'
p10516
sS'RPS24B'
p10517
S'YIL069C'
p10518
sS'THP2'
p10519
S'YHR167W'
p10520
sS'THP3'
p10521
S'YPR045C'
p10522
sS'FSH1'
p10523
S'YHR049W'
p10524
sS'HAP5'
p10525
S'YOR358W'
p10526
sS'FSH3'
p10527
S'YOR280C'
p10528
sS'FSH2'
p10529
S'YMR222C'
p10530
sS'SNF5'
p10531
S'YBR289W'
p10532
sS'SNF4'
p10533
S'YGL115W'
p10534
sS'LRG1'
p10535
S'YDL240W'
p10536
sS'SNF6'
p10537
S'YHL025W'
p10538
sS'PET9'
p10539
S'YBL030C'
p10540
sS'PET8'
p10541
S'YNL003C'
p10542
sS'FLO11'
p10543
S'YIR019C'
p10544
sS'FLO10'
p10545
S'YKR102W'
p10546
sS'KAR2'
p10547
S'YJL034W'
p10548
sS'XRS2'
p10549
S'YDR369C'
p10550
sS'KAR1'
p10551
S'YNL188W'
p10552
sS'GRS2'
p10553
S'YPR081C'
p10554
sS'KAR4'
p10555
S'YCL055W'
p10556
sS'GRS1'
p10557
S'YBR121C'
p10558
sS'KAR9'
p10559
S'YPL269W'
p10560
sS'CWH43'
p10561
S'YCR017C'
p10562
sS'DAL4'
p10563
S'YIR028W'
p10564
sS'DAL7'
p10565
S'YIR031C'
p10566
sS'DAL1'
p10567
S'YIR027C'
p10568
sS'SNR39B'
p10569
S'snR39B'
p10570
sS'DAL3'
p10571
S'YIR032C'
p10572
sS'DAL2'
p10573
S'YIR029W'
p10574
sS'TOM70'
p10575
S'YNL121C'
p10576
sS'NEW1'
p10577
S'YPL226W'
p10578
sS'MRP51'
p10579
S'YPL118W'
p10580
sS'RPL12B'
p10581
S'YDR418W'
p10582
sS'RPL12A'
p10583
S'YEL054C'
p10584
sS'UFE1'
p10585
S'YOR075W'
p10586
s.