(dp0
S'CTT'
p1
F0.10288808664259927
sS'ATG'
p2
F1.0
sS'AAG'
p3
F1.0
sS'AAA'
p4
F0.4684287812041116
sS'ATC'
p5
F0.7992424242424242
sS'AAC'
p6
F1.0
sS'ATA'
p7
F0.09659090909090907
sS'AGG'
p8
F0.07916666666666668
sS'CCT'
p9
F0.3118881118881119
sS'ACT'
p10
F1.0
sS'AGC'
p11
F0.09649122807017543
sS'ACA'
p12
F0.2800829875518672
sS'AGA'
p13
F1.0
sS'CAT'
p14
F0.7985611510791366
sS'AAT'
p15
F0.5015015015015015
sS'ATT'
p16
F1.0
sS'CTG'
p17
F0.06498194945848375
sS'CTA'
p18
F0.18772563176895304
sS'CTC'
p19
F0.027075812274368227
sS'CAC'
p20
F1.0
sS'ACG'
p21
F0.06846473029045644
sS'CAA'
p22
F1.0
sS'AGT'
p23
F0.16666666666666666
sS'CAG'
p24
F0.11482720178372352
sS'CCG'
p25
F0.025174825174825173
sS'CCC'
p26
F0.061538461538461535
sS'TAT'
p27
F0.5267175572519084
sS'GGT'
p28
F1.0
sS'TGT'
p29
F1.0
sS'CGA'
p30
F0.001388888888888889
sS'CCA'
p31
F1.0
sS'TCT'
p32
F1.0
sS'GAT'
p33
F1.0
sS'CGG'
p34
F0.002777777777777778
sS'TTT'
p35
F0.5748031496062992
sS'TGC'
p36
F0.1806375442739079
sS'GGG'
p37
F0.04106280193236715
sS'TAG'
p38
F0.17523056653491437
sS'GGA'
p39
F0.05555555555555556
sS'TAA'
p40
F1.0
sS'GGC'
p41
F0.10990338164251208
sS'TAC'
p42
F1.0
sS'GAG'
p43
F0.1574074074074074
sS'TCG'
p44
F0.07456140350877193
sS'TTA'
p45
F0.4223826714801444
sS'GAC'
p46
F0.8382352941176471
sS'TCC'
p47
F0.631578947368421
sS'GAA'
p48
F1.0
sS'TCA'
p49
F0.22587719298245612
sS'GCA'
p50
F0.19322033898305085
sS'GTA'
p51
F0.1048689138576779
sS'GCC'
p52
F0.45762711864406785
sS'GTC'
p53
F0.6310861423220974
sS'GCG'
p54
F0.04406779661016949
sS'GTG'
p55
F0.13670411985018724
sS'TTC'
p56
F1.0
sS'GTT'
p57
F1.0
sS'GCT'
p58
F1.0
sS'ACC'
p59
F0.7240663900414938
sS'TGA'
p60
F0.14229249011857706
sS'TTG'
p61
F1.0
sS'CGT'
p62
F0.2819444444444445
sS'TGG'
p63
F1.0
sS'CGC'
p64
F0.023611111111111114
s.