(dp0
S'YAL008W'
p1
F1920.0
sS'YBR255W'
p2
F396.0
sS'YGR164W'
p3
F0.0
sS'YGR131W'
p4
F0.0
sS'YNL003C'
p5
F521.0
sS'YBR135W'
p6
F8780.0
sS'YBR160W'
p7
F6670.0
sS'YJL082W'
p8
F4980.0
sS'YJL142C'
p9
F0.0
sS'YPL191C'
p10
F2050.0
sS'YGL215W'
p11
F0.0
sS'YKL074C'
p12
F4170.0
sS'YJL077C'
p13
F0.0
sS'YKL096W-A'
p14
F1590000.0
sS'YIL124W'
p15
F3670.0
sS'YPL039W'
p16
F0.0
sS'YNL170W'
p17
F0.0
sS'YKL048C'
p18
F149.0
sS'YJL179W'
p19
F721.0
sS'YKL083W'
p20
F0.0
sS'YBR152W'
p21
F2510.0
sS'YKL029C'
p22
F10500.0
sS'YPL166W'
p23
F752.0
sS'YKL052C'
p24
F2840.0
sS'YHR025W'
p25
F92600.0
sS'YOL034W'
p26
F892.0
sS'YBL008W'
p27
F846.0
sS'YIL062C'
p28
F3060.0
sS'YCL023C'
p29
F0.0
sS'YOL116W'
p30
F491.0
sS'YDR196C'
p31
F1660.0
sS'YBR280C'
p32
F0.0
sS'YNR032W'
p33
F1960.0
sS'YNR045W'
p34
F450.0
sS'YML105C'
p35
F0.0
sS'YNL288W'
p36
F18800.0
sS'YIL059C'
p37
F0.0
sS'YIL004C'
p38
F0.0
sS'YNR018W'
p39
F12000.0
sS'YPL144W'
p40
F2210.0
sS'YFR047C'
p41
F2660.0
sS'YHR078W'
p42
F0.0
sS'YJR115W'
p43
F0.0
sS'YLR355C'
p44
F883000.0
sS'YGR099W'
p45
F638.0
sS'YLR300W'
p46
F4280.0
sS'YCL028W'
p47
F1140.0
sS'YJR140C'
p48
F922.0
sS'YOR033C'
p49
F672.0
sS'YOR062C'
p50
F2010.0
sS'YBR043C'
p51
F279.0
sS'YHR112C'
p52
F1360.0
sS'YLR011W'
p53
F1270.0
sS'YIL044C'
p54
F5350.0
sS'YHR126C'
p55
F0.0
sS'YKR084C'
p56
F2750.0
sS'YER121W'
p57
F0.0
sS'YCR046C'
p58
F4150.0
sS'YKL204W'
p59
F3240.0
sS'YOR266W'
p60
F1460.0
sS'YDR393W'
p61
F279.0
sS'YGL171W'
p62
F0.0
sS'YPR194C'
p63
F0.0
sS'YGR019W'
p64
F573.0
sS'YBL033C'
p65
F9520.0
sS'YJL188C'
p66
F0.0
sS'YLL057C'
p67
F0.0
sS'YNL229C'
p68
F7060.0
sS'YNL277W'
p69
F2240.0
sS'YMR040W'
p70
F0.0
sS'YDR077W'
p71
F1630.0
sS'YMR266W'
p72
F0.0
sS'YKR064W'
p73
F149.0
sS'YPL089C'
p74
F736.0
sS'YGR277C'
p75
F3610.0
sS'YDL139C'
p76
F556.0
sS'YDR246W'
p77
F3130.0
sS'YOR288C'
p78
F830.0
sS'YDL240C-A'
p79
F0.0
sS'YCR028C'
p80
F0.0
sS'YML054C'
p81
F4590.0
sS'YLR179C'
p82
F6230.0
sS'YOR141C'
p83
F1010.0
sS'YPL280W'
p84
F0.0
sS'YBL106C'
p85
F0.0
sS'YGL044C'
p86
F6350.0
sS'YER107C'
p87
F1820.0
sS'YBR038W'
p88
F0.0
sS'YGR259C'
p89
F0.0
sS'YEL047C'
p90
F7620.0
sS'YKL093W'
p91
F0.0
sS'YPR016C'
p92
F18600.0
sS'YLR157C'
p93
F0.0
sS'YDL055C'
p94
F97100.0
sS'YML009C'
p95
F2480.0
sS'YML072C'
p96
F4280.0
sS'YDR142C'
p97
F589.0
sS'YFL044C'
p98
F2770.0
sS'YKL019W'
p99
F396.0
sS'YJL130C'
p100
F11000.0
sS'YBL085W'
p101
F1040.0
sS'YBR116C'
p102
F0.0
sS'YKL031W'
p103
F0.0
sS'YDR082W'
p104
F0.0
sS'YDR348C'
p105
F1480.0
sS'YKL182W'
p106
F91800.0
sS'YDR333C'
p107
F339.0
sS'YKL018C-A'
p108
F358.0
sS'YPL027W'
p109
F0.0
sS'YIR012W'
p110
F19700.0
sS'YLR363C'
p111
F6090.0
sS'YDR179C'
p112
F358.0
sS'YML089C'
p113
F0.0
sS'YLR431C'
p114
F538.0
sS'YKR046C'
p115
F2160.0
sS'YJR005W'
p116
F1670.0
sS'YJL116C'
p117
F0.0
sS'YER030W'
p118
F623.0
sS'YHR041C'
p119
F1720.0
sS'YJR072C'
p120
F15200.0
sS'YDR047W'
p121
F9220.0
sS'YKR039W'
p122
F0.0
sS'YGL003C'
p123
F0.0
sS'YPL009C'
p124
F7700.0
sS'YDR268W'
p125
F672.0
sS'YGL192W'
p126
F0.0
sS'YDL117W'
p127
F377.0
sS'YMR131C'
p128
F0.0
sS'YMR293C'
p129
F486.0
sS'YJL214W'
p130
F623.0
sS'YIL105C'
p131
F5190.0
sS'YML126C'
p132
F34800.0
sS'YLR189C'
p133
F396.0
sS'YIL150C'
p134
F1860.0
sS'YLR349W'
p135
F0.0
sS'YHL046C'
p136
F0.0
sS'YBR212W'
p137
F1540.0
sS'YJR109C'
p138
F18000.0
sS'YLR254C'
p139
F1540.0
sS'YGR085C'
p140
F21200.0
sS'YPL105C'
p141
F830.0
sS'YGR145W'
p142
F0.0
sS'YGR110W'
p143
F0.0
sS'YDR248C'
p144
F504.0
sS'YGL154C'
p145
F623.0
sS'YBR129C'
p146
F1560.0
sS'YDL215C'
p147
F7400.0
sS'YKL099C'
p148
F0.0
sS'YDR315C'
p149
F0.0
sS'YLR394W'
p150
F0.0
sS'YNL104C'
p151
F6630.0
sS'YNL151C'
p152
F0.0
sS'YNR066C'
p153
F0.0
sS'YLR220W'
p154
F2840.0
sS'YIL045W'
p155
F996.0
sS'YMR232W'
p156
F0.0
sS'YNL083W'
p157
F1170.0
sS'YER168C'
p158
F13500.0
sS'YPL265W'
p159
F432.0
sS'YOR227W'
p160
F195.0
sS'YOR081C'
p161
F358.0
sS'YEL026W'
p162
F0.0
sS'YGR050C'
p163
F0.0
sS'YDR021W'
p164
F3090.0
sS'YGL063W'
p165
F0.0
sS'YPL212C'
p166
F8130.0
sS'YOL157C'
p167
F0.0
sS'YOR345C'
p168
F0.0
sS'YPR095C'
p169
F279.0
sS'YOR310C'
p170
F34700.0
sS'YDR188W'
p171
F0.0
sS'YAL027W'
p172
F1170.0
sS'YGL236C'
p173
F0.0
sS'YHR133C'
p174
F1900.0
sS'YDR017C'
p175
F1940.0
sS'YIL090W'
p176
F606.0
sS'YBR183W'
p177
F0.0
sS'YOL048C'
p178
F0.0
sS'YCR007C'
p179
F0.0
sS'YDR540C'
p180
F172.0
sS'YEL004W'
p181
F0.0
sS'YPR057W'
p182
F1870.0
sS'YLL032C'
p183
F922.0
sS'YDR116C'
p184
F7010.0
sS'YDR299W'
p185
F15400.0
sS'YLR030W'
p186
F0.0
sS'YDR122W'
p187
F279.0
sS'YOL062C'
p188
F3410.0
sS'YNL234W'
p189
F195.0
sS'YLR467W'
p190
F0.0
sS'YJL194W'
p191
F0.0
sS'YOL015W'
p192
F0.0
sS'YDL070W'
p193
F2930.0
sS'YOR241W'
p194
F7080.0
sS'YLR056W'
p195
F36200.0
sS'YPR039W'
p196
F0.0
sS'YKL110C'
p197
F5260.0
sS'YNL255C'
p198
F96700.0
sS'YLR204W'
p199
F0.0
sS'YML097C'
p200
F4280.0
sS'YKR007W'
p201
F2740.0
sS'YDL096C'
p202
F0.0
sS'YHR193C'
p203
F38000.0
sS'YBL099W'
p204
F41500.0
sS'YNL305C'
p205
F0.0
sS'YMR023C'
p206
F768.0
sS'YOR119C'
p207
F0.0
sS'YNL187W'
p208
F0.0
sS'YMR141C'
p209
F0.0
sS'YLL014W'
p210
F0.0
sS'YCL045C'
p211
F2840.0
sS'YCR061W'
p212
F0.0
sS'YOR199W'
p213
F0.0
sS'YPR115W'
p214
F300.0
sS'YHR088W'
p215
F784.0
sS'YBR017C'
p216
F2130.0
sS'YPR162C'
p217
F2170.0
sS'YGR166W'
p218
F1660.0
sS'YDL161W'
p219
F0.0
sS'YKL050C'
p220
F0.0
sS'YJR055W'
p221
F2730.0
sS'YGL099W'
p222
F19400.0
sS'YFL030W'
p223
F339.0
sS'YIL119C'
p224
F1340.0
sS'YPL193W'
p225
F259.0
sS'YNL005C'
p226
F2290.0
sS'YGL217C'
p227
F0.0
sS'YJL144W'
p228
F149.0
sS'YLR379W'
p229
F0.0
sS'YJR139C'
p230
F48900.0
sS'YBR133C'
p231
F1180.0
sS'YBR162C'
p232
F12300.0
sS'YOR130C'
p233
F432.0
sS'YJL079C'
p234
F556.0
sS'YGL019W'
p235
F8120.0
sS'YGR201C'
p236
F0.0
sS'YNL172W'
p237
F178.0
sS'YNL058C'
p238
F0.0
sS'YPL160W'
p239
F158000.0
sS'YNL023C'
p240
F589.0
sS'YDR214W'
p241
F13900.0
sS'YIL126W'
p242
F1990.0
sS'YLR295C'
p243
F6140.0
sS'YHR168W'
p244
F189.0
sS'YOR064C'
p245
F861.0
sS'YOR159C'
p246
F556.0
sS'YOL081W'
p247
F0.0
sS'YOL036W'
p248
F0.0
sS'YGL148W'
p249
F2310.0
sS'YBR282W'
p250
F2250.0
sS'YDR194C'
p251
F10300.0
sS'YOL114C'
p252
F0.0
sS'YJR108W'
p253
F0.0
sS'YNR030W'
p254
F3550.0
sS'YML007C-A'
p255
F0.0
sS'YKL076C'
p256
F0.0
sS'YDR466W'
p257
F0.0
sS'YFR045W'
p258
F0.0
sS'YIL002C'
p259
F98.9
sS'YGR159C'
p260
F77400.0
sS'YLR369W'
p261
F5550.0
sS'YFR032C'
p262
F0.0
sS'YNL118C'
p263
F8530.0
sS'YGL228W'
p264
F8640.0
sS'YJR117W'
p265
F19600.0
sS'YLR357W'
p266
F2330.0
sS'YER127W'
p267
F1430.0
sS'YJR093C'
p268
F1310.0
sS'YLR017W'
p269
F4820.0
sS'YHR110W'
p270
F0.0
sS'YBR041W'
p271
F16900.0
sS'YOR394W'
p272
F0.0
sS'YPL078C'
p273
F12900.0
sS'YCR044C'
p274
F3050.0
sS'YDL039C'
p275
F0.0
sS'YKL202W'
p276
F0.0
sS'YGR122C-A'
p277
F0.0
sS'YOR264W'
p278
F922.0
sS'YBL029C-A'
p279
F996.0
sS'YGR184C'
p280
F0.0
sS'YOR366W'
p281
F0.0
sS'YNL275W'
p282
F195.0
sS'YAR015W'
p283
F4280.0
sS'YOR384W'
p284
F0.0
sS'YLL051C'
p285
F0.0
sS'YDR427W'
p286
F12400.0
sS'YLR079W'
p287
F768.0
sS'YLR408C'
p288
F468.0
sS'YMR093W'
p289
F358.0
sS'YMR042W'
p290
F0.0
sS'YDR079W'
p291
F468.0
sS'YMR268C'
p292
F672.0
sS'YOR169C'
p293
F0.0
sS'YML070W'
p294
F23600.0
sS'YPR072W'
p295
F5110.0
sS'YMR108W'
p296
F31900.0
sS'YCR091W'
p297
F0.0
sS'YER062C'
p298
F5000.0
sS'YDR244W'
p299
F2070.0
sS'YER189W'
p300
F0.0
sS'YJL009W'
p301
F0.0
sS'YDL137W'
p302
F25000.0
sS'YGR271W'
p303
F486.0
sS'YDR233C'
p304
F37100.0
sS'YGR071C'
p305
F1050.0
sS'YCR106W'
p306
F0.0
sS'YBL100C'
p307
F0.0
sS'YDR489W'
p308
F0.0
sS'YPL282C'
p309
F0.0
sS'YPR049C'
p310
F85.5
sS'YDL057W'
p311
F0.0
sS'YPR014C'
p312
F0.0
sS'YGR257C'
p313
F538.0
sS'YEL045C'
p314
F0.0
sS'YPL235W'
p315
F3030.0
sS'YLR122C'
p316
F0.0
sS'YLR155C'
p317
F0.0
sS'YBL087C'
p318
F0.0
sS'YJL132W'
p319
F0.0
sS'YGL190C'
p320
F8600.0
sS'YBR110W'
p321
F1890.0
sS'YDR144C'
p322
F538.0
sS'YFL046W'
p323
F0.0
sS'YOR103C'
p324
F0.0
sS'YKL137W'
p325
F259.0
sS'YDR447C'
p326
F30500.0
sS'YAL061W'
p327
F3090.0
sS'YNL324W'
p328
F0.0
sS'YPR145W'
p329
F0.0
sS'YJL063C'
p330
F3030.0
sS'YPL021W'
p331
F0.0
sS'YIR010W'
p332
F1310.0
sS'YDR331W'
p333
F1560.0
sS'YML056C'
p334
F2970.0
sS'YKR044W'
p335
F319.0
sS'YLR433C'
p336
F7040.0
sS'YMR068W'
p337
F1180.0
sS'YFL068W'
p338
F0.0
sS'YER032W'
p339
F0.0
sS'YJR070C'
p340
F39900.0
sS'YGL005C'
p341
F1360.0
sS'YHR043C'
p342
F2400.0
sS'YDL111C'
p343
F7110.0
sS'YMR133W'
p344
F0.0
sS'YPL007C'
p345
F2070.0
sS'YKL159C'
p346
F521.0
sS'YDR507C'
p347
F736.0
sS'YBR101C'
p348
F13100.0
sS'YLR396C'
p349
F830.0
sS'YBR245C'
p350
F1500.0
sS'YJL216C'
p351
F0.0
sS'YBR210W'
p352
F0.0
sS'YPL103C'
p353
F178.0
sS'YIL103W'
p354
F2530.0
sS'YIL152W'
p355
F0.0
sS'YJR096W'
p356
F6960.0
sS'YAL010C'
p357
F768.0
sS'YGR143W'
p358
F468.0
sS'YGR112W'
p359
F623.0
sS'YLR256W'
p360
F0.0
sS'YHR174W'
p361
F2610.0
sS'YOR012W'
p362
F0.0
sS'YIR001C'
p363
F6490.0
sS'YDL213C'
p364
F8970.0
sS'YDR317W'
p365
F0.0
sS'YDR478W'
p366
F172.0
sS'YKL097C'
p367
F0.0
sS'YNL106C'
p368
F0.0
sS'YOR378W'
p369
F0.0
sS'YFR015C'
p370
F6300.0
sS'YMR230W'
p371
F7650.0
sS'YIL092W'
p372
F105.0
sS'YLR321C'
p373
F3940.0
sS'YBR004C'
p374
F0.0
sS'YGR052W'
p375
F339.0
sS'YJR161C'
p376
F815.0
sS'YOR278W'
p377
F1360.0
sS'YNL085W'
p378
F3430.0
sS'YGL061C'
p379
F996.0
sS'YPL210C'
p380
F11800.0
sS'YOR087W'
p381
F1310.0
sS'YGL234W'
p382
F35800.0
sS'YOR347C'
p383
F2130.0
sS'YPR093C'
p384
F0.0
sS'YAL029C'
p385
F2210.0
sS'YOL155C'
p386
F0.0
sS'YDR421W'
p387
F319.0
sS'YGR186W'
p388
F1920.0
sS'YDR294C'
p389
F13100.0
sS'YHR135C'
p390
F1630.0
sS'YDR015C'
p391
F0.0
sS'YBR181C'
p392
F38800.0
sS'YOR078W'
p393
F2120.0
sS'YOR243C'
p394
F4150.0
sS'YMR165C'
p395
F3910.0
sS'YCR005C'
p396
F2310.0
sS'YGR296W'
p397
F0.0
sS'YPR055W'
p398
F0.0
sS'YIL016W'
p399
F3350.0
sS'YLR032W'
p400
F1520.0
sS'YDR114C'
p401
F0.0
sS'YLL030C'
p402
F0.0
sS'YDL185C-A'
p403
F0.0
sS'YLL065W'
p404
F0.0
sS'YPR046W'
p405
F279.0
sS'YBR099C'
p406
F0.0
sS'YBL027W'
p407
F225000.0
sS'YOL060C'
p408
F5890.0
sS'YNL208W'
p409
F0.0
sS'YNL232W'
p410
F5550.0
sS'YDL076C'
p411
F3060.0
sS'YOR225W'
p412
F0.0
sS'YDR120C'
p413
F15500.0
sS'YLR465C'
p414
F0.0
sS'YJL192C'
p415
F11700.0
sS'YLR054C'
p416
F0.0
sS'YLR009W'
p417
F0.0
sS'YKL116C'
p418
F1510.0
sS'YOR352W'
p419
F3510.0
sS'YGR238C'
p420
F468.0
sS'YLR423C'
p421
F358.0
sS'YDR278C'
p422
F0.0
sS'YLR105C'
p423
F319.0
sS'YML091C'
p424
F1160.0
sS'YHR191C'
p425
F0.0
sS'YDL098C'
p426
F907.0
sS'YLR202C'
p427
F0.0
sS'YKR005C'
p428
F0.0
sS'YMR143W'
p429
F33800.0
sS'YCR063W'
p430
F1900.0
sS'YNL189W'
p431
F2790.0
sS'YCL047C'
p432
F830.0
sS'YGL122C'
p433
F9670.0
sS'YDL018C'
p434
F3190.0
sS'YNL303W'
p435
F0.0
sS'YPR160W'
p436
F0.0
sS'YBL060W'
p437
F0.0
sS'YBR019C'
p438
F0.0
sS'YKL056C'
p439
F27800.0
sS'YGR160W'
p440
F0.0
sS'YDL163W'
p441
F0.0
sS'YPL068C'
p442
F0.0
sS'YJR057W'
p443
F2980.0
sS'YGL211W'
p444
F0.0
sS'YFL032W'
p445
F0.0
sS'YLR377C'
p446
F589.0
sS'YBL063W'
p447
F56.9
sS'YAL059W'
p448
F2840.0
sS'YNL007C'
p449
F20300.0
sS'YPL148C'
p450
F486.0
sS'YJR137C'
p451
F2900.0
sS'YMR021C'
p452
F14800.0
sS'YMR074C'
p453
F2550.0
sS'YGR203W'
p454
F2310.0
sS'YJR039W'
p455
F0.0
sS'YDL158C'
p456
F0.0
sS'YOR104W'
p457
F996.0
sS'YFL009W'
p458
F0.0
sS'YLR297W'
p459
F922.0
sS'YLR279W'
p460
F0.0
sS'YDR216W'
p461
F0.0
sS'YIL120W'
p462
F0.0
sS'YNL021W'
p463
F3050.0
sS'YGR095C'
p464
F10800.0
sS'YCL027W'
p465
F0.0
sS'YHR029C'
p466
F0.0
sS'YAL033W'
p467
F2230.0
sS'YBR284W'
p468
F0.0
sS'YNR036C'
p469
F238.0
sS'YNR049C'
p470
F1380.0
sS'YDR192C'
p471
F0.0
sS'YOL112W'
p472
F1730.0
sS'YML109W'
p473
F105.0
sS'YOL083W'
p474
F0.0
sS'YNL251C'
p475
F19600.0
sS'YBR266C'
p476
F339.0
sS'YBL004W'
p477
F0.0
sS'YBR164C'
p478
F5190.0
sS'YHR074W'
p479
F172.0
sS'YDR464W'
p480
F0.0
sS'YFR030W'
p481
F1580.0
sS'YBR131W'
p482
F2870.0
sS'YKL078W'
p483
F721.0
sS'YIL055C'
p484
F0.0
sS'YPL053C'
p485
F4380.0
sS'YLR351C'
p486
F4510.0
sS'YNR014W'
p487
F2360.0
sS'YER125W'
p488
F0.0
sS'YER152C'
p489
F1390.0
sS'YLR015W'
p490
F1310.0
sS'YHR116W'
p491
F1360.0
sS'YPL259C'
p492
F4420.0
sS'YGR093W'
p493
F1270.0
sS'YDL037C'
p494
F0.0
sS'YLR334C'
p495
F0.0
sS'YHL043W'
p496
F0.0
sS'YOR364W'
p497
F0.0
sS'YOR386W'
p498
F688.0
sS'YAR042W'
p499
F0.0
sS'YPR198W'
p500
F0.0
sS'YHL038C'
p501
F1360.0
sS'YLL053C'
p502
F0.0
sS'YDR425W'
p503
F1800.0
sS'YOR331C'
p504
F0.0
sS'YML076C'
p505
F907.0
sS'YKR060W'
p506
F3060.0
sS'YER069W'
p507
F1180.0
sS'YMR091C'
p508
F3510.0
sS'YER012W'
p509
F21800.0
sS'YHR098C'
p510
F12200.0
sS'YDL135C'
p511
F1670.0
sS'YCR093W'
p512
F4300.0
sS'YGR273C'
p513
F0.0
sS'YBR069C'
p514
F504.0
sS'YMR251W'
p515
F0.0
sS'YCR104W'
p516
F0.0
sS'YDR512C'
p517
F0.0
sS'YPR012W'
p518
F0.0
sS'YGR255C'
p519
F2940.0
sS'YDL051W'
p520
F0.0
sS'YBL102W'
p521
F279.0
sS'YGR073C'
p522
F0.0
sS'YLR120C'
p523
F5440.0
sS'YCL001W-B'
p524
F0.0
sS'YEL043W'
p525
F149.0
sS'YNL068C'
p526
F656.0
sS'YJL169W'
p527
F0.0
sS'YJR080C'
p528
F2290.0
sS'YDR146C'
p529
F688.0
sS'YBR112C'
p530
F3890.0
sS'YBL081W'
p531
F0.0
sS'YFL040W'
p532
F0.0
sS'YNL326C'
p533
F2130.0
sS'YDR337W'
p534
F6960.0
sS'YJL061W'
p535
F9470.0
sS'YPR147C'
p536
F2010.0
sS'YKL131W'
p537
F0.0
sS'YDR441C'
p538
F937.0
sS'YPL094C'
p539
F16500.0
sS'YOR101W'
p540
F2050.0
sS'YOR314W-A'
p541
F0.0
sS'YDR231C'
p542
F0.0
sS'YJL112W'
p543
F3730.0
sS'YFL066C'
p544
F0.0
sS'YNL193W'
p545
F0.0
sS'YML058W'
p546
F18800.0
sS'YBR188C'
p547
F1430.0
sS'YLR435W'
p548
F13400.0
sS'YJR076C'
p549
F9280.0
sS'YKL157W'
p550
F2910.0
sS'YBR003W'
p551
F1560.0
sS'YPR129W'
p552
F1280.0
sS'YDL113C'
p553
F358.0
sS'YMR135C'
p554
F639.0
sS'YGL007W'
p555
F0.0
sS'YPL005W'
p556
F1760.0
sS'YBR247C'
p557
F21600.0
sS'YLR185W'
p558
F21800.0
sS'YJL210W'
p559
F339.0
sS'YLR398C'
p560
F5770.0
sS'YIL154C'
p561
F5110.0
sS'YIL101C'
p562
F195.0
sS'YKL004W'
p563
F4170.0
sS'YOR208W'
p564
F149.0
sS'YPL154C'
p565
F0.0
sS'YPL101W'
p566
F358.0
sS'YLR258W'
p567
F14600.0
sS'YBR178W'
p568
F0.0
sS'YJR098C'
p569
F1230.0
sS'YHR176W'
p570
F0.0
sS'YJR018W'
p571
F0.0
sS'YMR326C'
p572
F0.0
sS'YDL244W'
p573
F0.0
sS'YDR319C'
p574
F0.0
sS'YKL095W'
p575
F2250.0
sS'YOL099C'
p576
F0.0
sS'YIL094C'
p577
F19100.0
sS'YLR451W'
p578
F125.0
sS'YFR017C'
p579
F639.0
sS'YHR017W'
p580
F0.0
sS'YNR077C'
p581
F0.0
sS'YOL044W'
p582
F1070.0
sS'YLR323C'
p583
F996.0
sS'YOR085W'
p584
F4030.0
sS'YGL067W'
p585
F846.0
sS'YOR050C'
p586
F0.0
sS'YNL087W'
p587
F2630.0
sS'YGR114C'
p588
F0.0
sS'YLR318W'
p589
F0.0
sS'YBR278W'
p590
F784.0
sS'YDR296W'
p591
F2610.0
sS'YGL232W'
p592
F2630.0
sS'YPR091C'
p593
F861.0
sS'YGR141W'
p594
F623.0
sS'YAR030C'
p595
F0.0
sS'YJR158W'
p596
F0.0
sS'YHR137W'
p597
F7700.0
sS'YBR187W'
p598
F2170.0
sS'YMR198W'
p599
F98.9
sS'YCR003W'
p600
F1690.0
sS'YMR316C-B'
p601
F0.0
sS'YMR316C-A'
p602
F0.0
sS'YDR342C'
p603
F7350.0
sS'YMR163C'
p604
F736.0
sS'YGR294W'
p605
F0.0
sS'YEL008W'
p606
F0.0
sS'YLL067C'
p607
F0.0
sS'YBR020W'
p608
F0.0
sS'YLR418C'
p609
F538.0
sS'YDR112W'
p610
F0.0
sS'YER059W'
p611
F1240.0
sS'YPL153C'
p612
F6900.0
sS'YBL025W'
p613
F0.0
sS'YOL066C'
p614
F1540.0
sS'YDR126W'
p615
F0.0
sS'YGL167C'
p616
F6900.0
sS'YOR223W'
p617
F0.0
sS'YEL022W'
p618
F7700.0
sS'YHR072W'
p619
F2190.0
sS'YDL074C'
p620
F2980.0
sS'YLR463C'
p621
F0.0
sS'YJL190C'
p622
F40400.0
sS'YMR218C'
p623
F432.0
sS'YNL265C'
p624
F4760.0
sS'YNL230C'
p625
F815.0
sS'YLL049W'
p626
F0.0
sS'YHR211W'
p627
F0.0
sS'YPR166C'
p628
F0.0
sS'YJL042W'
p629
F279.0
sS'YNL301C'
p630
F63700.0
sS'YDR445C'
p631
F0.0
sS'YMR058W'
p632
F1050.0
sS'YDR061W'
p633
F1580.0
sS'YOR290C'
p634
F217.0
sS'YKL114C'
p635
F7250.0
sS'YML024W'
p636
F30900.0
sS'YML093W'
p637
F1470.0
sS'YHR197W'
p638
F7820.0
sS'YDR276C'
p639
F0.0
sS'YLR200W'
p640
F784.0
sS'YKR003W'
p641
F2550.0
sS'YLR107W'
p642
F0.0
sS'YMR321C'
p643
F0.0
sS'YER175C'
p644
F937.0
sS'YKL135C'
p645
F2690.0
sS'YDL183C'
p646
F0.0
sS'YPL278C'
p647
F0.0
sS'YMR118C'
p648
F0.0
sS'YCL049C'
p649
F656.0
sS'YBL066C'
p650
F0.0
sS'YGL107C'
p651
F4800.0
sS'YGR271C-A'
p652
F2840.0
sS'YDR169C'
p653
F639.0
sS'YOR057W'
p654
F1340.0
sS'YLR169W'
p655
F0.0
sS'YMR272C'
p656
F3290.0
sS'YPR108W'
p657
F51900.0
sS'YKL054C'
p658
F3380.0
sS'YGR162W'
p659
F9760.0
sS'YDL165W'
p660
F2120.0
sS'YDR032C'
p661
F2330.0
sS'YKL023W'
p662
F1730.0
sS'YJR051W'
p663
F432.0
sS'YNL009W'
p664
F0.0
sS'YFL034W'
p665
F1110.0
sS'YJR135C'
p666
F1030.0
sS'YGL213C'
p667
F1710.0
sS'YMR076C'
p668
F7720.0
sS'YGR205W'
p669
F4280.0
sS'YJR037W'
p670
F0.0
sS'YNL027W'
p671
F1160.0
sS'YLR291C'
p672
F6650.0
sS'YDR210W'
p673
F13100.0
sS'YIL122W'
p674
F736.0
sS'YDL230W'
p675
F2690.0
sS'YJR113C'
p676
F1340.0
sS'YGL075C'
p677
F0.0
sS'YIR026C'
p678
F7570.0
sS'YLR416C'
p679
F0.0
sS'YGR097W'
p680
F0.0
sS'YIL068C'
p681
F1080.0
sS'YCL025C'
p682
F21100.0
sS'YNR034W'
p683
F1970.0
sS'YOL085C'
p684
F0.0
sS'YNL282W'
p685
F1360.0
sS'YBR286W'
p686
F4740.0
sS'YGL144C'
p687
F0.0
sS'YDR190C'
p688
F11600.0
sS'YAL031C'
p689
F227.0
sS'YBL006C'
p690
F0.0
sS'YGR108W'
p691
F300.0
sS'YBR264C'
p692
F1360.0
sS'YBR231C'
p693
F1680.0
sS'YPL197C'
p694
F0.0
sS'YHR076W'
p695
F0.0
sS'YDR462W'
p696
F6280.0
sS'YJL148W'
p697
F3360.0
sS'YIL057C'
p698
F5530.0
sS'YPL055C'
p699
F2060.0
sS'YLR353W'
p700
F0.0
sS'YIL148W'
p701
F11800.0
sS'YNR016C'
p702
F20200.0
sS'YFR036W'
p703
F0.0
sS'YHR114W'
p704
F5440.0
sS'YGL079W'
p705
F1630.0
sS'YER150W'
p706
F0.0
sS'YNL279W'
p707
F0.0
sS'YCL034W'
p708
F0.0
sS'YDL068W'
p709
F0.0
sS'YOL027C'
p710
F7390.0
sS'YPL257W'
p711
F0.0
sS'YPL120W'
p712
F2490.0
sS'YOL145C'
p713
F12900.0
sS'YJL099W'
p714
F1180.0
sS'YHR149C'
p715
F1550.0
sS'YOL110W'
p716
F937.0
sS'YDR005C'
p717
F1720.0
sS'YMR311C'
p718
F3440.0
sS'YHL041W'
p719
F0.0
sS'YBL039C'
p720
F57600.0
sS'YGR188C'
p721
F414.0
sS'YOR362C'
p722
F12000.0
sS'YLR126C'
p723
F1510.0
sS'YDL053C'
p724
F1560.0
sS'YML074C'
p725
F9490.0
sS'YKR062W'
p726
F1150.0
sS'YBR235W'
p727
F0.0
sS'YER010C'
p728
F846.0
sS'YML003W'
p729
F0.0
sS'YMR097C'
p730
F1630.0
sS'YDL133W'
p731
F0.0
sS'YOR131C'
p732
F396.0
sS'YGR228W'
p733
F0.0
sS'YHR096C'
p734
F0.0
sS'YDL035C'
p735
F0.0
sS'YMR253C'
p736
F0.0
sS'YCR102C'
p737
F0.0
sS'YOR257W'
p738
F0.0
sS'YGR002C'
p739
F2230.0
sS'YEL041W'
p740
F300.0
sS'YGR075C'
p741
F2380.0
sS'YGR253C'
p742
F17100.0
sS'YDR510W'
p743
F2940.0
sS'YEL014C'
p744
F0.0
sS'YPL050C'
p745
F1630.0
sS'YMR166C'
p746
F2060.0
sS'YPR045C'
p747
F3360.0
sS'YPR010C'
p748
F14100.0
sS'YPL231W'
p749
F17000.0
sS'YLR148W'
p750
F2020.0
sS'YMR137C'
p751
F259.0
sS'YDL082W'
p752
F133000.0
sS'YKL155C'
p753
F1900.0
sS'YBR162W-A'
p754
F846.0
sS'YFL042C'
p755
F0.0
sS'YBL083C'
p756
F0.0
sS'YDR148C'
p757
F7970.0
sS'YPL096W'
p758
F4850.0
sS'YDR335W'
p759
F3500.0
sS'YPR141C'
p760
F3250.0
sS'YJL067W'
p761
F0.0
sS'YMR039C'
p762
F7820.0
sS'YNL320W'
p763
F259.0
sS'YDR443C'
p764
F0.0
sS'YCR095C'
p765
F5370.0
sS'YLL011W'
p766
F6620.0
sS'YCR077C'
p767
F656.0
sS'YLR437C'
p768
F0.0
sS'YFL064C'
p769
F0.0
sS'YNL191W'
p770
F7300.0
sS'YDR237W'
p771
F0.0
sS'YJL110C'
p772
F319.0
sS'YKR048C'
p773
F8070.0
sS'YBR001C'
p774
F2500.0
sS'YPL003W'
p775
F0.0
sS'YKL108W'
p776
F656.0
sS'YJR094C'
p777
F0.0
sS'YJR074W'
p778
F2840.0
sS'YPR127W'
p779
F2190.0
sS'YIR028W'
p780
F0.0
sS'YAL012W'
p781
F38300.0
sS'YMR288W'
p782
F521.0
sS'YIL156W'
p783
F606.0
sS'YBR241C'
p784
F0.0
sS'YJL212C'
p785
F2870.0
sS'YPL156C'
p786
F0.0
sS'YOR153W'
p787
F42000.0
sS'YLR187W'
p788
F0.0
sS'YDR099W'
p789
F47600.0
sS'YKL133C'
p790
F0.0
sS'YKL188C'
p791
F0.0
sS'YHR170W'
p792
F11900.0
sS'YDR259C'
p793
F1350.0
sS'YDR177W'
p794
F8940.0
sS'YKL068W'
p795
F358.0
sS'YOR032C'
p796
F0.0
sS'YMR075C-A'
p797
F0.0
sS'YMR002W'
p798
F6960.0
sS'YLR261C'
p799
F0.0
sS'YDL246C'
p800
F0.0
sS'YER081W'
p801
F7670.0
sS'YPL178W'
p802
F6200.0
sS'YMR172C-A'
p803
F0.0
sS'YPR202W'
p804
F0.0
sS'YIL096C'
p805
F2960.0
sS'YOL046C'
p806
F1780.0
sS'YFR011C'
p807
F3550.0
sS'YIL074C'
p808
F2010.0
sS'YHL008C'
p809
F0.0
sS'YLR457C'
p810
F339.0
sS'YNL249C'
p811
F1050.0
sS'YGR056W'
p812
F259.0
sS'YGL065C'
p813
F1840.0
sS'YOR052C'
p814
F9520.0
sS'YBR012C'
p815
F0.0
sS'YGR116W'
p816
F8890.0
sS'YOR343C'
p817
F0.0
sS'YGL230C'
p818
F0.0
sS'YOL159C'
p819
F0.0
sS'YBR185C'
p820
F2720.0
sS'YOR010C'
p821
F0.0
sS'YDR290W'
p822
F0.0
sS'YDR019C'
p823
F4090.0
sS'YBR150C'
p824
F573.0
sS'YER119C'
p825
F0.0
sS'YMR196W'
p826
F2220.0
sS'YMR161W'
p827
F1840.0
sS'YDR499W'
p828
F606.0
sS'YCR054C'
p829
F8970.0
sS'YMR322C'
p830
F0.0
sS'YLL061W'
p831
F0.0
sS'YDR110W'
p832
F1510.0
sS'YDR419W'
p833
F1860.0
sS'YOR221C'
p834
F1360.0
sS'YPL214C'
p835
F0.0
sS'YBL108C-A'
p836
F0.0
sS'YGL165C'
p837
F0.0
sS'YOL064C'
p838
F7330.0
sS'YBL023C'
p839
F1690.0
sS'YOR274W'
p840
F2020.0
sS'YHR213W'
p841
F0.0
sS'YOR329C'
p842
F704.0
sS'YLR005W'
p843
F2340.0
sS'YDR124W'
p844
F3510.0
sS'YNL267W'
p845
F1600.0
sS'YJL143W'
p846
F1210.0
sS'YLL047W'
p847
F0.0
sS'YLR461W'
p848
F0.0
sS'YLR050C'
p849
F358.0
sS'YOR124C'
p850
F2420.0
sS'YDR067C'
p851
F0.0
sS'YMR056C'
p852
F0.0
sS'YJL044C'
p853
F2990.0
sS'YPR164W'
p854
F0.0
sS'YEL060C'
p855
F1600.0
sS'YDR274C'
p856
F0.0
sS'YLR101C'
p857
F0.0
sS'YML026C'
p858
F112000.0
sS'YPR066W'
p859
F752.0
sS'YDR229W'
p860
F2840.0
sS'YDL181W'
p861
F981.0
sS'YBR022W'
p862
F1170.0
sS'YER177W'
p863
F158000.0
sS'YML048W'
p864
F21400.0
sS'YBL064C'
p865
F4510.0
sS'YHR006W'
p866
F6490.0
sS'YKL221W'
p867
F0.0
sS'YGL126W'
p868
F538.0
sS'YLR167W'
p869
F0.0
sS'YMR270C'
p870
F0.0
sS'YLR293C'
p871
F0.0
sS'YLR228C'
p872
F78.6
sS'YJR053W'
p873
F1380.0
sS'YJL171C'
p874
F5530.0
sS'YPL031C'
p875
F6160.0
sS'YKL021C'
p876
F3730.0
sS'YDL167C'
p877
F3570.0
sS'YLR388W'
p878
F6490.0
sS'YLR373C'
p879
F2950.0
sS'YJR035W'
p880
F0.0
sS'YKR054C'
p881
F195.0
sS'YIR034C'
p882
F112000.0
sS'YGL013C'
p883
F1300.0
sS'YJR068W'
p884
F4610.0
sS'YGR207C'
p885
F2400.0
sS'YDR212W'
p886
F0.0
sS'YDR321W'
p887
F0.0
sS'YNL052W'
p888
F3670.0
sS'YGL188C'
p889
F0.0
sS'YNL025C'
p890
F0.0
sS'YGR091W'
p891
F1260.0
sS'YDL232W'
p892
F2430.0
sS'YPL119C'
p893
F1480.0
sS'YLR242C'
p894
F0.0
sS'YMR031W-A'
p895
F0.0
sS'YJR148W'
p896
F25900.0
sS'YEL010W'
p897
F0.0
sS'YMR195W'
p898
F4050.0
sS'YOL087C'
p899
F589.0
sS'YNL134C'
p900
F3490.0
sS'YAL037W'
p901
F0.0
sS'YGL146C'
p902
F0.0
sS'YCR051W'
p903
F784.0
sS'YBR262C'
p904
F2550.0
sS'YPL199C'
p905
F2130.0
sS'YML101C-A'
p906
F0.0
sS'YFL036W'
p907
F0.0
sS'YJR133W'
p908
F721.0
sS'YIL051C'
p909
F168000.0
sS'YPL057C'
p910
F0.0
sS'YNR010W'
p911
F1360.0
sS'YDR365C'
p912
F656.0
sS'YLR308W'
p913
F0.0
sS'YNL169C'
p914
F1080.0
sS'YFR034C'
p915
F0.0
sS'YHR070W'
p916
F4120.0
sS'YDR460W'
p917
F3050.0
sS'YNL112W'
p918
F33100.0
sS'YHL047C'
p919
F0.0
sS'YOR360C'
p920
F6510.0
sS'YOR335C'
p921
F33800.0
sS'YGL251C'
p922
F0.0
sS'YER156C'
p923
F6080.0
sS'YPL255W'
p924
F922.0
sS'YOR095C'
p925
F5680.0
sS'YEL038W'
p926
F2850.0
sS'YDR392W'
p927
F1710.0
sS'YOL025W'
p928
F195.0
sS'YPL208W'
p929
F4800.0
sS'YOL147C'
p930
F1630.0
sS'YNL280C'
p931
F1600.0
sS'YDR007W'
p932
F1850.0
sS'YIL160C'
p933
F0.0
sS'YPR089W'
p934
F0.0
sS'YBR233W'
p935
F1590.0
sS'YPL122C'
p936
F8900.0
sS'YKL104C'
p937
F14300.0
sS'YMR313C'
p938
F3210.0
sS'YGL179C'
p939
F0.0
sS'YGR120C'
p940
F3270.0
sS'YML001W'
p941
F5530.0
sS'YLL028W'
p942
F1470.0
sS'YER016W'
p943
F3630.0
sS'YDR438W'
p944
F0.0
sS'YNL211C'
p945
F0.0
sS'YLR124W'
p946
F0.0
sS'YML058W-A'
p947
F0.0
sS'YLR026C'
p948
F300.0
sS'YKR051W'
p949
F0.0
sS'YHR094C'
p950
F23300.0
sS'YMR095C'
p951
F0.0
sS'YDL033C'
p952
F1510.0
sS'YMR255W'
p953
F2730.0
sS'YHR209W'
p954
F4380.0
sS'YGL247W'
p955
F125.0
sS'YCR100C'
p956
F0.0
sS'YDR516C'
p957
F10600.0
sS'YPL233W'
p958
F3710.0
sS'YOR255W'
p959
F0.0
sS'YOR063W'
p960
F450.0
sS'YOR200W'
p961
F0.0
sS'YGR251W'
p962
F1460.0
sS'YPR047W'
p963
F1800.0
sS'YDR044W'
p964
F22000.0
sS'YEL016C'
p965
F0.0
sS'YOL128C'
p966
F0.0
sS'YPL215W'
p967
F14200.0
sS'YKL153W'
p968
F0.0
sS'YFL019C'
p969
F0.0
sS'YMR139W'
p970
F6990.0
sS'YNL296W'
p971
F0.0
sS'YOR172W'
p972
F125.0
sS'YOR105W'
p973
F3670.0
sS'YDR541C'
p974
F0.0
sS'YPR143W'
p975
F6200.0
sS'YDR340W'
p976
F0.0
sS'YNL322C'
p977
F623.0
sS'YPL090C'
p978
F66000.0
sS'YPR078C'
p979
F0.0
sS'YBL058W'
p980
F3200.0
sS'YFL062W'
p981
F0.0
sS'YNL197C'
p982
F5730.0
sS'YLR439W'
p983
F7700.0
sS'YCR020C'
p984
F195.0
sS'YCL051W'
p985
F0.0
sS'YCR097W'
p986
F0.0
sS'YDR235W'
p987
F1730.0
sS'YER038C'
p988
F0.0
sS'YPR125W'
p989
F11300.0
sS'YHR049W'
p990
F14600.0
sS'YBR007C'
p991
F377.0
sS'YPL001W'
p992
F0.0
sS'YJL038C'
p993
F0.0
sS'YNL319W'
p994
F0.0
sS'YPR178W'
p995
F1770.0
sS'YDR475C'
p996
F0.0
sS'YNL159C'
p997
F0.0
sS'YAL014C'
p998
F0.0
sS'YCR020W-B'
p999
F3550.0
sS'YBR243C'
p1000
F0.0
sS'YLR181C'
p1001
F4400.0
sS'YBL056W'
p1002
F19700.0
sS'YNL075W'
p1003
F0.0
sS'YPL150W'
p1004
F0.0
sS'YJL012C'
p1005
F0.0
sS'YJL065C'
p1006
F3390.0
sS'YKR020W'
p1007
F319.0
sS'YMR053C'
p1008
F0.0
sS'YKL066W'
p1009
F0.0
sS'YMR004W'
p1010
F2210.0
sS'YER083C'
p1011
F0.0
sS'YPL176C'
p1012
F396.0
sS'YHR172W'
p1013
F2230.0
sS'YKL091C'
p1014
F2870.0
sS'YDL240W'
p1015
F468.0
sS'YDR401W'
p1016
F0.0
sS'YFR013W'
p1017
F1770.0
sS'YHR013C'
p1018
F3310.0
sS'YOL040C'
p1019
F0.0
sS'YGL045W'
p1020
F784.0
sS'YCL035C'
p1021
F3030.0
sS'YIL023C'
p1022
F0.0
sS'YNR073C'
p1023
F0.0
sS'YPR200C'
p1024
F0.0
sS'YIL072W'
p1025
F0.0
sS'YLR327C'
p1026
F504.0
sS'YBR229C'
p1027
F238.0
sS'YML133C'
p1028
F0.0
sS'YLR455W'
p1029
F2610.0
sS'YNL247W'
p1030
F23000.0
sS'YOR054C'
p1031
F0.0
sS'YOR121C'
p1032
F0.0
sS'YFR028C'
p1033
F8550.0
sS'YGR290W'
p1034
F0.0
sS'YOR009W'
p1035
F0.0
sS'YOR072W'
p1036
F0.0
sS'YDR292C'
p1037
F2000.0
sS'YKR103W'
p1038
F0.0
sS'YMR194W'
p1039
F31600.0
sS'YMR167W'
p1040
F319.0
sS'YOR249C'
p1041
F259.0
sS'YER117W'
p1042
F0.0
sS'YOR301W'
p1043
F0.0
sS'YPL187W'
p1044
F0.0
sS'YKL218C'
p1045
F0.0
sS'YBL107C'
p1046
F768.0
sS'YLL063C'
p1047
F0.0
sS'YAR070C'
p1048
F0.0
sS'YOR276W'
p1049
F26900.0
sS'YMR309C'
p1050
F78900.0
sS'YOR089C'
p1051
F8760.0
sS'YMR180C'
p1052
F0.0
sS'YGL163C'
p1053
F0.0
sS'YDR417C'
p1054
F0.0
sS'YOL131W'
p1055
F0.0
sS'YPL283C'
p1056
F0.0
sS'YBL021C'
p1057
F2510.0
sS'YHR215W'
p1058
F3290.0
sS'YLL045C'
p1059
F80200.0
sS'YOR209C'
p1060
F32100.0
sS'YLR007W'
p1061
F0.0
sS'YNL261W'
p1062
F768.0
sS'YMR054W'
p1063
F1080.0
sS'YDR065W'
p1064
F1670.0
sS'YOR126C'
p1065
F0.0
sS'YJL046W'
p1066
F0.0
sS'YKR078W'
p1067
F1270.0
sS'YOR191W'
p1068
F0.0
sS'YDR272W'
p1069
F13700.0
sS'YGR289C'
p1070
F0.0
sS'YML020W'
p1071
F377.0
sS'YLR103C'
p1072
F1730.0
sS'YOR294W'
p1073
F0.0
sS'YEL062W'
p1074
F319.0
sS'YPR064W'
p1075
F0.0
sS'YPR031W'
p1076
F172.0
sS'YLR038C'
p1077
F1390.0
sS'YNL096C'
p1078
F43500.0
sS'YDR038C'
p1079
F606.0
sS'YDL187C'
p1080
F0.0
sS'YBR024W'
p1081
F1480.0
sS'YER171W'
p1082
F14400.0
sS'YDL047W'
p1083
F3970.0
sS'YML046W'
p1084
F4460.0
sS'YGL124C'
p1085
F0.0
sS'YDR107C'
p1086
F0.0
sS'YMR276W'
p1087
F3930.0
sS'YEL059W'
p1088
F0.0
sS'YMR149W'
p1089
F8450.0
sS'YLR165C'
p1090
F0.0
sS'YCR069W'
p1091
F0.0
sS'YKL223W'
p1092
F0.0
sS'YLR138W'
p1093
F1480.0
sS'YKL027W'
p1094
F1170.0
sS'YJL173C'
p1095
F4280.0
sS'YDR152W'
p1096
F10300.0
sS'YKL127W'
p1097
F9820.0
sS'YDR309C'
p1098
F1130.0
sS'YLR386W'
p1099
F12400.0
sS'YLR371W'
p1100
F0.0
sS'YDL169C'
p1101
F0.0
sS'YLR092W'
p1102
F0.0
sS'YER044C'
p1103
F377.0
sS'YMR072W'
p1104
F3810.0
sS'YJR033C'
p1105
F149.0
sS'YKR056W'
p1106
F0.0
sS'YGL011C'
p1107
F15200.0
sS'YIR036C'
p1108
F1620.0
sS'YMR123W'
p1109
F5750.0
sS'YGR209C'
p1110
F17200.0
sS'YJL150W'
p1111
F0.0
sS'YNL050C'
p1112
F0.0
sS'YMR304C-A'
p1113
F0.0
sS'YLR240W'
p1114
F1080.0
sS'YOR039W'
p1115
F7160.0
sS'YDL234C'
p1116
F2460.0
sS'YGL080W'
p1117
F396.0
sS'YNL136W'
p1118
F300.0
sS'YKL049C'
p1119
F0.0
sS'YBL002W'
p1120
F443000.0
sS'YNR038W'
p1121
F12700.0
sS'YGL140C'
p1122
F1080.0
sS'YCL029C'
p1123
F300.0
sS'YFL038C'
p1124
F0.0
sS'YJR131W'
p1125
F8260.0
sS'YNR012W'
p1126
F0.0
sS'YNL110C'
p1127
F4280.0
sS'YAL068C'
p1128
F0.0
sS'YDR367W'
p1129
F3420.0
sS'YIL053W'
p1130
F193000.0
sS'YPL059W'
p1131
F6260.0
sS'YGL253W'
p1132
F114000.0
sS'YHL032C'
p1133
F0.0
sS'YAR002C-A'
p1134
F20700.0
sS'YHL045W'
p1135
F0.0
sS'YOR337W'
p1136
F736.0
sS'YMR010W'
p1137
F937.0
sS'YOR097C'
p1138
F1200.0
sS'YHR118C'
p1139
F2970.0
sS'YGR024C'
p1140
F1170.0
sS'YOL023W'
p1141
F1400.0
sS'YPL253C'
p1142
F0.0
sS'YOR008C-A'
p1143
F0.0
sS'YER154W'
p1144
F6550.0
sS'YBR300C'
p1145
F0.0
sS'YEL036C'
p1146
F0.0
sS'YBR260C'
p1147
F1500.0
sS'YPL124W'
p1148
F0.0
sS'YAL042W'
p1149
F0.0
sS'YAL035W'
p1150
F13400.0
sS'YNL286W'
p1151
F1360.0
sS'YDR001C'
p1152
F1840.0
sS'YIL162W'
p1153
F1780.0
sS'YOL141W'
p1154
F830.0
sS'YHR145C'
p1155
F0.0
sS'YBR195C'
p1156
F149.0
sS'YIL039W'
p1157
F1070.0
sS'YGR122W'
p1158
F0.0
sS'YOL077W-A'
p1159
F1320.0
sS'YMR315W'
p1160
F9600.0
sS'YPL029W'
p1161
F1440.0
sS'YDR384C'
p1162
F0.0
sS'YML007W'
p1163
F1620.0
sS'YER063W'
p1164
F6580.0
sS'YDR481C'
p1165
F3060.0
sS'YER014W'
p1166
F5350.0
sS'YPR041W'
p1167
F48300.0
sS'YNL213C'
p1168
F1160.0
sS'YKL006C-A'
p1169
F0.0
sS'YDL159W-A'
p1170
F0.0
sS'YBR058C'
p1171
F3040.0
sS'YLR024C'
p1172
F49.2
sS'YLR071C'
p1173
F319.0
sS'YHR092C'
p1174
F0.0
sS'YDL199C'
p1175
F0.0
sS'YDR434W'
p1176
F7520.0
sS'YER181C'
p1177
F0.0
sS'YNL228W'
p1178
F0.0
sS'YDL064W'
p1179
F2600.0
sS'YDL031W'
p1180
F0.0
sS'YMR257C'
p1181
F538.0
sS'YBL108W'
p1182
F0.0
sS'YDR514C'
p1183
F125.0
sS'YOR253W'
p1184
F2370.0
sS'YOR202W'
p1185
F2100.0
sS'YDR033W'
p1186
F182000.0
sS'YGL245W'
p1187
F48700.0
sS'YGR006W'
p1188
F0.0
sS'YGR079W'
p1189
F0.0
sS'YDL119C'
p1190
F1550.0
sS'YKL151C'
p1191
F3870.0
sS'YGL198W'
p1192
F0.0
sS'YDL086W'
p1193
F0.0
sS'YBL091C-A'
p1194
F358.0
sS'YOR170W'
p1195
F0.0
sS'YOR292C'
p1196
F0.0
sS'YHR038W'
p1197
F1440.0
sS'YML069W'
p1198
F22400.0
sS'YKR019C'
p1199
F0.0
sS'YKR047W'
p1200
F0.0
sS'YGR279C'
p1201
F6190.0
sS'YCR073C'
p1202
F56.9
sS'YCR022C'
p1203
F0.0
sS'YLL015W'
p1204
F0.0
sS'YNL195C'
p1205
F0.0
sS'YFL060C'
p1206
F195.0
sS'YDR173C'
p1207
F2720.0
sS'YMR100W'
p1208
F125.0
sS'YCL057W'
p1209
F8910.0
sS'YBR072W'
p1210
F19300.0
sS'YBR005W'
p1211
F0.0
sS'YPR123C'
p1212
F0.0
sS'YDL173W'
p1213
F1140.0
sS'YJR047C'
p1214
F14200.0
sS'YMR006C'
p1215
F623.0
sS'YAL016W'
p1216
F16900.0
sS'YHR011W'
p1217
F405.0
sS'YPL152W'
p1218
F2430.0
sS'YLR183C'
p1219
F284.0
sS'YNL077W'
p1220
F125.0
sS'YBR109C'
p1221
F0.0
sS'YBR172C'
p1222
F486.0
sS'YDR346C'
p1223
F45200.0
sS'YJL010C'
p1224
F2930.0
sS'YPL092W'
p1225
F0.0
sS'YGR213C'
p1226
F0.0
sS'YHR146W'
p1227
F2990.0
sS'YNL019C'
p1228
F0.0
sS'YDL242W'
p1229
F0.0
sS'YBR189W'
p1230
F63300.0
sS'YER085C'
p1231
F0.0
sS'YJL225C'
p1232
F0.0
sS'YKL064W'
p1233
F259.0
sS'YLR265C'
p1234
F377.0
sS'YKR022C'
p1235
F892.0
sS'YLR287C'
p1236
F9100.0
sS'YPL174C'
p1237
F238.0
sS'YOR070C'
p1238
F206.0
sS'YDR403W'
p1239
F0.0
sS'YOL093W'
p1240
F4090.0
sS'YOL042W'
p1241
F3480.0
sS'YIL070C'
p1242
F4910.0
sS'YCL037C'
p1243
F8430.0
sS'YIL025C'
p1244
F0.0
sS'YNR071C'
p1245
F0.0
sS'YML131W'
p1246
F0.0
sS'YNL245C'
p1247
F861.0
sS'YNR024W'
p1248
F1350.0
sS'YOL108C'
p1249
F521.0
sS'YOL140W'
p1250
F2300.0
sS'YPL043W'
p1251
F4990.0
sS'YMR294W-A'
p1252
F0.0
sS'YKL002W'
p1253
F0.0
sS'YDR328C'
p1254
F0.0
sS'YIR009W'
p1255
F504.0
sS'YBR154C'
p1256
F0.0
sS'YLR001C'
p1257
F206.0
sS'YGR125W'
p1258
F1420.0
sS'YKR101W'
p1259
F0.0
sS'YER115C'
p1260
F0.0
sS'YHR124W'
p1261
F0.0
sS'YER148W'
p1262
F0.0
sS'YCR050C'
p1263
F0.0
sS'YMR240C'
p1264
F1830.0
sS'YOR303W'
p1265
F2580.0
sS'YIL087C'
p1266
F0.0
sS'YMR192W'
p1267
F2010.0
sS'YMR229C'
p1268
F8860.0
sS'YLL038C'
p1269
F1960.0
sS'YOR056C'
p1270
F4490.0
sS'YOR270C'
p1271
F55700.0
sS'YPR069C'
p1272
F0.0
sS'YOL068C'
p1273
F1440.0
sS'YMR182C'
p1274
F1230.0
sS'YBR201W'
p1275
F238.0
sS'YLR329W'
p1276
F0.0
sS'YLL043W'
p1277
F907.0
sS'YDR415C'
p1278
F0.0
sS'YGL161C'
p1279
F937.0
sS'YOL133W'
p1280
F0.0
sS'YNL263C'
p1281
F0.0
sS'YHR217C'
p1282
F0.0
sS'YDR128W'
p1283
F556.0
sS'YOR193W'
p1284
F382.0
sS'YER028C'
p1285
F0.0
sS'YMR052W'
p1286
F1540.0
sS'YMR203W'
p1287
F0.0
sS'YKR076W'
p1288
F1670.0
sS'YEL064C'
p1289
F0.0
sS'YDR270W'
p1290
F0.0
sS'YOR181W'
p1291
F8580.0
sS'YGR230W'
p1292
F0.0
sS'YPR062W'
p1293
F5180.0
sS'YDR528W'
p1294
F259.0
sS'YER173W'
p1295
F752.0
sS'YBR026C'
p1296
F1560.0
sS'YDL185W'
p1297
F200000.0
sS'YBR091C'
p1298
F0.0
sS'YNL094W'
p1299
F2290.0
sS'YGR047C'
p1300
F876.0
sS'YPL227C'
p1301
F5800.0
sS'YDL010W'
p1302
F1640.0
sS'YML019W'
p1303
F1080.0
sS'YDL045C'
p1304
F0.0
sS'YLR163C'
p1305
F1360.0
sS'YPR071W'
p1306
F0.0
sS'YKL225W'
p1307
F0.0
sS'YJL175W'
p1308
F0.0
sS'YBL079W'
p1309
F1560.0
sS'YNL056W'
p1310
F4530.0
sS'YFL001W'
p1311
F5860.0
sS'YDR150W'
p1312
F0.0
sS'YKL125W'
p1313
F138.0
sS'YKL170W'
p1314
F2460.0
sS'YPR157W'
p1315
F0.0
sS'YLR384C'
p1316
F10500.0
sS'YDR307W'
p1317
F0.0
sS'YML099C'
p1318
F0.0
sS'YLR421C'
p1319
F12200.0
sS'YLR090W'
p1320
F1210.0
sS'YMR325W'
p1321
F0.0
sS'YJR064W'
p1322
F0.0
sS'YML022W'
p1323
F11200.0
sS'YER046W'
p1324
F0.0
sS'YJR031C'
p1325
F2940.0
sS'YIR030C'
p1326
F0.0
sS'YKR050W'
p1327
F0.0
sS'YMR121C'
p1328
F721.0
sS'YGL017W'
p1329
F2030.0
sS'YDL150W'
p1330
F998.0
sS'YNL038W'
p1331
F0.0
sS'YHR001W-A'
p1332
F5590.0
sS'YOL165C'
p1333
F0.0
sS'YIL139C'
p1334
F0.0
sS'YLR246W'
p1335
F0.0
sS'YJR119C'
p1336
F290.0
sS'YLR359W'
p1337
F0.0
sS'YLR199C'
p1338
F1350.0
sS'YJL206C'
p1339
F0.0
sS'YIL142W'
p1340
F0.0
sS'YGL082W'
p1341
F7620.0
sS'YNL138W'
p1342
F8760.0
sS'YDL236W'
p1343
F2980.0
sS'YGL142C'
p1344
F0.0
sS'YGR179C'
p1345
F2690.0
sS'YJR086W'
p1346
F5550.0
sS'YBR139W'
p1347
F1420.0
sS'YHR188C'
p1348
F1680.0
sS'YKL106C-A'
p1349
F0.0
sS'YNL116W'
p1350
F1750.0
sS'YNL139C'
p1351
F521.0
sS'YDR361C'
p1352
F4590.0
sS'YLR445W'
p1353
F0.0
sS'YGL255W'
p1354
F0.0
sS'YFR007W'
p1355
F161.0
sS'YLR333C'
p1356
F162000.0
sS'YHL030W'
p1357
F2950.0
sS'YGL077C'
p1358
F0.0
sS'YPL204W'
p1359
F10300.0
sS'YPL251W'
p1360
F0.0
sS'YIL009C-A'
p1361
F0.0
sS'YBR302C'
p1362
F0.0
sS'YOR091W'
p1363
F4220.0
sS'YGR026W'
p1364
F0.0
sS'YAL040C'
p1365
F0.0
sS'YDR288W'
p1366
F2540.0
sS'YGL208W'
p1367
F300.0
sS'YNL284C'
p1368
F5350.0
sS'YIL164C'
p1369
F0.0
sS'YOL143C'
p1370
F3260.0
sS'YBR237W'
p1371
F358.0
sS'YBR197C'
p1372
F1360.0
sS'YHR147C'
p1373
F5680.0
sS'YJL093C'
p1374
F0.0
sS'YDR003W'
p1375
F1230.0
sS'YMR317W'
p1376
F0.0
sS'YOR251C'
p1377
F5770.0
sS'YPR181C'
p1378
F0.0
sS'YCL008C'
p1379
F1360.0
sS'YOR107W'
p1380
F0.0
sS'YML005W'
p1381
F656.0
sS'YNL215W'
p1382
F1470.0
sS'YDL059C'
p1383
F468.0
sS'YOR204W'
p1384
F0.0
sS'YEL012W'
p1385
F1590.0
sS'YBL040C'
p1386
F0.0
sS'YPR043W'
p1387
F44600.0
sS'YDR382W'
p1388
F602000.0
sS'YDR483W'
p1389
F13000.0
sS'YER061C'
p1390
F1660.0
sS'YLR022C'
p1391
F5060.0
sS'YLR402W'
p1392
F0.0
sS'YLR073C'
p1393
F377.0
sS'YER183C'
p1394
F468.0
sS'YHR090C'
p1395
F0.0
sS'YOL021C'
p1396
F606.0
sS'YHR030C'
p1397
F3230.0
sS'YBR295W'
p1398
F0.0
sS'YKL018W'
p1399
F704.0
sS'YIL011W'
p1400
F0.0
sS'YEL034W'
p1401
F0.0
sS'YHL015W'
p1402
F0.0
sS'YNR050C'
p1403
F57500.0
sS'YKL208W'
p1404
F0.0
sS'YGR004W'
p1405
F238.0
sS'YML110C'
p1406
F8100.0
sS'YGL048C'
p1407
F4700.0
sS'YGL243W'
p1408
F0.0
sS'YKL106W'
p1409
F2910.0
sS'YPR029C'
p1410
F4850.0
sS'YJL034W'
p1411
F337000.0
sS'YFL048C'
p1412
F2900.0
sS'YLR117C'
p1413
F2140.0
sS'YOR176W'
p1414
F22700.0
sS'YOR109W'
p1415
F1520.0
sS'YBL089W'
p1416
F0.0
sS'YDL084W'
p1417
F51700.0
sS'YCL055W'
p1418
F1690.0
sS'YGL116W'
p1419
F0.0
sS'YBL054W'
p1420
F830.0
sS'YCR024C'
p1421
F784.0
sS'YMR102C'
p1422
F538.0
sS'YCR071C'
p1423
F1710.0
sS'YDR175C'
p1424
F3150.0
sS'YOR189W'
p1425
F538.0
sS'YOR154W'
p1426
F3250.0
sS'YPR121W'
p1427
F0.0
sS'YBR070C'
p1428
F339.0
sS'YGR226C'
p1429
F0.0
sS'YNL315C'
p1430
F2840.0
sS'YPR174C'
p1431
F3420.0
sS'YJR045C'
p1432
F0.0
sS'YMR008C'
p1433
F0.0
sS'YPL026C'
p1434
F2810.0
sS'YDL171C'
p1435
F18900.0
sS'YKL062W'
p1436
F0.0
sS'YJR010W'
p1437
F1510.0
sS'YJL218W'
p1438
F0.0
sS'YLR222C'
p1439
F8070.0
sS'YDR093W'
p1440
F0.0
sS'YMR282C'
p1441
F2680.0
sS'YIL109C'
p1442
F0.0
sS'YFL022C'
p1443
F0.0
sS'YPL109C'
p1444
F2470.0
sS'YJL156C'
p1445
F0.0
sS'YNL071W'
p1446
F5440.0
sS'YMR088C'
p1447
F0.0
sS'YGR211W'
p1448
F39900.0
sS'YKL139W'
p1449
F125.0
sS'YJL069C'
p1450
F9570.0
sS'YDR344C'
p1451
F0.0
sS'YJL016W'
p1452
F3360.0
sS'YDR444W'
p1453
F2070.0
sS'YER087W'
p1454
F477.0
sS'YLR285W'
p1455
F7280.0
sS'YLR267W'
p1456
F0.0
sS'YDL219W'
p1457
F4610.0
sS'YNL017C'
p1458
F0.0
sS'YCR024C-A'
p1459
F124000.0
sS'YDR206W'
p1460
F0.0
sS'YKR024C'
p1461
F1460.0
sS'YKL140W'
p1462
F1470.0
sS'YBR156C'
p1463
F319.0
sS'YOL013W-A'
p1464
F0.0
sS'YOR076C'
p1465
F233.0
sS'YEL059C-A'
p1466
F358.0
sS'YDR405W'
p1467
F2170.0
sS'YOL091W'
p1468
F0.0
sS'YCL031C'
p1469
F2610.0
sS'YIL027C'
p1470
F5240.0
sS'YLR459W'
p1471
F0.0
sS'YNL243W'
p1472
F40600.0
sS'YNR026C'
p1473
F6160.0
sS'YHL044W'
p1474
F0.0
sS'YPR204W'
p1475
F0.0
sS'YOR311C'
p1476
F784.0
sS'YBR170C'
p1477
F1050.0
sS'YGR149W'
p1478
F0.0
sS'YDR458C'
p1479
F1250.0
sS'YKL193C'
p1480
F3870.0
sS'YPR099C'
p1481
F0.0
sS'YOR135C'
p1482
F0.0
sS'YLR310C'
p1483
F319.0
sS'YNR008W'
p1484
F0.0
sS'YJR150C'
p1485
F0.0
sS'YBR301W'
p1486
F0.0
sS'YFL011W'
p1487
F0.0
sS'YLR003C'
p1488
F1200.0
sS'YER113C'
p1489
F0.0
sS'YHR122W'
p1490
F1800.0
sS'YHL017W'
p1491
F14600.0
sS'YJR010C-A'
p1492
F5550.0
sS'YIL085C'
p1493
F2890.0
sS'YMR190C'
p1494
F0.0
sS'YLR325C'
p1495
F50200.0
sS'YCR052W'
p1496
F2470.0
sS'YOR272W'
p1497
F6670.0
sS'YOR058C'
p1498
F556.0
sS'YAL064W-B'
p1499
F0.0
sS'YDR413C'
p1500
F0.0
sS'YBR203W'
p1501
F0.0
sS'YAR029W'
p1502
F0.0
sS'YNL238W'
p1503
F0.0
sS'YJL198W'
p1504
F3430.0
sS'YOL135C'
p1505
F7600.0
sS'YOR323C'
p1506
F6920.0
sS'YLL041C'
p1507
F9540.0
sS'YKR074W'
p1508
F1230.0
sS'YOR195W'
p1509
F314.0
sS'YER026C'
p1510
F0.0
sS'YMR201C'
p1511
F1030.0
sS'YLR069C'
p1512
F6350.0
sS'YML042W'
p1513
F450.0
sS'YDR069C'
p1514
F428.0
sS'YGR232W'
p1515
F319.0
sS'YEL066W'
p1516
F1160.0
sS'YPR035W'
p1517
F346000.0
sS'YDR542W'
p1518
F0.0
sS'YDR227W'
p1519
F0.0
sS'YPR060C'
p1520
F0.0
sS'YKR013W'
p1521
F0.0
sS'YCR038C'
p1522
F2110.0
sS'YNL257C'
p1523
F432.0
sS'YCL056C'
p1524
F0.0
sS'YBR093C'
p1525
F1110.0
sS'YBL112C'
p1526
F0.0
sS'YNL092W'
p1527
F952.0
sS'YGR045C'
p1528
F0.0
sS'YLR134W'
p1529
F471000.0
sS'YOR218C'
p1530
F0.0
sS'YPL225W'
p1531
F37500.0
sS'YDL043C'
p1532
F3460.0
sS'YDL012C'
p1533
F2250.0
sS'YDR218C'
p1534
F0.0
sS'YLR299W'
p1535
F672.0
sS'YJL177W'
p1536
F21100.0
sS'YGL139W'
p1537
F0.0
sS'YNL054W'
p1538
F0.0
sS'YDR156W'
p1539
F3100.0
sS'YPL062W'
p1540
F0.0
sS'YPR155C'
p1541
F2940.0
sS'YOR137C'
p1542
F0.0
sS'YKL123W'
p1543
F0.0
sS'YKL172W'
p1544
F0.0
sS'YNL336W'
p1545
F1730.0
sS'YDR305C'
p1546
F1920.0
sS'YJR059W'
p1547
F1420.0
sS'YPR100W'
p1548
F3390.0
sS'YDR358W'
p1549
F656.0
sS'YLR096W'
p1550
F0.0
sS'YKR052C'
p1551
F1340.0
sS'YLR427W'
p1552
F922.0
sS'YDL152W'
p1553
F0.0
sS'YGL015C'
p1554
F0.0
sS'YJR066W'
p1555
F589.0
sS'YMR127C'
p1556
F0.0
sS'YIL140W'
p1557
F396.0
sS'YOL163W'
p1558
F0.0
sS'YLR197W'
p1559
F13500.0
sS'YBR213W'
p1560
F0.0
sS'YAL064W'
p1561
F0.0
sS'YJL204C'
p1562
F2700.0
sS'YLR244C'
p1563
F19600.0
sS'YJR084W'
p1564
F1510.0
sS'YLR233C'
p1565
F0.0
sS'YDL238C'
p1566
F279.0
sS'YGL084C'
p1567
F672.0
sS'YPR033C'
p1568
F26800.0
sS'YLR382C'
p1569
F2120.0
sS'YLR219W'
p1570
F131.0
sS'YDR363W'
p1571
F1890.0
sS'YNL114C'
p1572
F0.0
sS'YNL163C'
p1573
F7770.0
sS'YFR005C'
p1574
F167.0
sS'YHR009C'
p1575
F5240.0
sS'YFR050C'
p1576
F16900.0
sS'YLR331C'
p1577
F0.0
sS'YNR069C'
p1578
F0.0
sS'YGR126W'
p1579
F0.0
sS'YAR019C'
p1580
F238.0
sS'YOR024W'
p1581
F0.0
sS'YGL071W'
p1582
F2730.0
sS'YGL257C'
p1583
F1170.0
sS'YGR020C'
p1584
F4050.0
sS'YOR093C'
p1585
F41.1
sS'YAL046C'
p1586
F259.0
sS'YDR198C'
p1587
F768.0
sS'YAL039C'
p1588
F3870.0
sS'YIL166C'
p1589
F0.0
sS'YER060W'
p1590
F0.0
sS'YHR164C'
p1591
F0.0
sS'YOL118C'
p1592
F0.0
sS'YDR286C'
p1593
F0.0
sS'YHR141C'
p1594
F3890.0
sS'YPL128C'
p1595
F6380.0
sS'YJL091C'
p1596
F0.0
sS'YBR191W'
p1597
F0.0
sS'YDR380W'
p1598
F6560.0
sS'YGL100W'
p1599
F952.0
sS'YJR090C'
p1600
F0.0
sS'YDR485C'
p1601
F358.0
sS'YPL239W'
p1602
F13100.0
sS'YPR183W'
p1603
F1890.0
sS'YOR206W'
p1604
F29000.0
sS'YBL042C'
p1605
F0.0
sS'YOR391C'
p1606
F0.0
sS'YDR525W-A'
p1607
F20400.0
sS'YBR089W'
p1608
F0.0
sS'YLR075W'
p1609
F0.0
sS'YBR054W'
p1610
F1950.0
sS'YLR020C'
p1611
F1630.0
sS'YNL217W'
p1612
F0.0
sS'YER067W'
p1613
F8450.0
sS'YIL013C'
p1614
F0.0
sS'YPL206C'
p1615
F3270.0
sS'YDL060W'
p1616
F1390.0
sS'YBR293W'
p1617
F0.0
sS'YNR052C'
p1618
F1520.0
sS'YHR032W'
p1619
F0.0
sS'YEL032W'
p1620
F35100.0
sS'YOL076W'
p1621
F5800.0
sS'YDR136C'
p1622
F0.0
sS'YHR203C'
p1623
F102000.0
sS'YML112W'
p1624
F2640.0
sS'YGL241W'
p1625
F2940.0
sS'YDL071C'
p1626
F0.0
sS'YPR176C'
p1627
F1520.0
sS'YKL100C'
p1628
F0.0
sS'YJL036W'
p1629
F450.0
sS'YER009W'
p1630
F0.0
sS'YLR115W'
p1631
F3060.0
sS'YLR140W'
p1632
F0.0
sS'YGL114W'
p1633
F0.0
sS'YER167W'
p1634
F0.0
sS'YMR104C'
p1635
F1310.0
sS'YER185W'
p1636
F0.0
sS'YDL195W'
p1637
F1840.0
sS'YNL199C'
p1638
F0.0
sS'YCR026C'
p1639
F3420.0
sS'YBL052C'
p1640
F0.0
sS'YBR076W'
p1641
F0.0
sS'YNL317W'
p1642
F7810.0
sS'YLL019C'
p1643
F0.0
sS'YBR009C'
p1644
F524000.0
sS'YHR052W'
p1645
F45900.0
sS'YKR026C'
p1646
F8970.0
sS'YJR043C'
p1647
F2410.0
sS'YJR012C'
p1648
F538.0
sS'YKL060C'
p1649
F1020000.0
sS'YCL068C'
p1650
F0.0
sS'YKL035W'
p1651
F17200.0
sS'YNL073W'
p1652
F2280.0
sS'YMR280C'
p1653
F0.0
sS'YFL020C'
p1654
F0.0
sS'YNL328C'
p1655
F573.0
sS'YJL014W'
p1656
F0.0
sS'YGR217W'
p1657
F0.0
sS'YOR174W'
p1658
F1620.0
sS'YPR149W'
p1659
F0.0
sS'YNL015W'
p1660
F0.0
sS'YCR084C'
p1661
F5840.0
sS'YHR178W'
p1662
F279.0
sS'YPL114W'
p1663
F0.0
sS'YLR283W'
p1664
F0.0
sS'YPL170W'
p1665
F6300.0
sS'YJL221C'
p1666
F0.0
sS'YDR204W'
p1667
F0.0
sS'YBR085C-A'
p1668
F0.0
sS'YJL109C'
p1669
F18200.0
sS'YER089C'
p1670
F12600.0
sS'YML057C-A'
p1671
F0.0
sS'YOR074C'
p1672
F0.0
sS'YPL028W'
p1673
F60900.0
sS'YJR152W'
p1674
F0.0
sS'YKL025C'
p1675
F1600.0
sS'YAR008W'
p1676
F0.0
sS'YBR158W'
p1677
F2020.0
sS'YOL097C'
p1678
F12100.0
sS'YOR110W'
p1679
F2660.0
sS'YCL033C'
p1680
F799.0
sS'YNR020C'
p1681
F0.0
sS'YBR258C'
p1682
F1520.0
sS'YNL146W'
p1683
F0.0
sS'YAL007C'
p1684
F26300.0
sS'YLR262C-A'
p1685
F3100.0
sS'YBR223C'
p1686
F2130.0
sS'YNL241C'
p1687
F15000.0
sS'YJL154C'
p1688
F2360.0
sS'YDR091C'
p1689
F6280.0
sS'YJL123C'
p1690
F2160.0
sS'YIR005W'
p1691
F922.0
sS'YPL047W'
p1692
F672.0
sS'YPL188W'
p1693
F4650.0
sS'YLR287C-A'
p1694
F37600.0
sS'YBR176W'
p1695
F1420.0
sS'YPL173W'
p1696
F0.0
sS'YFR026C'
p1697
F721.0
sS'YPL036W'
p1698
F0.0
sS'YGL238W'
p1699
F23500.0
sS'YHR060W'
p1700
F752.0
sS'YNL128W'
p1701
F0.0
sS'YLR312C'
p1702
F0.0
sS'YKL191W'
p1703
F3490.0
sS'YNR006W'
p1704
F172.0
sS'YHR120W'
p1705
F1670.0
sS'YAR050W'
p1706
F0.0
sS'YOL137W'
p1707
F414.0
sS'YDR530C'
p1708
F1770.0
sS'YER111C'
p1709
F589.0
sS'YER144C'
p1710
F300.0
sS'YOL039W'
p1711
F428000.0
sS'YIL083C'
p1712
F3170.0
sS'YHL011C'
p1713
F0.0
sS'YGL173C'
p1714
F11700.0
sS'YMR303C'
p1715
F1620.0
sS'YPL060W'
p1716
F396.0
sS'YDR411C'
p1717
F0.0
sS'YBR205W'
p1718
F704.0
sS'YOR321W'
p1719
F2720.0
sS'YMR186W'
p1720
F132000.0
sS'YMR278W'
p1721
F4960.0
sS'YLR136C'
p1722
F0.0
sS'YGL260W'
p1723
F0.0
sS'YMR207C'
p1724
F396.0
sS'YML015C'
p1725
F0.0
sS'YOR197W'
p1726
F1400.0
sS'YKR089C'
p1727
F195.0
sS'YDL041W'
p1728
F0.0
sS'YKR072C'
p1729
F3750.0
sS'YDL014W'
p1730
F0.0
sS'YJL127W-A'
p1731
F0.0
sS'YER079W'
p1732
F1890.0
sS'YER024W'
p1733
F319.0
sS'YOR230W'
p1734
F7750.0
sS'YGR234W'
p1735
F13000.0
sS'YMR178W'
p1736
F3890.0
sS'YDR395W'
p1737
F16300.0
sS'YEL068C'
p1738
F952.0
sS'YNL090W'
p1739
F3870.0
sS'YOR307C'
p1740
F784.0
sS'YGL052W'
p1741
F0.0
sS'YBR095C'
p1742
F1630.0
sS'YDR036C'
p1743
F3950.0
sS'YGR043C'
p1744
F1920.0
sS'YPL223C'
p1745
F0.0
sS'YPL272C'
p1746
F0.0
sS'YPR002C-A'
p1747
F0.0
sS'YOL002C'
p1748
F0.0
sS'YFL005W'
p1749
F0.0
sS'YCR010C'
p1750
F0.0
sS'YMR152W'
p1751
F6540.0
sS'YDR154C'
p1752
F0.0
sS'YMR125W'
p1753
F11300.0
sS'YMR029C'
p1754
F4010.0
sS'YCL026C-A'
p1755
F0.0
sS'YGL180W'
p1756
F1070.0
sS'YNL225C'
p1757
F0.0
sS'YJL055W'
p1758
F6440.0
sS'YPR102C'
p1759
F39000.0
sS'YNL334C'
p1760
F0.0
sS'YNL188W'
p1761
F0.0
sS'YDR303C'
p1762
F1750.0
sS'YPL086C'
p1763
F4760.0
sS'YDR238C'
p1764
F26000.0
sS'YPR153W'
p1765
F0.0
sS'YKR066C'
p1766
F6730.0
sS'YLL003W'
p1767
F0.0
sS'YER042W'
p1768
F3070.0
sS'YDR109C'
p1769
F0.0
sS'YDR221W'
p1770
F9760.0
sS'YLR109W'
p1771
F16200.0
sS'YKR009C'
p1772
F0.0
sS'YMR078C'
p1773
F0.0
sS'YLR094C'
p1774
F1050.0
sS'YBR037C'
p1775
F2550.0
sS'YLR041W'
p1776
F0.0
sS'YJR060W'
p1777
F6890.0
sS'YNL161W'
p1778
F450.0
sS'YIL146C'
p1779
F0.0
sS'YLR195C'
p1780
F0.0
sS'YJL202C'
p1781
F0.0
sS'YAL066W'
p1782
F0.0
sS'YLR231C'
p1783
F3060.0
sS'YKL016C'
p1784
F6820.0
sS'YPL111W'
p1785
F42800.0
sS'YKL174C'
p1786
F0.0
sS'YKL121W'
p1787
F504.0
sS'YLR380W'
p1788
F9600.0
sS'YMR012W'
p1789
F17000.0
sS'YER093C'
p1790
F0.0
sS'YDL201W'
p1791
F2630.0
sS'YDR468C'
p1792
F0.0
sS'YFR003C'
p1793
F1080.0
sS'YIL033C'
p1794
F4280.0
sS'YOR368W'
p1795
F189.0
sS'YGR128C'
p1796
F16800.0
sS'YIL048W'
p1797
F0.0
sS'YLR441C'
p1798
F92400.0
sS'YOL056W'
p1799
F3730.0
sS'YHL034C'
p1800
F12800.0
sS'YGR088W'
p1801
F319.0
sS'YGL073W'
p1802
F0.0
sS'YGL259W'
p1803
F0.0
sS'YGR022C'
p1804
F0.0
sS'YGR106C'
p1805
F12800.0
sS'YGL086W'
p1806
F656.0
sS'YAL044C'
p1807
F3510.0
sS'YPR081C'
p1808
F2290.0
sS'YBR124W'
p1809
F0.0
sS'YDR284C'
p1810
F3040.0
sS'YJL097W'
p1811
F0.0
sS'YNL302C'
p1812
F3440.0
sS'YOR048C'
p1813
F623.0
sS'YHR143W'
p1814
F0.0
sS'YPR101W'
p1815
F721.0
sS'YCL004W'
p1816
F0.0
sS'YPL042C'
p1817
F0.0
sS'YBL044W'
p1818
F0.0
sS'YDR430C'
p1819
F6140.0
sS'YGR193C'
p1820
F414.0
sS'YDR487C'
p1821
F5460.0
sS'YPR185W'
p1822
F149.0
sS'YER065C'
p1823
F0.0
sS'YLR077W'
p1824
F0.0
sS'YBR056W'
p1825
F1960.0
sS'YNL219C'
p1826
F0.0
sS'YHR034C'
p1827
F2610.0
sS'YBL019W'
p1828
F414.0
sS'YOL070C'
p1829
F1620.0
sS'YDL062W'
p1830
F0.0
sS'YGR150C'
p1831
F876.0
sS'YHR061C'
p1832
F1100.0
sS'YNR054C'
p1833
F12800.0
sS'YDR130C'
p1834
F0.0
sS'YIL015W'
p1835
F672.0
sS'YEL030W'
p1836
F0.0
sS'YBR291C'
p1837
F0.0
sS'YML114C'
p1838
F4680.0
sS'YHR201C'
p1839
F3170.0
sS'YNL299W'
p1840
F2240.0
sS'YGR008C'
p1841
F5330.0
sS'YNL311C'
p1842
F432.0
sS'YPR170C'
p1843
F0.0
sS'YJL030W'
p1844
F1110.0
sS'YGR248W'
p1845
F4320.0
sS'YBR074W'
p1846
F0.0
sS'YOR150W'
p1847
F6730.0
sS'YDR055W'
p1848
F11700.0
sS'YML036W'
p1849
F0.0
sS'YDL088C'
p1850
F2740.0
sS'YLR113W'
p1851
F6780.0
sS'YLR142W'
p1852
F184.0
sS'YLL058W'
p1853
F2070.0
sS'YDL197C'
p1854
F1910.0
sS'YER130C'
p1855
F0.0
sS'YER165W'
p1856
F198000.0
sS'YMR106C'
p1857
F358.0
sS'YCL059C'
p1858
F4340.0
sS'YGL112C'
p1859
F6510.0
sS'YMR244W'
p1860
F0.0
sS'YDL008W'
p1861
F377.0
sS'YBL050W'
p1862
F0.0
sS'YGR102C'
p1863
F172.0
sS'YJR014W'
p1864
F21600.0
sS'YHR050W'
p1865
F0.0
sS'YPL018W'
p1866
F1250.0
sS'YPL185W'
p1867
F0.0
sS'YJR041C'
p1868
F1660.0
sS'YDL248W'
p1869
F0.0
sS'YKR028W'
p1870
F0.0
sS'YKL037W'
p1871
F0.0
sS'YMR286W'
p1872
F1200.0
sS'YDL175C'
p1873
F1800.0
sS'YKL168C'
p1874
F981.0
sS'YFL026W'
p1875
F0.0
sS'YDL102W'
p1876
F0.0
sS'YGL029W'
p1877
F2340.0
sS'YDL128W'
p1878
F7770.0
sS'YPL098C'
p1879
F0.0
sS'YMR033W'
p1880
F1790.0
sS'YPR003C'
p1881
F0.0
sS'YGR262C'
p1882
F3020.0
sS'YDR202C'
p1883
F2860.0
sS'YGR215W'
p1884
F0.0
sS'YNL013C'
p1885
F0.0
sS'YDR253C'
p1886
F0.0
sS'YCR082W'
p1887
F981.0
sS'YJL223C'
p1888
F0.0
sS'YOR001W'
p1889
F2160.0
sS'YKL088W'
p1890
F2940.0
sS'YEL075W-A'
p1891
F0.0
sS'YLR276C'
p1892
F0.0
sS'YDL222C'
p1893
F329.0
sS'YNL140C'
p1894
F1590.0
sS'YOL095C'
p1895
F0.0
sS'YNR022C'
p1896
F0.0
sS'YDR409W'
p1897
F149.0
sS'YBR221C'
p1898
F9970.0
sS'YAL005C'
p1899
F269000.0
sS'YDR097C'
p1900
F5330.0
sS'YBR174C'
p1901
F0.0
sS'YJL121C'
p1902
F3310.0
sS'YKL008C'
p1903
F2840.0
sS'YBR103W'
p1904
F1620.0
sS'YNR004W'
p1905
F1720.0
sS'YPL032C'
p1906
F2180.0
sS'YHR064C'
p1907
F73600.0
sS'YKL197C'
p1908
F2100.0
sS'YMR020W'
p1909
F6960.0
sS'YDR377W'
p1910
F14600.0
sS'YIR007W'
p1911
F1070.0
sS'YPL045W'
p1912
F1300.0
sS'YLR314C'
p1913
F0.0
sS'YFR020W'
p1914
F0.0
sS'YNL126W'
p1915
F56.9
sS'YOR327C'
p1916
F300.0
sS'YOL139C'
p1917
F14200.0
sS'YBR207W'
p1918
F486.0
sS'YNL269W'
p1919
F0.0
sS'YDR532C'
p1920
F377.0
sS'YKL210W'
p1921
F17700.0
sS'YER146W'
p1922
F0.0
sS'YHR159W'
p1923
F504.0
sS'YPL132W'
p1924
F0.0
sS'YIL114C'
p1925
F0.0
sS'YJL089W'
p1926
F0.0
sS'YJL052C-A'
p1927
F0.0
sS'YMR301C'
p1928
F3250.0
sS'YBL029W'
p1929
F0.0
sS'YHL028W'
p1930
F0.0
sS'YGR154C'
p1931
F0.0
sS'YOR389W'
p1932
F0.0
sS'YLR130C'
p1933
F0.0
sS'YER022W'
p1934
F3650.0
sS'YBR140C'
p1935
F0.0
sS'YKR070W'
p1936
F3870.0
sS'YDL016C'
p1937
F0.0
sS'YMR205C'
p1938
F90200.0
sS'YNL203C'
p1939
F0.0
sS'YJL185C'
p1940
F0.0
sS'YNL022C'
p1941
F922.0
sS'YML017W'
p1942
F2190.0
sS'YKR087C'
p1943
F0.0
sS'YOR232W'
p1944
F0.0
sS'YGR281W'
p1945
F3610.0
sS'YGR236C'
p1946
F0.0
sS'YKR091W'
p1947
F0.0
sS'YHL013C'
p1948
F172.0
sS'YOR059C'
p1949
F1210.0
sS'YOR309C'
p1950
F0.0
sS'YBR097W'
p1951
F279.0
sS'YMR227C'
p1952
F1050.0
sS'YDR030C'
p1953
F0.0
sS'YPL221W'
p1954
F0.0
sS'YPL274W'
p1955
F1300.0
sS'YEL051W'
p1956
F8500.0
sS'YOL004W'
p1957
F1660.0
sS'YGR014W'
p1958
F1320.0
sS'YGL050W'
p1959
F3390.0
sS'YER179W'
p1960
F0.0
sS'YMR150C'
p1961
F0.0
sS'YFL007W'
p1962
F2600.0
sS'YGL182C'
p1963
F0.0
sS'YCR012W'
p1964
F314000.0
sS'YPL084W'
p1965
F10200.0
sS'YDR354W'
p1966
F1760.0
sS'YDR301W'
p1967
F639.0
sS'YJL053W'
p1968
F0.0
sS'YPR104C'
p1969
F639.0
sS'YPR151C'
p1970
F0.0
sS'YNL332W'
p1971
F0.0
sS'YML028W'
p1972
F378000.0
sS'YLL001W'
p1973
F9620.0
sS'YCL067C'
p1974
F0.0
sS'YCL001W'
p1975
F2840.0
sS'YGL109W'
p1976
F0.0
sS'YDR223W'
p1977
F0.0
sS'YLR043C'
p1978
F8580.0
sS'YJR062C'
p1979
F1640.0
sS'YBR035C'
p1980
F0.0
sS'YNL167C'
p1981
F504.0
sS'YAL060W'
p1982
F8730.0
sS'YIL144W'
p1983
F1160.0
sS'YIL133C'
p1984
F43300.0
sS'YJL166W'
p1985
F6140.0
sS'YJL200C'
p1986
F4670.0
sS'YBR148W'
p1987
F0.0
sS'YPL113C'
p1988
F0.0
sS'YKL041W'
p1989
F1890.0
sS'YML012C-A'
p1990
F0.0
sS'YNL067W'
p1991
F76000.0
sS'YDR089W'
p1992
F172.0
sS'YKL014C'
p1993
F5890.0
sS'YLR237W'
p1994
F3120.0
sS'YKL176C'
p1995
F0.0
sS'YDR249C'
p1996
F0.0
sS'YER091C'
p1997
F264000.0
sS'YIR024C'
p1998
F589.0
sS'YJR008W'
p1999
F339.0
sS'YDL203C'
p2000
F98.9
sS'YML031W'
p2001
F3030.0
sS'YLR215C'
p2002
F4850.0
sS'YML082W'
p2003
F2810.0
sS'YOL054W'
p2004
F6490.0
sS'YFR001W'
p2005
F3650.0
sS'YNL109W'
p2006
F0.0
sS'YFR054C'
p2007
F300.0
sS'YIL031W'
p2008
F450.0
sS'YLR203C'
p2009
F4800.0
sS'YLR342W'
p2010
F0.0
sS'YLR335W'
p2011
F2960.0
sS'YJR102C'
p2012
F0.0
sS'YOR020C'
p2013
F149.0
sS'YLR149C-A'
p2014
F0.0
sS'YJR088C'
p2015
F5740.0
sS'YGR104C'
p2016
F1010.0
sS'YLR368W'
p2017
F0.0
sS'YBR268W'
p2018
F1100.0
sS'YPR083W'
p2019
F414.0
sS'YGL088W'
p2020
F0.0
sS'YGR173W'
p2021
F6200.0
sS'YDR282C'
p2022
F0.0
sS'YDR009W'
p2023
F721.0
sS'YJL095W'
p2024
F112.0
sS'YBR126C'
p2025
F10900.0
sS'YOL149W'
p2026
F2880.0
sS'YGL202W'
p2027
F1770.0
sS'YOR046C'
p2028
F14900.0
sS'YPR187W'
p2029
F6090.0
sS'YEL018W'
p2030
F937.0
sS'YFL012W-A'
p2031
F0.0
sS'YDR432W'
p2032
F78700.0
sS'YGR195W'
p2033
F5150.0
sS'YGL104C'
p2034
F0.0
sS'YBL046W'
p2035
F1010.0
sS'YHR036W'
p2036
F1280.0
sS'YOL072W'
p2037
F1140.0
sS'YGL159W'
p2038
F172.0
sS'YIL017C'
p2039
F0.0
sS'YOL123W'
p2040
F0.0
sS'YDR132C'
p2041
F172.0
sS'YML116W'
p2042
F1720.0
sS'YNR056C'
p2043
F0.0
sS'YDR185C'
p2044
F672.0
sS'YBR084C-A'
p2045
F97700.0
sS'YHR207C'
p2046
F5000.0
sS'YNL220W'
p2047
F56800.0
sS'YGR060W'
p2048
F77100.0
sS'YJL032W'
p2049
F0.0
sS'YOR152C'
p2050
F1890.0
sS'YGL031C'
p2051
F247000.0
sS'YOR183W'
p2052
F0.0
sS'YGR124W'
p2053
F58200.0
sS'YPR172W'
p2054
F358.0
sS'YDR053W'
p2055
F0.0
sS'YLR111W'
p2056
F0.0
sS'YML034W'
p2057
F2100.0
sS'YPR023C'
p2058
F1890.0
sS'YPL126W'
p2059
F6560.0
sS'YLR144C'
p2060
F1420.0
sS'YEL072W'
p2061
F0.0
sS'YPR058W'
p2062
F0.0
sS'YDL020C'
p2063
F0.0
sS'YML061C'
p2064
F259.0
sS'YBR050C'
p2065
F0.0
sS'YDL191W'
p2066
F0.0
sS'YHR101C'
p2067
F3460.0
sS'YER163C'
p2068
F1300.0
sS'YPL268W'
p2069
F0.0
sS'YER132C'
p2070
F815.0
sS'YER039C-A'
p2071
F98.9
sS'YGL110C'
p2072
F6300.0
sS'YDR179W-A'
p2073
F259.0
sS'YMR242C'
p2074
F54300.0
sS'YMR241W'
p2075
F2930.0
sS'YPL183C'
p2076
F3450.0
sS'YDR166C'
p2077
F3400.0
sS'YPR118W'
p2078
F922.0
sS'YHR056C'
p2079
F0.0
sS'YJL105W'
p2080
F0.0
sS'YJR016C'
p2081
F171000.0
sS'YDL100C'
p2082
F17300.0
sS'YBR080C'
p2083
F5920.0
sS'YMR284W'
p2084
F892.0
sS'YGR063C'
p2085
F4490.0
sS'YMR035W'
p2086
F0.0
sS'YOR178C'
p2087
F0.0
sS'YKR011C'
p2088
F3150.0
sS'YOR393W'
p2089
F0.0
sS'YGL027C'
p2090
F2840.0
sS'YPR005C'
p2091
F0.0
sS'YNL044W'
p2092
F5500.0
sS'YDR200C'
p2093
F377.0
sS'YDR255C'
p2094
F0.0
sS'YGR260W'
p2095
F0.0
sS'YNL011C'
p2096
F1100.0
sS'YLR274W'
p2097
F10300.0
sS'YJR156C'
p2098
F752.0
sS'YOR007C'
p2099
F9420.0
sS'YDL220C'
p2100
F319.0
sS'YNL142W'
p2101
F0.0
sS'YHR019C'
p2102
F0.0
sS'YAL003W'
p2103
F0.0
sS'YGR138C'
p2104
F0.0
sS'YIL078W'
p2105
F42600.0
sS'YFL024C'
p2106
F1110.0
sS'YDR095C'
p2107
F0.0
sS'YJL127C'
p2108
F1500.0
sS'YBL092W'
p2109
F0.0
sS'YFL053W'
p2110
F0.0
sS'YJL158C'
p2111
F12500.0
sS'YDR375C'
p2112
F1990.0
sS'YHR062C'
p2113
F6300.0
sS'YKL195W'
p2114
F5040.0
sS'YNL179C'
p2115
F0.0
sS'YDR320C'
p2116
F768.0
sS'YNR002C'
p2117
F0.0
sS'YPL030W'
p2118
F7720.0
sS'YDR452W'
p2119
F319.0
sS'YLR316C'
p2120
F892.0
sS'YFR022W'
p2121
F0.0
sS'YNL124W'
p2122
F1810.0
sS'YGL225W'
p2123
F31900.0
sS'YAR023C'
p2124
F0.0
sS'YBR209W'
p2125
F0.0
sS'YOR325W'
p2126
F0.0
sS'YDR534C'
p2127
F0.0
sS'YMR324C'
p2128
F0.0
sS'YCR018C-A'
p2129
F0.0
sS'YDR129C'
p2130
F3510.0
sS'YOR069W'
p2131
F6120.0
sS'YGR038W'
p2132
F2800.0
sS'YKR001C'
p2133
F5960.0
sS'YER140W'
p2134
F0.0
sS'YBR104W'
p2135
F1050.0
sS'YBR227C'
p2136
F10900.0
sS'YLR378C'
p2137
F24800.0
sS'YHR157W'
p2138
F0.0
sS'YPL130W'
p2139
F0.0
sS'YIL116W'
p2140
F0.0
sS'YOL100W'
p2141
F0.0
sS'YGR156W'
p2142
F937.0
sS'YFR048W'
p2143
F656.0
sS'YGL169W'
p2144
F538.0
sS'YMR307W'
p2145
F12400.0
sS'YOL006C'
p2146
F2970.0
sS'YDL066W'
p2147
F0.0
sS'YLR132C'
p2148
F486.0
sS'YER020W'
p2149
F4570.0
sS'YML011C'
p2150
F1080.0
sS'YNL201C'
p2151
F7010.0
sS'YDR398W'
p2152
F33100.0
sS'YCR028C-A'
p2153
F3060.0
sS'YER075C'
p2154
F768.0
sS'YJL187C'
p2155
F0.0
sS'YLR018C'
p2156
F0.0
sS'YKR085C'
p2157
F358.0
sS'YLR063W'
p2158
F0.0
sS'YOR234C'
p2159
F65600.0
sS'YBR289W'
p2160
F217.0
sS'YKR093W'
p2161
F0.0
sS'YKL212W'
p2162
F48000.0
sS'YMR221C'
p2163
F0.0
sS'YOR269W'
p2164
F0.0
sS'YOR212W'
p2165
F2050.0
sS'YDR520C'
p2166
F937.0
sS'YGR016W'
p2167
F238.0
sS'YEL053C'
p2168
F1970.0
sS'YPL037C'
p2169
F18000.0
sS'YMR156C'
p2170
F0.0
sS'YCR014C'
p2171
F0.0
sS'YGL184C'
p2172
F0.0
sS'YHR125W'
p2173
F0.0
sS'YLR158C'
p2174
F0.0
sS'YMR129W'
p2175
F3410.0
sS'YBL071C'
p2176
F0.0
sS'YPR106W'
p2177
F521.0
sS'YDR158W'
p2178
F18400.0
sS'YHR065C'
p2179
F0.0
sS'YOR164C'
p2180
F5350.0
sS'YPL082C'
p2181
F6560.0
sS'YDR323C'
p2182
F768.0
sS'YGR283C'
p2183
F2820.0
sS'YMR174C'
p2184
F0.0
sS'YCR049C'
p2185
F0.0
sS'YLR429W'
p2186
F2900.0
sS'YLL007C'
p2187
F486.0
sS'YCL065W'
p2188
F0.0
sS'YCR032W'
p2189
F0.0
sS'YDR105C'
p2190
F0.0
sS'YLR045C'
p2191
F1660.0
sS'YNL063W'
p2192
F13200.0
sS'YLR098C'
p2193
F396.0
sS'YIR038C'
p2194
F0.0
sS'YDL209C'
p2195
F2650.0
sS'YPL117C'
p2196
F25500.0
sS'YKR058W'
p2197
F0.0
sS'YBR033W'
p2198
F0.0
sS'YDR369C'
p2199
F358.0
sS'YAL062W'
p2200
F0.0
sS'YLR453C'
p2201
F589.0
sS'YMR298W'
p2202
F0.0
sS'YDR350C'
p2203
F0.0
sS'YNL165W'
p2204
F0.0
sS'YDR261C'
p2205
F2410.0
sS'YIL131C'
p2206
F1720.0
sS'YBR146W'
p2207
F0.0
sS'YAL044W-A'
p2208
F238.0
sS'YKL012W'
p2209
F0.0
sS'YPL115C'
p2210
F752.0
sS'YLR235C'
p2211
F0.0
sS'YJL164C'
p2212
F4320.0
sS'YNL065W'
p2213
F0.0
sS'YNL030W'
p2214
F681000.0
sS'YLR191W'
p2215
F7900.0
sS'YJL004C'
p2216
F238.0
sS'YDR356W'
p2217
F279.0
sS'YJL051W'
p2218
F0.0
sS'YLR217W'
p2219
F0.0
sS'YKR032W'
p2220
F0.0
sS'YDL205C'
p2221
F8480.0
sS'YML080W'
p2222
F1860.0
sS'YHR180W'
p2223
F0.0
sS'YMR016C'
p2224
F314.0
sS'YER097W'
p2225
F0.0
sS'YIL037C'
p2226
F0.0
sS'YOL052C'
p2227
F7060.0
sS'YKL032C'
p2228
F0.0
sS'YFR056C'
p2229
F0.0
sS'YJR100C'
p2230
F0.0
sS'YLR340W'
p2231
F0.0
sS'YHR055C'
p2232
F6680.0
sS'YKL043W'
p2233
F1420.0
sS'YJR020W'
p2234
F0.0
sS'YGR171C'
p2235
F3120.0
sS'YAL048C'
p2236
F0.0
sS'YPR085C'
p2237
F0.0
sS'YGL200C'
p2238
F26800.0
sS'YOR019W'
p2239
F0.0
sS'YOR044W'
p2240
F4280.0
sS'YOR387C'
p2241
F0.0
sS'YBR120C'
p2242
F2130.0
sS'YDR280W'
p2243
F4800.0
sS'YHR138C'
p2244
F319.0
sS'YPR189W'
p2245
F11900.0
sS'YOR259C'
p2246
F0.0
sS'YGR197C'
p2247
F0.0
sS'YIL099W'
p2248
F0.0
sS'YLL024C'
p2249
F364000.0
sS'YHL007C'
p2250
F259.0
sS'YGL106W'
p2251
F0.0
sS'YOR375C'
p2252
F77500.0
sS'YBL048W'
p2253
F0.0
sS'YOR022C'
p2254
F736.0
sS'YIL019W'
p2255
F0.0
sS'YMR086C-A'
p2256
F0.0
sS'YOR099W'
p2257
F5480.0
sS'YOL029C'
p2258
F0.0
sS'YNL222W'
p2259
F0.0
sS'YAR068W'
p2260
F0.0
sS'YML118W'
p2261
F414.0
sS'YHR205W'
p2262
F3850.0
sS'YDR187C'
p2263
F0.0
sS'YOL121C'
p2264
F29000.0
sS'YNR058W'
p2265
F0.0
sS'YGL033W'
p2266
F0.0
sS'YMR215W'
p2267
F16400.0
sS'YDR051C'
p2268
F3170.0
sS'YGR062C'
p2269
F468.0
sS'YBR078W'
p2270
F0.0
sS'YPL240C'
p2271
F445000.0
sS'YDL022W'
p2272
F807.0
sS'YPR021C'
p2273
F0.0
sS'YGR244C'
p2274
F0.0
sS'YDR496C'
p2275
F21500.0
sS'YEL070W'
p2276
F125.0
sS'YML032C'
p2277
F1080.0
sS'YLR146C'
p2278
F3870.0
sS'YGR059W'
p2279
F0.0
sS'YDR543C'
p2280
F0.0
sS'YDL193W'
p2281
F0.0
sS'YBR052C'
p2282
F7060.0
sS'YER134C'
p2283
F6190.0
sS'YNL088W'
p2284
F5730.0
sS'YER161C'
p2285
F1240.0
sS'YBR103C-A'
p2286
F0.0
sS'YBR083W'
p2287
F530.0
sS'YHR103W'
p2288
F0.0
sS'YBR058C-A'
p2289
F0.0
sS'YOR042W'
p2290
F623.0
sS'YCR079W'
p2291
F432.0
sS'YDR164C'
p2292
F639.0
sS'YKL033W'
p2293
F721.0
sS'YNL046W'
p2294
F704.0
sS'YJL107C'
p2295
F1480.0
sS'YPL181W'
p2296
F1590.0
sS'YHR054C'
p2297
F0.0
sS'YDL106C'
p2298
F6420.0
sS'YHR081W'
p2299
F0.0
sS'YPL014W'
p2300
F0.0
sS'YDL179W'
p2301
F0.0
sS'YER056C'
p2302
F0.0
sS'YML063W'
p2303
F107000.0
sS'YLR417W'
p2304
F2470.0
sS'YNR034W-A'
p2305
F2820.0
sS'YLR084C'
p2306
F3670.0
sS'YMR080C'
p2307
F6090.0
sS'YMR037C'
p2308
F125.0
sS'YGL025C'
p2309
F556.0
sS'YCR102W-A'
p2310
F0.0
sS'YLR346C'
p2311
F0.0
sS'YPR007C'
p2312
F0.0
sS'YMR117C'
p2313
F1750.0
sS'YDL124W'
p2314
F4030.0
sS'YDR257C'
p2315
F4010.0
sS'YGR266W'
p2316
F3230.0
sS'YGR219W'
p2317
F0.0
sS'YHR163W'
p2318
F3420.0
sS'YNR061C'
p2319
F339.0
sS'YIL176C'
p2320
F0.0
sS'YMR244C-A'
p2321
F721.0
sS'YLR272C'
p2322
F2540.0
sS'YOR005C'
p2323
F0.0
sS'YDL226C'
p2324
F9560.0
sS'YKL059C'
p2325
F1130.0
sS'YGL092W'
p2326
F4630.0
sS'YCL039W'
p2327
F1200.0
sS'YGR136W'
p2328
F0.0
sS'YDR513W'
p2329
F31400.0
sS'YGR070W'
p2330
F0.0
sS'YKL084W'
p2331
F0.0
sS'YNL079C'
p2332
F3060.0
sS'YFL051C'
p2333
F0.0
sS'YJL125C'
p2334
F7220.0
sS'YBR107C'
p2335
F125.0
sS'YBL090W'
p2336
F1270.0
sS'YPR130C'
p2337
F0.0
sS'YKL142W'
p2338
F1550.0
sS'YPL049C'
p2339
F1460.0
sS'YNL122C'
p2340
F0.0
sS'YJL070C'
p2341
F1100.0
sS'YDR373W'
p2342
F7160.0
sS'YIR003W'
p2343
F450.0
sS'YDR450W'
p2344
F48100.0
sS'YGL227W'
p2345
F1500.0
sS'YOR350C'
p2346
F861.0
sS'YHL024W'
p2347
F0.0
sS'YER142C'
p2348
F0.0
sS'YGR036C'
p2349
F0.0
sS'YDR536W'
p2350
F0.0
sS'YAL001C'
p2351
F125.0
sS'YAL054C'
p2352
F2890.0
sS'YHR155W'
p2353
F1170.0
sS'YPL136W'
p2354
F0.0
sS'YOL102C'
p2355
F672.0
sS'YBR252W'
p2356
F4340.0
sS'YBR225W'
p2357
F623.0
sS'YIL110W'
p2358
F0.0
sS'YBR169C'
p2359
F6300.0
sS'YMR305C'
p2360
F10500.0
sS'YJL085W'
p2361
F4280.0
sS'YEL065W'
p2362
F0.0
sS'YIL066C'
p2363
F1360.0
sS'YEL055C'
p2364
F4490.0
sS'YPR193C'
p2365
F0.0
sS'YML013W'
p2366
F12600.0
sS'YPL077C'
p2367
F0.0
sS'YNL207W'
p2368
F10300.0
sS'YDR428C'
p2369
F0.0
sS'YJL181W'
p2370
F0.0
sS'YOR210W'
p2371
F5300.0
sS'YBL034C'
p2372
F521.0
sS'YOL008W'
p2373
F0.0
sS'YER077C'
p2374
F432.0
sS'YBR089C-A'
p2375
F4590.0
sS'YLR089C'
p2376
F9960.0
sS'YKR083C'
p2377
F279.0
sS'YMR209C'
p2378
F981.0
sS'YER128W'
p2379
F967.0
sS'YLR061W'
p2380
F60400.0
sS'YKL214C'
p2381
F1310.0
sS'YOL088C'
p2382
F1520.0
sS'YKR095W'
p2383
F2710.0
sS'YMR223W'
p2384
F1030.0
sS'YPR048W'
p2385
F0.0
sS'YGR010W'
p2386
F1430.0
sS'YEL020C'
p2387
F0.0
sS'YCR016W'
p2388
F1850.0
sS'YJL028W'
p2389
F0.0
sS'YMR154C'
p2390
F432.0
sS'YGL186C'
p2391
F0.0
sS'YGL131C'
p2392
F0.0
sS'YGL206C'
p2393
F28700.0
sS'YDL225W'
p2394
F5620.0
sS'YBL073W'
p2395
F0.0
sS'YML079W'
p2396
F0.0
sS'YMR049C'
p2397
F2680.0
sS'YOR166C'
p2398
F0.0
sS'YGR285C'
p2399
F86400.0
sS'YPR068C'
p2400
F538.0
sS'YCR030C'
p2401
F4280.0
sS'YMR176W'
p2402
F259.0
sS'YCL063W'
p2403
F0.0
sS'YER048C'
p2404
F0.0
sS'YBR064W'
p2405
F0.0
sS'YBR031W'
p2406
F0.0
sS'YLL005C'
p2407
F0.0
sS'YOR148C'
p2408
F752.0
sS'YLR047C'
p2409
F0.0
sS'YDL147W'
p2410
F5710.0
sS'YMR063W'
p2411
F0.0
sS'YMR014W'
p2412
F3250.0
sS'YHL018W'
p2413
F752.0
sS'YDR263C'
p2414
F0.0
sS'YIL137C'
p2415
F5110.0
sS'YBR119W'
p2416
F2950.0
sS'YFL016C'
p2417
F7570.0
sS'YJL162C'
p2418
F184.0
sS'YBR144C'
p2419
F0.0
sS'YDR085C'
p2420
F0.0
sS'YNL032W'
p2421
F4070.0
sS'YPL080C'
p2422
F0.0
sS'YGR227W'
p2423
F0.0
sS'YDR070C'
p2424
F937.0
sS'YJL006C'
p2425
F1590.0
sS'YOR281C'
p2426
F7700.0
sS'YIL064W'
p2427
F1620.0
sS'YER095W'
p2428
F6960.0
sS'YLR170C'
p2429
F6370.0
sS'YML086C'
p2430
F6190.0
sS'YKR030W'
p2431
F0.0
sS'YDL207W'
p2432
F1040.0
sS'YLR211C'
p2433
F0.0
sS'YHR182W'
p2434
F1720.0
sS'YBR122C'
p2435
F0.0
sS'YHR001W'
p2436
F2350.0
sS'YDR477W'
p2437
F589.0
sS'YBR199W'
p2438
F5240.0
sS'YOL050C'
p2439
F0.0
sS'YIL042C'
p2440
F4220.0
sS'YIL035C'
p2441
F7180.0
sS'YIL159W'
p2442
F259.0
sS'YML121W'
p2443
F907.0
sS'YLR339C'
p2444
F0.0
sS'YJR106W'
p2445
F0.0
sS'YKL010C'
p2446
F7380.0
sS'YGR177C'
p2447
F3000.0
sS'YIR019C'
p2448
F0.0
sS'YKL045W'
p2449
F0.0
sS'YJR022W'
p2450
F1440.0
sS'YKL185W'
p2451
F1800.0
sS'YLR364W'
p2452
F573.0
sS'YPR087W'
p2453
F0.0
sS'YJR124C'
p2454
F0.0
sS'YNL250W'
p2455
F830.0
sS'YOR377W'
p2456
F1990.0
sS'YLL026W'
p2457
F32800.0
sS'YCL002C'
p2458
F0.0
sS'YGL108C'
p2459
F2430.0
sS'YHL005C'
p2460
F0.0
sS'YDR388W'
p2461
F14600.0
sS'YGR199W'
p2462
F0.0
sS'YHL050C'
p2463
F0.0
sS'YDL095W'
p2464
F41500.0
sS'YGR082W'
p2465
F5680.0
sS'YDR436W'
p2466
F189.0
sS'YPL189W'
p2467
F0.0
sS'YDR063W'
p2468
F3040.0
sS'YOR319W'
p2469
F1240.0
sS'YGR119C'
p2470
F9310.0
sS'YAR066W'
p2471
F0.0
sS'YDR181C'
p2472
F768.0
sS'YOL127W'
p2473
F0.0
sS'YNL224C'
p2474
F1440.0
sS'YAL020C'
p2475
F0.0
sS'YBR275C'
p2476
F0.0
sS'YBL013W'
p2477
F1070.0
sS'YOR187W'
p2478
F58500.0
sS'YDR501W'
p2479
F0.0
sS'YGR064W'
p2480
F0.0
sS'YMR217W'
p2481
F0.0
sS'YGL035C'
p2482
F830.0
sS'YNL337W'
p2483
F0.0
sS'YDR494W'
p2484
F0.0
sS'YGR246C'
p2485
F4330.0
sS'YEL076C'
p2486
F0.0
sS'YPL242C'
p2487
F279.0
sS'YPR027C'
p2488
F0.0
sS'YPL172C'
p2489
F0.0
sS'YDL024C'
p2490
F0.0
sS'YMR239C'
p2491
F4970.0
sS'YLR028C'
p2492
F7700.0
sS'YER136W'
p2493
F7280.0
sS'YDR028C'
p2494
F2560.0
sS'YHR105W'
p2495
F0.0
sS'YOR358W'
p2496
F450.0
sS'YDL079C'
p2497
F0.0
sS'YDL002C'
p2498
F1760.0
sS'YNL180C'
p2499
F2180.0
sS'YDR162C'
p2500
F521.0
sS'YJL101C'
p2501
F5130.0
sS'YBL069W'
p2502
F0.0
sS'YNL040W'
p2503
F1470.0
sS'YJL049W'
p2504
F2530.0
sS'YOR129C'
p2505
F768.0
sS'YMR069W'
p2506
F0.0
sS'YBR010W'
p2507
F213000.0
sS'YDL104C'
p2508
F1400.0
sS'YKL119C'
p2509
F2030.0
sS'YPL016W'
p2510
F92.3
sS'YIR025W'
p2511
F0.0
sS'YLR086W'
p2512
F573.0
sS'YER054C'
p2513
F125.0
sS'YKR015C'
p2514
F0.0
sS'YML030W'
p2515
F1210.0
sS'YML065W'
p2516
F3930.0
sS'YMR082C'
p2517
F0.0
sS'YER001W'
p2518
F1780.0
sS'YGL023C'
p2519
F0.0
sS'YPR009W'
p2520
F0.0
sS'YMR115W'
p2521
F8970.0
sS'YDL126C'
p2522
F78400.0
sS'YGR264C'
p2523
F85000.0
sS'YGL258W-A'
p2524
F0.0
sS'YIL129C'
p2525
F206.0
sS'YPL169C'
p2526
F2830.0
sS'YHR161C'
p2527
F623.0
sS'YDL224C'
p2528
F0.0
sS'YLR225C'
p2529
F3990.0
sS'YGL090W'
p2530
F876.0
sS'YGR134W'
p2531
F1320.0
sS'YLR270W'
p2532
F9920.0
sS'YGR169C'
p2533
F377.0
sS'YKL086W'
p2534
F538.0
sS'YBL096C'
p2535
F0.0
sS'YFL028C'
p2536
F1620.0
sS'YNL144C'
p2537
F0.0
sS'YDR371W'
p2538
F3050.0
sS'YDR456W'
p2539
F521.0
sS'YDR324C'
p2540
F5440.0
sS'YJL072C'
p2541
F0.0
sS'YOR112W'
p2542
F1360.0
sS'YPR132W'
p2543
F3340.0
sS'YKL144C'
p2544
F752.0
sS'YNL175C'
p2545
F3830.0
sS'YNL120C'
p2546
F0.0
sS'YLR307W'
p2547
F0.0
sS'YOR356W'
p2548
F3320.0
sS'YGR152C'
p2549
F0.0
sS'YAR027W'
p2550
F1690.0
sS'YHL026C'
p2551
F830.0
sS'YGL221C'
p2552
F6000.0
sS'YGR034W'
p2553
F33200.0
sS'YJR147W'
p2554
F2050.0
sS'YHR128W'
p2555
F0.0
sS'YDR538W'
p2556
F1750.0
sS'YCL011C'
p2557
F2540.0
sS'YIL112W'
p2558
F0.0
sS'YOL104C'
p2559
F0.0
sS'YNR028W'
p2560
F0.0
sS'YAL056W'
p2561
F0.0
sS'YBR250W'
p2562
F0.0
sS'YKL071W'
p2563
F0.0
sS'YPL134C'
p2564
F2840.0
sS'YJL087C'
p2565
F3110.0
sS'YPL143W'
p2566
F0.0
sS'YGL174W'
p2567
F0.0
sS'YOR216C'
p2568
F7620.0
sS'YEL057C'
p2569
F0.0
sS'YBL036C'
p2570
F4890.0
sS'YLR358C'
p2571
F1730.0
sS'YGR183C'
p2572
F4550.0
sS'YPR191W'
p2573
F35700.0
sS'YDL049C'
p2574
F0.0
sS'YHR068W'
p2575
F7600.0
sS'YER071C'
p2576
F799.0
sS'YNL272C'
p2577
F13200.0
sS'YBR048W'
p2578
F1200.0
sS'YNL205C'
p2579
F0.0
sS'YKR081C'
p2580
F32400.0
sS'YLR067C'
p2581
F1160.0
sS'YJL183W'
p2582
F3480.0
sS'YNR042W'
p2583
F0.0
sS'YBL059C-A'
p2584
F279.0
sS'YHR022C'
p2585
F0.0
sS'YOL031C'
p2586
F2420.0
sS'YIR041W'
p2587
F0.0
sS'YNL258C'
p2588
F8970.0
sS'YJR094W-A'
p2589
F45500.0
sS'YKL216W'
p2590
F264000.0
sS'YGR012W'
p2591
F4650.0
sS'YPL041C'
p2592
F0.0
sS'YNL098C'
p2593
F19800.0
sS'YKR097W'
p2594
F0.0
sS'YML102W'
p2595
F2130.0
sS'YCR090C'
p2596
F3970.0
sS'YDR049W'
p2597
F3930.0
sS'YER100W'
p2598
F1900.0
sS'YJL026W'
p2599
F538.0
sS'YCR018C'
p2600
F2100.0
sS'YBL075C'
p2601
F6440.0
sS'YOR160W'
p2602
F6340.0
sS'YGL133W'
p2603
F2610.0
sS'YMR261C'
p2604
F13500.0
sS'YCR036W'
p2605
F1780.0
sS'YGR287C'
p2606
F752.0
sS'YMR170C'
p2607
F2070.0
sS'YCL061C'
p2608
F721.0
sS'YOR238W'
p2609
F892.0
sS'YDR101C'
p2610
F45100.0
sS'YMR158C-A'
p2611
F0.0
sS'YOR146W'
p2612
F0.0
sS'YLR049C'
p2613
F339.0
sS'YBR066C'
p2614
F704.0
sS'YJR079W'
p2615
F907.0
sS'YJR002W'
p2616
F0.0
sS'YDL145C'
p2617
F15200.0
sS'YNL061W'
p2618
F18700.0
sS'YNL034W'
p2619
F0.0
sS'YGL068W'
p2620
F6940.0
sS'YFL014W'
p2621
F4490.0
sS'YIL135C'
p2622
F2180.0
sS'YDR087C'
p2623
F6960.0
sS'YMR294W'
p2624
F0.0
sS'YDR265W'
p2625
F0.0
sS'YBR081C'
p2626
F2360.0
sS'YDR072C'
p2627
F606.0
sS'YGR225W'
p2628
F0.0
sS'YKL178C'
p2629
F0.0
sS'YER056C-A'
p2630
F23600.0
sS'YDR352W'
p2631
F6350.0
sS'YKL129C'
p2632
F155.0
sS'YML051W'
p2633
F784.0
sS'YML084W'
p2634
F0.0
sS'YHR184W'
p2635
F0.0
sS'YMR122W-A'
p2636
F49500.0
sS'YFR024C-A'
p2637
F3670.0
sS'YDR243C'
p2638
F0.0
sS'YLR172C'
p2639
F13500.0
sS'YEL076C-A'
p2640
F0.0
sS'YLR213C'
p2641
F0.0
sS'YKR036C'
p2642
F589.0
sS'YPL195W'
p2643
F13500.0
sS'YIL040W'
p2644
F0.0
sS'YDR471W'
p2645
F22900.0
sS'YMR173W-A'
p2646
F0.0
sS'YOR015W'
p2647
F0.0
sS'YOR040W'
p2648
F0.0
sS'YAL019W'
p2649
F6800.0
sS'YLR344W'
p2650
F0.0
sS'YLL059C'
p2651
F0.0
sS'YLR449W'
p2652
F14100.0
sS'YNL156C'
p2653
F3390.0
sS'YBR219C'
p2654
F0.0
sS'YML123C'
p2655
F335000.0
sS'YNR063W'
p2656
F0.0
sS'YLR239C'
p2657
F1200.0
sS'YJL160C'
p2658
F0.0
sS'YPL075W'
p2659
F259.0
sS'YJR024C'
p2660
F952.0
sS'YJL135W'
p2661
F0.0
sS'YBR142W'
p2662
F981.0
sS'YGR175C'
p2663
F65400.0
sS'YIR017C'
p2664
F0.0
sS'YDR338C'
p2665
F195.0
sS'YKL187C'
p2666
F0.0
sS'YJR126C'
p2667
F112.0
sS'YLR366W'
p2668
F0.0
sS'YDR012W'
p2669
F151000.0
sS'YOL152W'
p2670
F0.0
sS'YOL125W'
p2671
F1230.0
sS'YDR544C'
p2672
F0.0
sS'YDR378C'
p2673
F0.0
sS'YHL003C'
p2674
F0.0
sS'YOR371C'
p2675
F1640.0
sS'YDR034C-A'
p2676
F0.0
sS'YER066C-A'
p2677
F0.0
sS'YJR104C'
p2678
F519000.0
sS'YGR080W'
p2679
F1470.0
sS'YBL011W'
p2680
F1050.0
sS'YDR183W'
p2681
F2250.0
sS'YDR138W'
p2682
F1340.0
sS'YOR317W'
p2683
F7470.0
sS'YNL226W'
p2684
F0.0
sS'YAR064W'
p2685
F1520.0
sS'YAL022C'
p2686
F217.0
sS'YOL078W'
p2687
F704.0
sS'YGL153W'
p2688
F2570.0
sS'YBR277C'
p2689
F0.0
sS'YNL291C'
p2690
F3210.0
sS'YHR218W'
p2691
F0.0
sS'YOR305W'
p2692
F1420.0
sS'YMR211W'
p2693
F0.0
sS'YOR185C'
p2694
F2460.0
sS'YOR244W'
p2695
F1170.0
sS'YEL003W'
p2696
F1660.0
sS'YEL074W'
p2697
F0.0
sS'YGR066C'
p2698
F0.0
sS'YPL244C'
p2699
F0.0
sS'YDR492W'
p2700
F0.0
sS'YGR240C'
p2701
F89800.0
sS'YGL049C'
p2702
F3390.0
sS'YPR052C'
p2703
F3870.0
sS'YPR025C'
p2704
F8700.0
sS'YBR087W'
p2705
F5040.0
sS'YDR446W'
p2706
F0.0
sS'YHR107C'
p2707
F1170.0
sS'YAR002W'
p2708
F4590.0
sS'YMR237W'
p2709
F3460.0
sS'YDR026C'
p2710
F432.0
sS'YEL029C'
p2711
F0.0
sS'YCL076W'
p2712
F0.0
sS'YOL012C'
p2713
F2840.0
sS'YPL219W'
p2714
F396.0
sS'YPL262W'
p2715
F6920.0
sS'YNL182C'
p2716
F0.0
sS'YPL020C'
p2717
F377.0
sS'YCR064C'
p2718
F0.0
sS'YLR289W'
p2719
F1890.0
sS'YCL040W'
p2720
F21100.0
sS'YJL103C'
p2721
F0.0
sS'YNL042W'
p2722
F0.0
sS'YNL308C'
p2723
F1780.0
sS'YPL010W'
p2724
F0.0
sS'YHR058C'
p2725
F4820.0
sS'YJR049C'
p2726
F5040.0
sS'YPR112C'
p2727
F2220.0
sS'YOR102W'
p2728
F0.0
sS'YPR169W'
p2729
F7750.0
sS'YHR085W'
p2730
F4420.0
sS'YML067C'
p2731
F3000.0
sS'YER052C'
p2732
F48100.0
sS'YLR080W'
p2733
F0.0
sS'YDL026W'
p2734
F0.0
sS'YMR184W'
p2735
F1270.0
sS'YKR017C'
p2736
F2250.0
sS'YLR413W'
p2737
F4280.0
sS'YDL120W'
p2738
F1560.0
sS'YGR127W'
p2739
F0.0
sS'YMR113W'
p2740
F2340.0
sS'YMR084W'
p2741
F0.0
sS'YPL162C'
p2742
F1440.0
sS'YGL021W'
p2743
F2190.0
sS'YHR072W-A'
p2744
F0.0
sS'YNL028W'
p2745
F0.0
sS'YHR167W'
p2746
F2840.0
sS'YIL172C'
p2747
F166.0
sS'YKL146W'
p2748
F0.0
sS'YLR227C'
p2749
F0.0
sS'YKL080W'
p2750
F21100.0
sS'YGL096W'
p2751
F0.0
sS'YHR083W'
p2752
F1470.0
sS'YKL160W'
p2753
F5860.0
sS'YBL094C'
p2754
F0.0
sS'YDL091C'
p2755
F233.0
sS'YHR198C'
p2756
F1350.0
sS'YJL129C'
p2757
F0.0
sS'YLR209C'
p2758
F1630.0
sS'YMR026C'
p2759
F907.0
sS'YJL074C'
p2760
F2660.0
sS'YNL177C'
p2761
F1810.0
sS'YKL162C'
p2762
F1100.0
sS'YOR114W'
p2763
F0.0
sS'YDR454C'
p2764
F20500.0
sS'YPR134W'
p2765
F861.0
sS'YFR039C'
p2766
F3170.0
sS'YHL020C'
p2767
F1280.0
sS'YIL009W'
p2768
F6440.0
sS'YFR042W'
p2769
F0.0
sS'YOR066W'
p2770
F0.0
sS'YOR354C'
p2771
F7250.0
sS'YGL223C'
p2772
F2190.0
sS'YOR036W'
p2773
F0.0
sS'YGR032W'
p2774
F0.0
sS'YJR145C'
p2775
F573.0
sS'YGL076C'
p2776
F101000.0
sS'YNL148C'
p2777
F656.0
sS'YOL106W'
p2778
F0.0
sS'YGL218W'
p2779
F0.0
sS'YBR256C'
p2780
F7300.0
sS'YGL118C'
p2781
F0.0
sS'YKL073W'
p2782
F137.0
sS'YNL130C'
p2783
F981.0
sS'YPL141C'
p2784
F556.0
sS'YHR151C'
p2785
F0.0
sS'YJL081C'
p2786
F1070.0
sS'YOR304C-A'
p2787
F656.0
sS'YMR318C'
p2788
F21700.0
sS'YCL018W'
p2789
F0.0
sS'YGR181W'
p2790
F0.0
sS'YPR197C'
p2791
F0.0
sS'YOR214C'
p2792
F0.0
sS'YOR263C'
p2793
F0.0
sS'YGL176C'
p2794
F0.0
sS'YBL030C'
p2795
F0.0
sS'YPL229W'
p2796
F922.0
sS'YNL270C'
p2797
F0.0
sS'YLL054C'
p2798
F339.0
sS'YOR381W'
p2799
F0.0
sS'YER073W'
p2800
F23300.0
sS'YLR012C'
p2801
F0.0
sS'YLR065C'
p2802
F0.0
sS'YBR046C'
p2803
F0.0
sS'YNR040W'
p2804
F1140.0
sS'YIL067C'
p2805
F0.0
sS'YHR020W'
p2806
F0.0
sS'YIL089W'
p2807
F0.0
sS'YOL033W'
p2808
F2940.0
sS'YBR238C'
p2809
F2080.0
sS'YGL058W'
p2810
F2770.0
sS'YKR099W'
p2811
F861.0
sS'YML100W'
p2812
F1960.0
sS'YOR144C'
p2813
F0.0
sS'YKL162C-A'
p2814
F0.0
sS'YMR158W'
p2815
F0.0
sS'YJL024C'
p2816
F1240.0
sS'YDR519W'
p2817
F5400.0
sS'YER102W'
p2818
F14400.0
sS'YER019W'
p2819
F2170.0
sS'YMR263W'
p2820
F704.0
sS'YLR415C'
p2821
F0.0
sS'YLR152C'
p2822
F0.0
sS'YBR211C'
p2823
F1630.0
sS'YLR129W'
p2824
F9620.0
sS'YBL077W'
p2825
F0.0
sS'YNR032C-A'
p2826
F0.0
sS'YOR298W'
p2827
F0.0
sS'YMR172W'
p2828
F149.0
sS'YCR034W'
p2829
F3510.0
sS'YCR043C'
p2830
F4240.0
sS'YLL009C'
p2831
F0.0
sS'YJL146W'
p2832
F1850.0
sS'YMR258C'
p2833
F3080.0
sS'YBR060C'
p2834
F1700.0
sS'YDR103W'
p2835
F1900.0
sS'YMR018W'
p2836
F0.0
sS'YIR023W'
p2837
F704.0
sS'YJL119C'
p2838
F0.0
sS'YKR043C'
p2839
F11500.0
sS'YER053C-A'
p2840
F2360.0
sS'YMR067C'
p2841
F3570.0
sS'YDL143W'
p2842
F5530.0
sS'YKR034W'
p2843
F0.0
sS'YHR044C'
p2844
F752.0
sS'YCL021W-A'
p2845
F0.0
sS'YGL197W'
p2846
F396.0
sS'YDL130W-A'
p2847
F0.0
sS'YNL036W'
p2848
F2330.0
sS'YFL012W'
p2849
F0.0
sS'YMR296C'
p2850
F22400.0
sS'YDR267C'
p2851
F5640.0
sS'YJL208C'
p2852
F3870.0
sS'YOR162C'
p2853
F0.0
sS'YMR098C'
p2854
F2430.0
sS'YOR285W'
p2855
F7470.0
sS'YJL002C'
p2856
F11900.0
sS'YPR159W'
p2857
F4760.0
sS'YGR223C'
p2858
F0.0
sS'YDR074W'
p2859
F22700.0
sS'YPR075C'
p2860
F1160.0
sS'YML053C'
p2861
F656.0
sS'YER099C'
p2862
F8120.0
sS'YDR241W'
p2863
F0.0
sS'YLR174W'
p2864
F2620.0
sS'YPL238C'
p2865
F0.0
sS'YJR120W'
p2866
F0.0
sS'YOR017W'
p2867
F1730.0
sS'YHR005C'
p2868
F9920.0
sS'YDR473C'
p2869
F432.0
sS'YLR393W'
p2870
F1890.0
sS'YDR310C'
p2871
F149.0
sS'YBR217W'
p2872
F0.0
sS'YNL154C'
p2873
F6160.0
sS'YNR065C'
p2874
F0.0
sS'YIL046W'
p2875
F217.0
sS'YFR009W'
p2876
F14600.0
sS'YNL101W'
p2877
F0.0
sS'YDR081C'
p2878
F572.0
sS'YJL137C'
p2879
F981.0
sS'YCL009C'
p2880
F15800.0
sS'YBR115C'
p2881
F7430.0
sS'YIR015W'
p2882
F2070.0
sS'YDR448W'
p2883
F1720.0
sS'YJR111C'
p2884
F1890.0
sS'YPL073C'
p2885
F0.0
sS'YLR360W'
p2886
F1070.0
sS'YKL181W'
p2887
F11700.0
sS'YOL150C'
p2888
F0.0
sS'YPR096C'
p2889
F0.0
sS'YNL293W'
p2890
F178.0
sS'YDR010C'
p2891
F0.0
sS'YOR128C'
p2892
F5410.0
sS'YIL028W'
p2893
F0.0
sS'YDR526C'
p2894
F0.0
sS'YGL054C'
p2895
F7110.0
sS'YAL034C-B'
p2896
F0.0
sS'YML125C'
p2897
F29000.0
sS'YLR251W'
p2898
F1870.0
sS'YDR509W'
p2899
F0.0
sS'YOR028C'
p2900
F0.0
sS'YPL106C'
p2901
F71700.0
sS'YGL151W'
p2902
F2490.0
sS'YJR091C'
p2903
F784.0
sS'YBR271W'
p2904
F217.0
sS'YBL017C'
p2905
F7210.0
sS'YAL024C'
p2906
F304.0
sS'YOR348C'
p2907
F0.0
sS'YJL197W'
p2908
F7110.0
sS'YMR213W'
p2909
F784.0
sS'YBR233W-A'
p2910
F468.0
sS'YLR161W'
p2911
F0.0
sS'YDL006W'
p2912
F1520.0
sS'YDR505C'
p2913
F259.0
sS'YHR132W-A'
p2914
F1400.0
sS'YGR242W'
p2915
F0.0
sS'YGR068C'
p2916
F1970.0
sS'YOR390W'
p2917
F0.0
sS'YPL246C'
p2918
F7850.0
sS'YOR246C'
p2919
F967.0
sS'YGL039W'
p2920
F2340.0
sS'YER066W'
p2921
F0.0
sS'YPR050C'
p2922
F0.0
sS'YGR293C'
p2923
F0.0
sS'YEL001C'
p2924
F7110.0
sS'YMR235C'
p2925
F52200.0
sS'YHR109W'
p2926
F2940.0
sS'YPL270W'
p2927
F3390.0
sS'YHL001W'
p2928
F35100.0
sS'YOR373W'
p2929
F892.0
sS'YHR091C'
p2930
F0.0
sS'YPL260W'
p2931
F0.0
sS'YOR082C'
p2932
F0.0
sS'YOL010W'
p2933
F10000.0
sS'YDR024W'
p2934
F0.0
sS'YOR228C'
p2935
F0.0
sS'YMR111C'
p2936
F238.0
sS'YNL184C'
p2937
F623.0
sS'YMR144W'
p2938
F2120.0
sS'YCR066W'
p2939
F206.0
sS'YBR105C'
p2940
F6650.0
sS'YCR088W'
p2941
F606.0
sS'YDR208W'
p2942
F0.0
sS'YHR087W'
p2943
F2430.0
sS'YBR014C'
p2944
F0.0
sS'YPL012W'
p2945
F8170.0
sS'YPR133W-A'
p2946
F0.0
sS'YDL108W'
p2947
F4400.0
sS'YPR110C'
p2948
F13000.0
sS'YCR073W-A'
p2949
F1160.0
sS'YFL003C'
p2950
F0.0
sS'YDR119W'
p2951
F0.0
sS'YLL037W'
p2952
F0.0
sS'YLR411W'
p2953
F0.0
sS'YDR490C'
p2954
F0.0
sS'YER005W'
p2955
F450.0
sS'YPL034W'
p2956
F0.0
sS'YDL028C'
p2957
F0.0
sS'YER050C'
p2958
F1210.0
sS'YCR008W'
p2959
F1030.0
sS'YLR119W'
p2960
F0.0
sS'YLR082C'
p2961
F538.0
sS'YER190W'
p2962
F0.0
sS'YLR035C'
p2963
F71.6
sS'YDL122W'
p2964
F8970.0
sS'YDL188C'
p2965
F4110.0
sS'YMR086W'
p2966
F0.0
sS'YNL171C'
p2967
F0.0
sS'YIL125W'
p2968
F14300.0
sS'YKL148C'
p2969
F10400.0
sS'YJL076W'
p2970
F1590.0
sS'YHR016C'
p2971
F0.0
sS'YHR165C'
p2972
F468.0
sS'YLR450W'
p2973
F149.0
sS'YKL028W'
p2974
F35900.0
sS'YLR221C'
p2975
F2940.0
sS'YPL165C'
p2976
F0.0
sS'YDL228C'
p2977
F0.0
sS'YKL082C'
p2978
F0.0
sS'YKL166C'
p2979
F1590.0
sS'YDL093W'
p2980
F0.0
sS'YMR024W'
p2981
F300.0
sS'YPL038W'
p2982
F521.0
sS'YPR136C'
p2983
F0.0
sS'YOR116C'
p2984
F6020.0
sS'YLR207W'
p2985
F0.0
sS'YFR040W'
p2986
F5960.0
sS'YLR303W'
p2987
F0.0
sS'YHL022C'
p2988
F0.0
sS'YOR061W'
p2989
F4540.0
sS'YGR030C'
p2990
F3180.0
sS'YOR034C'
p2991
F815.0
sS'YGL094C'
p2992
F1510.0
sS'YJL057C'
p2993
F892.0
sS'YJR162C'
p2994
F0.0
sS'YGR130C'
p2995
F10300.0
sS'YGR165W'
p2996
F3460.0
sS'YGR055W'
p2997
F0.0
sS'YBR254C'
p2998
F1200.0
sS'YBR136W'
p2999
F0.0
sS'YPL186C'
p3000
F0.0
sS'YJL083W'
p3001
F396.0
sS'YPL138C'
p3002
F1680.0
sS'YJL141C'
p3003
F0.0
sS'YKL075C'
p3004
F98.9
sS'YPL147W'
p3005
F0.0
sS'YDR397C'
p3006
F2950.0
sS'YPR195C'
p3007
F0.0
sS'YGR187C'
p3008
F20800.0
sS'YDR056C'
p3009
F1600.0
sS'YDR422C'
p3010
F623.0
sS'YNL276C'
p3011
F0.0
sS'YLL056C'
p3012
F0.0
sS'YBL032W'
p3013
F15600.0
sS'YHL048W'
p3014
F3070.0
sS'YLR010C'
p3015
F0.0
sS'YNL209W'
p3016
F104000.0
sS'YIL061C'
p3017
F736.0
sS'YBL009W'
p3018
F0.0
sS'YNR046W'
p3019
F4800.0
sS'YOL035C'
p3020
F0.0
sS'YCL022C'
p3021
F0.0
sS'YHR026W'
p3022
F0.0
sS'YNL254C'
p3023
F799.0
sS'YDR197W'
p3024
F2140.0
sS'YNL289W'
p3025
F606.0
sS'YML106W'
p3026
F39300.0
sS'YBR062C'
p3027
F195.0
sS'YJL022W'
p3028
F0.0
sS'YGL152C'
p3029
F0.0
sS'YOR142W'
p3030
F18400.0
sS'YPL281C'
p3031
F0.0
sS'YER104W'
p3032
F259.0
sS'YLR150W'
p3033
F46800.0
sS'YEL046C'
p3034
F106000.0
sS'YER040W'
p3035
F589.0
sS'YML008C'
p3036
F53800.0
sS'YDL054C'
p3037
F0.0
sS'YPR019W'
p3038
F8800.0
sS'YMR265C'
p3039
F0.0
sS'YML073C'
p3040
F37100.0
sS'YGL137W'
p3041
F129000.0
sS'YHR143W-A'
p3042
F907.0
sS'YBR044C'
p3043
F0.0
sS'YIR032C'
p3044
F0.0
sS'YER159C'
p3045
F5130.0
sS'YER122C'
p3046
F1510.0
sS'YHR113W'
p3047
F172.0
sS'YER048W-A'
p3048
F2440.0
sS'YCR041W'
p3049
F0.0
sS'YML047W-A'
p3050
F0.0
sS'YNL227C'
p3051
F2310.0
sS'YER031C'
p3052
F5960.0
sS'YMR065W'
p3053
F0.0
sS'YJR006W'
p3054
F626.0
sS'YIR021W'
p3055
F5240.0
sS'YGL002W'
p3056
F0.0
sS'YLR430W'
p3057
F125.0
sS'YJL117W'
p3058
F0.0
sS'YKR041W'
p3059
F217.0
sS'YHR046C'
p3060
F2440.0
sS'YMR130W'
p3061
F0.0
sS'YGL195W'
p3062
F7330.0
sS'YMR290C'
p3063
F0.0
sS'YDL141W'
p3064
F1970.0
sS'YDR269C'
p3065
F0.0
sS'YML009C-A'
p3066
F0.0
sS'YDR076W'
p3067
F1050.0
sS'YOR139C'
p3068
F0.0
sS'YJL059W'
p3069
F0.0
sS'YMR047C'
p3070
F0.0
sS'YNL338W'
p3071
F0.0
sS'YGR221C'
p3072
F56.9
sS'YDR247W'
p3073
F784.0
sS'YGR274C'
p3074
F1500.0
sS'YML055W'
p3075
F4890.0
sS'YPR077C'
p3076
F0.0
sS'YML088W'
p3077
F639.0
sS'YLR176C'
p3078
F377.0
sS'YLR268W'
p3079
F396.0
sS'YOR011W'
p3080
F0.0
sS'YMR323W'
p3081
F0.0
sS'YBR128C'
p3082
F0.0
sS'YDL214C'
p3083
F0.0
sS'YJR122W'
p3084
F2960.0
sS'YNL103W'
p3085
F1300.0
sS'YHR007C'
p3086
F73200.0
sS'YIR004W'
p3087
F8970.0
sS'YLR395C'
p3088
F672.0
sS'YDR312W'
p3089
F1350.0
sS'YLR348C'
p3090
F3390.0
sS'YBR248C'
p3091
F11800.0
sS'YNR067C'
p3092
F64.3
sS'YNL152W'
p3093
F0.0
sS'YHR153C'
p3094
F0.0
sS'YFL045C'
p3095
F3500.0
sS'YFL010C'
p3096
F6020.0
sS'YDR141C'
p3097
F2700.0
sS'YJL131C'
p3098
F319.0
sS'YBR117C'
p3099
F149.0
sS'YDR083W'
p3100
F2780.0
sS'YDR168W'
p3101
F10200.0
sS'YIR013C'
p3102
F0.0
sS'YPL071C'
p3103
F0.0
sS'YKL183W'
p3104
F5930.0
sS'YLR362W'
p3105
F736.0
sS'YPL024W'
p3106
F1500.0
sS'YKL134C'
p3107
F2690.0
sS'YBR273C'
p3108
F2190.0
sS'YOR313C'
p3109
F0.0
sS'YAL026C'
p3110
F606.0
sS'YFL017W-A'
p3111
F1400.0
sS'YAR060C'
p3112
F0.0
sS'YGL237C'
p3113
F0.0
sS'YPR094W'
p3114
F0.0
sS'YNL295W'
p3115
F504.0
sS'YAR035W'
p3116
F0.0
sS'YOL156W'
p3117
F0.0
sS'YOL129W'
p3118
F1900.0
sS'YHR130C'
p3119
F0.0
sS'YBR182C'
p3120
F0.0
sS'YPL040C'
p3121
F1270.0
sS'YIL091C'
p3122
F172.0
sS'YPL104W'
p3123
F1550.0
sS'YLR253W'
p3124
F1600.0
sS'YBR215W'
p3125
F238.0
sS'YIL106W'
p3126
F5020.0
sS'YML127W'
p3127
F2610.0
sS'YLR188W'
p3128
F1040.0
sS'YGR084C'
p3129
F16000.0
sS'YGL157W'
p3130
F2950.0
sS'YBL015W'
p3131
F4890.0
sS'YGR146C'
p3132
F589.0
sS'YNL237W'
p3133
F0.0
sS'YGR077C'
p3134
F538.0
sS'YJL195C'
p3135
F0.0
sS'YDL073W'
p3136
F0.0
sS'YDL004W'
p3137
F0.0
sS'YLR059C'
p3138
F1730.0
sS'YDR059C'
p3139
F981.0
sS'YDR379C-A'
p3140
F861.0
sS'YEL007W'
p3141
F1710.0
sS'YGR291C'
p3142
F0.0
sS'YDR040C'
p3143
F688.0
sS'YPL248C'
p3144
F166.0
sS'YMR233W'
p3145
F2360.0
sS'YDR320C-A'
p3146
F967.0
sS'YNL080C'
p3147
F937.0
sS'YDR022C'
p3148
F486.0
sS'YPL266W'
p3149
F0.0
sS'YLL064C'
p3150
F0.0
sS'YGR051C'
p3151
F0.0
sS'YOR080W'
p3152
F0.0
sS'YGL062W'
p3153
F12500.0
sS'YER169W'
p3154
F2230.0
sS'YOL016C'
p3155
F7500.0
sS'YOR226C'
p3156
F3420.0
sS'YEL025C'
p3157
F0.0
sS'YNL186W'
p3158
F0.0
sS'YCL044C'
p3159
F3410.0
sS'YMR146C'
p3160
F2400.0
sS'YCR060W'
p3161
F1660.0
sS'YBR016W'
p3162
F1760.0
sS'YPR116W'
p3163
F2140.0
sS'YDL247W-A'
p3164
F0.0
sS'YOR198C'
p3165
F33400.0
sS'YHR089C'
p3166
F5730.0
sS'YMR168C'
p3167
F1900.0
sS'YGR204W'
p3168
F35600.0
sS'YLL035W'
p3169
F0.0
sS'YCR006C'
p3170
F0.0
sS'YER007W'
p3171
F2140.0
sS'YPR056W'
p3172
F4630.0
sS'YPL237W'
p3173
F0.0
sS'YDR117C'
p3174
F3870.0
sS'YLR037C'
p3175
F0.0
sS'YMR290W-A'
p3176
F217.0
sS'YCL001W-A'
p3177
F0.0
sS'YJL078C'
p3178
F0.0
sS'YNL173C'
p3179
F1240.0
sS'YGR200C'
p3180
F6090.0
sS'YIL127C'
p3181
F3670.0
sS'YOR338W'
p3182
F0.0
sS'YER044C-A'
p3183
F0.0
sS'YKL165C-A'
p3184
F0.0
sS'YKL051W'
p3185
F0.0
sS'YLR294C'
p3186
F0.0
sS'YPL167C'
p3187
F0.0
sS'YLR223C'
p3188
F1430.0
sS'YJL178C'
p3189
F8970.0
sS'YPR038W'
p3190
F0.0
sS'YKL164C'
p3191
F1170.0
sS'YBL098W'
p3192
F556.0
sS'YKL113C'
p3193
F6120.0
sS'YOR118W'
p3194
F2600.0
sS'YLR205C'
p3195
F0.0
sS'YMR022W'
p3196
F2100.0
sS'YFL059W'
p3197
F0.0
sS'YML094W'
p3198
F2900.0
sS'YKR006C'
p3199
F1360.0
sS'YPR138C'
p3200
F3820.0
sS'YIL005W'
p3201
F6020.0
sS'YNL119W'
p3202
F2860.0
sS'YHR079C'
p3203
F259.0
sS'YNR019W'
p3204
F279.0
sS'YGR158C'
p3205
F7380.0
sS'YKL077W'
p3206
F606.0
sS'YFR046C'
p3207
F1300.0
sS'YDR467C'
p3208
F0.0
sS'YIL058W'
p3209
F0.0
sS'YJR114W'
p3210
F0.0
sS'YJR141W'
p3211
F0.0
sS'YLR354C'
p3212
F53000.0
sS'YIL065C'
p3213
F2410.0
sS'YLR301W'
p3214
F15400.0
sS'YGR098C'
p3215
F0.0
sS'YAL009W'
p3216
F861.0
sS'YJR054W'
p3217
F538.0
sS'YDL160C'
p3218
F42900.0
sS'YGR167W'
p3219
F3490.0
sS'YBR134W'
p3220
F0.0
sS'YBR161W'
p3221
F195.0
sS'YNL002C'
p3222
F7720.0
sS'YPL145C'
p3223
F32200.0
sS'YHL019C'
p3224
F2890.0
sS'YIL118W'
p3225
F5910.0
sS'YPL190C'
p3226
F5830.0
sS'YGL214W'
p3227
F0.0
sS'YGR018C'
p3228
F0.0
sS'YOR267C'
p3229
F300.0
sS'YHL036W'
p3230
F0.0
sS'YOR367W'
p3231
F1580.0
sS'YOR385W'
p3232
F504.0
sS'YGR185C'
p3233
F2710.0
sS'YJL189W'
p3234
F0.0
sS'YLL050C'
p3235
F19600.0
sS'YCL014W'
p3236
F0.0
sS'YGL172W'
p3237
F4760.0
sS'YNL274C'
p3238
F3280.0
sS'YPL023C'
p3239
F0.0
sS'YGL149W'
p3240
F0.0
sS'YIL063C'
p3241
F3620.0
sS'YOL080C'
p3242
F4280.0
sS'YOL037C'
p3243
F0.0
sS'YOL117W'
p3244
F1320.0
sS'YBR283C'
p3245
F704.0
sS'YLR447C'
p3246
F1630.0
sS'YML104C'
p3247
F784.0
sS'YNR033W'
p3248
F1550.0
sS'YNR044W'
p3249
F0.0
sS'YDR195W'
p3250
F7450.0
sS'YNL256W'
p3251
F4590.0
sS'YOL058W'
p3252
F1870.0
sS'YGR072W'
p3253
F1250.0
sS'YER106W'
p3254
F0.0
sS'YCR107W'
p3255
F0.0
sS'YJL020C'
p3256
F0.0
sS'YBR039W'
p3257
F28100.0
sS'YGR258C'
p3258
F846.0
sS'YPL234C'
p3259
F538.0
sS'YDL056W'
p3260
F521.0
sS'YLR156W'
p3261
F0.0
sS'YPR017C'
p3262
F1500.0
sS'YEL044W'
p3263
F1720.0
sS'YML071C'
p3264
F6440.0
sS'YLR016C'
p3265
F1470.0
sS'YER120W'
p3266
F3500.0
sS'YBR042C'
p3267
F2010.0
sS'YHR111W'
p3268
F2620.0
sS'YML129C'
p3269
F6840.0
sS'YCR047C'
p3270
F1620.0
sS'YDR437W'
p3271
F752.0
sS'YOR359W'
p3272
F3200.0
sS'YKL205W'
p3273
F3490.0
sS'YER033C'
p3274
F0.0
sS'YHR040W'
p3275
F2800.0
sS'YML057W'
p3276
F7110.0
sS'YDR178W'
p3277
F7920.0
sS'YKR038C'
p3278
F1270.0
sS'YLR432W'
p3279
F26300.0
sS'YJR004C'
p3280
F0.0
sS'YIR027C'
p3281
F0.0
sS'YJL115W'
p3282
F6230.0
sS'YJR073C'
p3283
F5890.0
sS'YGL004C'
p3284
F2210.0
sS'YMR292W'
p3285
F0.0
sS'YMR132C'
p3286
F3060.0
sS'YPL008W'
p3287
F98.9
sS'YDL116W'
p3288
F8580.0
sS'YMR046W-A'
p3289
F0.0
sS'YGL193C'
p3290
F0.0
sS'YLR409C'
p3291
F2020.0
sS'YPL088W'
p3292
F0.0
sS'YKR065C'
p3293
F3000.0
sS'YMR041C'
p3294
F0.0
sS'YLR078C'
p3295
F0.0
sS'YMR267W'
p3296
F195.0
sS'YDR078C'
p3297
F0.0
sS'YMR109W'
p3298
F2280.0
sS'YDR232W'
p3299
F22600.0
sS'YDR245W'
p3300
F6280.0
sS'YGR276C'
p3301
F0.0
sS'YDL138W'
p3302
F0.0
sS'YOR289W'
p3303
F1710.0
sS'YLR178C'
p3304
F1030.0
sS'YHR175W'
p3305
F0.0
sS'YOR013W'
p3306
F0.0
sS'YDL212W'
p3307
F6510.0
sS'YNL150W'
p3308
F0.0
sS'YNL105W'
p3309
F0.0
sS'YDR314C'
p3310
F78.6
sS'YKL098W'
p3311
F0.0
sS'YJL133W'
p3312
F1360.0
sS'YNL333W'
p3313
F0.0
sS'YBL084C'
p3314
F593.0
sS'YDR143C'
p3315
F172.0
sS'YBR111C'
p3316
F7330.0
sS'YFL047W'
p3317
F1750.0
sS'YPR144C'
p3318
F1630.0
sS'YKL136W'
p3319
F0.0
sS'YGR100W'
p3320
F768.0
sS'YDR349C'
p3321
F149.0
sS'YIR011C'
p3322
F2120.0
sS'YLR201C'
p3323
F3420.0
sS'YDR332W'
p3324
F172.0
sS'YOL154W'
p3325
F0.0
sS'YGL235W'
p3326
F0.0
sS'YBR130C'
p3327
F1010.0
sS'YNL297C'
p3328
F2410.0
sS'YOR344C'
p3329
F486.0
sS'YOR002W'
p3330
F0.0
sS'YDR189W'
p3331
F5780.0
sS'YAL028W'
p3332
F0.0
sS'YPR092W'
p3333
F0.0
sS'YOR079C'
p3334
F0.0
sS'YDR404C'
p3335
F6420.0
sS'YHR132C'
p3336
F468.0
sS'YOL049W'
p3337
F3430.0
sS'YDR014W'
p3338
F721.0
sS'YBR180W'
p3339
F0.0
sS'YIL093C'
p3340
F1920.0
sS'YLR397C'
p3341
F799.0
sS'YPL054W'
p3342
F0.0
sS'YIL104C'
p3343
F7060.0
sS'YIL151C'
p3344
F504.0
sS'YJL215C'
p3345
F0.0
sS'YPL102C'
p3346
F0.0
sS'YLR255C'
p3347
F0.0
sS'YGR144W'
p3348
F0.0
sS'YGR111W'
p3349
F768.0
sS'YGL155W'
p3350
F3940.0
sS'YJR095W'
p3351
F0.0
sS'YER034W'
p3352
F1100.0
sS'YOL063C'
p3353
F125.0
sS'YLR466W'
p3354
F0.0
sS'YJL193W'
p3355
F0.0
sS'YEL027W'
p3356
F8450.0
sS'YOL014W'
p3357
F0.0
sS'YDR123C'
p3358
F784.0
sS'YNL235C'
p3359
F0.0
sS'YLR057W'
p3360
F71.6
sS'YLR320W'
p3361
F0.0
sS'YFR014C'
p3362
F1520.0
sS'YMR231W'
p3363
F1200.0
sS'YLR452C'
p3364
F5980.0
sS'YJR160C'
p3365
F0.0
sS'YOR086C'
p3366
F6140.0
sS'YDR020C'
p3367
F4280.0
sS'YGR053C'
p3368
F0.0
sS'YPL213W'
p3369
F3630.0
sS'YNL082W'
p3370
F521.0
sS'YOR279C'
p3371
F861.0
sS'YPL264C'
p3372
F0.0
sS'YOR224C'
p3373
F6210.0
sS'YGL060W'
p3374
F3870.0
sS'YCL046W'
p3375
F0.0
sS'YGL123W'
p3376
F0.0
sS'YGR191W'
p3377
F688.0
sS'YBL061C'
p3378
F2580.0
sS'YMR140W'
p3379
F556.0
sS'YGR065C'
p3380
F0.0
sS'YPR114W'
p3381
F1920.0
sS'YBR018C'
p3382
F0.0
sS'YPR163C'
p3383
F24000.0
sS'YEL005C'
p3384
F0.0
sS'YDR527W'
p3385
F688.0
sS'YOR242C'
p3386
F3000.0
sS'YCR059C'
p3387
F3030.0
sS'YGR042W'
p3388
F0.0
sS'YCR004C'
p3389
F14600.0
sS'YDR115W'
p3390
F195.0
sS'YLL033W'
p3391
F0.0
sS'YML038C'
p3392
F0.0
sS'YPR054W'
p3393
F0.0
sS'YBR098W'
p3394
F0.0
sS'YLR031W'
p3395
F0.0
sS'YDL159W'
p3396
F672.0
sS'YJR038C'
p3397
F0.0
sS'YGL018C'
p3398
F2010.0
sS'YMR075W'
p3399
F486.0
sS'YGR202C'
p3400
F3050.0
sS'YDR379W'
p3401
F254.0
sS'YHR169W'
p3402
F3500.0
sS'YLR296W'
p3403
F0.0
sS'YDR215C'
p3404
F0.0
sS'YNL059C'
p3405
F2170.0
sS'YEL049W'
p3406
F0.0
sS'YPL161C'
p3407
F6330.0
sS'YIL121W'
p3408
F0.0
sS'YLR278C'
p3409
F1080.0
sS'YOR293W'
p3410
F54100.0
sS'YGR239C'
p3411
F0.0
sS'YKL111C'
p3412
F0.0
sS'YJL041W'
p3413
F2400.0
sS'YDL097C'
p3414
F16800.0
sS'YLR104W'
p3415
F1990.0
sS'YKR004C'
p3416
F846.0
sS'YML096W'
p3417
F3750.0
sS'YHR192W'
p3418
F3390.0
sS'YPL052W'
p3419
F0.0
sS'YIL003W'
p3420
F0.0
sS'YBR163W'
p3421
F1420.0
sS'YDR465C'
p3422
F1600.0
sS'YKL079W'
p3423
F1920.0
sS'YFR044C'
p3424
F22300.0
sS'YFR033C'
p3425
F4490.0
sS'YJR116W'
p3426
F0.0
sS'YGL229C'
p3427
F279.0
sS'YLR356W'
p3428
F0.0
sS'YKL057C'
p3429
F0.0
sS'YGL098W'
p3430
F937.0
sS'YJR056C'
p3431
F1890.0
sS'YDL211C'
p3432
F3360.0
sS'YLR404W'
p3433
F846.0
sS'YGR161C'
p3434
F2100.0
sS'YDL162C'
p3435
F0.0
sS'YPL069C'
p3436
F2840.0
sS'YGL216W'
p3437
F736.0
sS'YFL031W'
p3438
F8970.0
sS'YJR138W'
p3439
F279.0
sS'YKL179C'
p3440
F2650.0
sS'YJL145W'
p3441
F6540.0
sS'YBR132C'
p3442
F0.0
sS'YPL192C'
p3443
F0.0
sS'YNL004W'
p3444
F1990.0
sS'YOR265W'
p3445
F1760.0
sS'YNL067W-A'
p3446
F0.0
sS'YMR061W'
p3447
F5350.0
sS'YPR199C'
p3448
F0.0
sS'YPL194W'
p3449
F238.0
sS'YDR426C'
p3450
F0.0
sS'YOR365C'
p3451
F0.0
sS'YDR394W'
p3452
F0.0
sS'YOR330C'
p3453
F377.0
sS'YAR014C'
p3454
F538.0
sS'YLL052C'
p3455
F0.0
sS'YOL082W'
p3456
F1250.0
sS'YOR030W'
p3457
F0.0
sS'YOR065W'
p3458
F39900.0
sS'YBR267W'
p3459
F830.0
sS'YBR285W'
p3460
F0.0
sS'YOL115W'
p3461
F7550.0
sS'YDR325W'
p3462
F1920.0
sS'YNR031C'
p3463
F217.0
sS'YNL131W'
p3464
F6610.0
sS'YEL020W-A'
p3465
F0.0
sS'YBL005W'
p3466
F166.0
sS'YDR193W'
p3467
F0.0
sS'YDR041W'
p3468
F8480.0
sS'YGL047W'
p3469
F1950.0
sS'YCR105W'
p3470
F2870.0
sS'YBL101C'
p3471
F799.0
sS'YPL236C'
p3472
F0.0
sS'YHR139C-A'
p3473
F0.0
sS'YPL035C'
p3474
F0.0
sS'YPR015C'
p3475
F0.0
sS'YDR488C'
p3476
F752.0
sS'YDL050C'
p3477
F0.0
sS'YLR154C'
p3478
F556.0
sS'YGR256W'
p3479
F556.0
sS'YEL042W'
p3480
F8680.0
sS'YLR123C'
p3481
F0.0
sS'YLR014C'
p3482
F0.0
sS'YER126C'
p3483
F8660.0
sS'YNL121C'
p3484
F45300.0
sS'YHR117W'
p3485
F4110.0
sS'YBR040W'
p3486
F0.0
sS'YPL258C'
p3487
F0.0
sS'YCR045C'
p3488
F0.0
sS'YKL203C'
p3489
F0.0
sS'YIL076W'
p3490
F23100.0
sS'YDL036C'
p3491
F639.0
sS'YCL069W'
p3492
F0.0
sS'YLR434C'
p3493
F0.0
sS'YDR225W'
p3494
F0.0
sS'YML059C'
p3495
F521.0
sS'YKR045C'
p3496
F0.0
sS'YIL014C-A'
p3497
F0.0
sS'YFL067W'
p3498
F0.0
sS'YER035W'
p3499
F538.0
sS'YPR128C'
p3500
F2250.0
sS'YKL156W'
p3501
F43300.0
sS'YHR148W'
p3502
F0.0
sS'YDL110C'
p3503
F2110.0
sS'YMR134W'
p3504
F2950.0
sS'YJR071W'
p3505
F0.0
sS'YHR042W'
p3506
F46600.0
sS'YOR283W'
p3507
F8300.0
sS'YGL006W'
p3508
F98.9
sS'YPL006W'
p3509
F521.0
sS'YKR067W'
p3510
F3100.0
sS'YOR168W'
p3511
F37500.0
sS'YMR043W'
p3512
F8970.0
sS'YML077W'
p3513
F0.0
sS'YER068W'
p3514
F4280.0
sS'YER013W'
p3515
F907.0
sS'YMR269W'
p3516
F0.0
sS'YKL053C-A'
p3517
F3870.0
sS'YMR092C'
p3518
F11100.0
sS'YJL008C'
p3519
F0.0
sS'YGR054W'
p3520
F0.0
sS'YDR230W'
p3521
F0.0
sS'YPR073C'
p3522
F3500.0
sS'YER188W'
p3523
F0.0
sS'YCL010C'
p3524
F1750.0
sS'YDL136W'
p3525
F19100.0
sS'YGR270W'
p3526
F172.0
sS'YHR177W'
p3527
F0.0
sS'YOR332W'
p3528
F16100.0
sS'YDR046C'
p3529
F0.0
sS'YDL245C'
p3530
F0.0
sS'YDR316W'
p3531
F504.0
sS'YNL107W'
p3532
F259.0
sS'YDL210W'
p3533
F0.0
sS'YDR479C'
p3534
F5040.0
sS'YKL096W'
p3535
F2060.0
sS'YBR113W'
p3536
F0.0
sS'YBL086C'
p3537
F396.0
sS'YNL069C'
p3538
F0.0
sS'YGL191W'
p3539
F0.0
sS'YFL041W'
p3540
F2840.0
sS'YJL168C'
p3541
F217.0
sS'YDR145W'
p3542
F930.0
sS'YDR330W'
p3543
F6630.0
sS'YPR146C'
p3544
F0.0
sS'YJL062W'
p3545
F259.0
sS'YNL325C'
p3546
F339.0
sS'YCR098C'
p3547
F0.0
sS'YLR363W-A'
p3548
F6650.0
sS'YDR057W'
p3549
F0.0
sS'YKL130C'
p3550
F4070.0
sS'YOR346W'
p3551
F521.0
sS'YAR031W'
p3552
F259.0
sS'YGL233W'
p3553
F4280.0
sS'YGR113W'
p3554
F0.0
sS'YLR319C'
p3555
F2610.0
sS'YOR341W'
p3556
F2840.0
sS'YDR295C'
p3557
F1500.0
sS'YJR159W'
p3558
F0.0
sS'YHR134W'
p3559
F0.0
sS'YLR426W'
p3560
F2130.0
sS'YBR186W'
p3561
F0.0
sS'YIL153W'
p3562
F4590.0
sS'YLR184W'
p3563
F0.0
sS'YJL217W'
p3564
F721.0
sS'YIL102C'
p3565
F0.0
sS'YLR399C'
p3566
F8100.0
sS'YAL011W'
p3567
F1380.0
sS'YDL155W'
p3568
F892.0
sS'YBR244W'
p3569
F2010.0
sS'YBR179C'
p3570
F1010.0
sS'YPL155C'
p3571
F656.0
sS'YJR097W'
p3572
F2010.0
sS'YGR142W'
p3573
F0.0
sS'YPL100W'
p3574
F6020.0
sS'YLR257W'
p3575
F18600.0
sS'YBL026W'
p3576
F2210.0
sS'YDR121W'
p3577
F2100.0
sS'YNL233W'
p3578
F0.0
sS'YPL211W'
p3579
F5170.0
sS'YDL077C'
p3580
F319.0
sS'YOR222W'
p3581
F0.0
sS'YEL021W'
p3582
F0.0
sS'YOL061W'
p3583
F3310.0
sS'YLR008C'
p3584
F0.0
sS'YHR210C'
p3585
F0.0
sS'YLR464W'
p3586
F0.0
sS'YJL191W'
p3587
F3370.0
sS'YMR219W'
p3588
F0.0
sS'YLR055C'
p3589
F8430.0
sS'YJR061W'
p3590
F0.0
sS'YNR076W'
p3591
F0.0
sS'YFR016C'
p3592
F704.0
sS'YIL077C'
p3593
F922.0
sS'YLR322W'
p3594
F0.0
sS'YDR191W'
p3595
F377.0
sS'YOR379C'
p3596
F0.0
sS'YIL095W'
p3597
F1320.0
sS'YOR084W'
p3598
F2350.0
sS'YNL084C'
p3599
F2610.0
sS'YGL066W'
p3600
F486.0
sS'YOR051C'
p3601
F10800.0
sS'YBR287W'
p3602
F6440.0
sS'YER174C'
p3603
F7800.0
sS'YCL048W'
p3604
F0.0
sS'YMR142C'
p3605
F54200.0
sS'YDL182W'
p3606
F28100.0
sS'YGL121C'
p3607
F0.0
sS'YHR003C'
p3608
F8430.0
sS'YBL067C'
p3609
F125.0
sS'YLR168C'
p3610
F2910.0
sS'YDL019C'
p3611
F1070.0
sS'YNL300W'
p3612
F1480.0
sS'YMR273C'
p3613
F279.0
sS'YOR123C'
p3614
F1110.0
sS'YIR020W-A'
p3615
F0.0
sS'YGR295C'
p3616
F0.0
sS'YCR002C'
p3617
F14100.0
sS'YMR164C'
p3618
F0.0
sS'YDR113C'
p3619
F0.0
sS'YLL031C'
p3620
F300.0
sS'YLR033W'
p3621
F4460.0
sS'YLR088W'
p3622
F0.0
sS'YBR021W'
p3623
F0.0
sS'YBR230C'
p3624
F4750.0
sS'YMR077C'
p3625
F937.0
sS'YJR036C'
p3626
F0.0
sS'YFL008W'
p3627
F5710.0
sS'YAL042C-A'
p3628
F0.0
sS'YDR217C'
p3629
F400.0
sS'YNL020C'
p3630
F1550.0
sS'YLR290C'
p3631
F1420.0
sS'YPL163C'
p3632
F688.0
sS'YIL123W'
p3633
F1800.0
sS'YOL052C-A'
p3634
F784.0
sS'YMR246W'
p3635
F31200.0
sS'YPR161C'
p3636
F2070.0
sS'YOR291W'
p3637
F0.0
sS'YKL117W'
p3638
F33700.0
sS'YMR059W'
p3639
F0.0
sS'YDR062W'
p3640
F54500.0
sS'YJL043W'
p3641
F0.0
sS'YHR190W'
p3642
F10800.0
sS'YLR106C'
p3643
F538.0
sS'YKR002W'
p3644
F17100.0
sS'YDR279W'
p3645
F2340.0
sS'YDL099W'
p3646
F5220.0
sS'YGL226C-A'
p3647
F1010.0
sS'YML090W'
p3648
F0.0
sS'YJL147C'
p3649
F981.0
sS'YIL054W'
p3650
F521.0
sS'YDR463W'
p3651
F1310.0
sS'YIL001W'
p3652
F195.0
sS'YPL149W'
p3653
F606.0
sS'YBR165W'
p3654
F0.0
sS'YHR075C'
p3655
F0.0
sS'YOR282W'
p3656
F0.0
sS'YGL041C'
p3657
F0.0
sS'YFR031C'
p3658
F3290.0
sS'YDR068W'
p3659
F3270.0
sS'YFR012W-A'
p3660
F0.0
sS'YJR110W'
p3661
F1080.0
sS'YIL149C'
p3662
F2770.0
sS'YNR015W'
p3663
F2650.0
sS'YLR350W'
p3664
F5240.0
sS'YBL103C'
p3665
F1050.0
sS'YGR163W'
p3666
F2610.0
sS'YKL022C'
p3667
F2750.0
sS'YKL055C'
p3668
F1760.0
sS'YDL164C'
p3669
F149.0
sS'YJR050W'
p3670
F1990.0
sS'YOR156C'
p3671
F3170.0
sS'YNL006W'
p3672
F589.0
sS'YGL210W'
p3673
F4300.0
sS'YLR376C'
p3674
F876.0
sS'YAL058W'
p3675
F4760.0
sS'YKL101W'
p3676
F0.0
sS'YFL033C'
p3677
F0.0
sS'YJR136C'
p3678
F1470.0
sS'YJL098W'
p3679
F11200.0
sS'YML108W'
p3680
F2610.0
sS'YMR310C'
p3681
F2540.0
sS'YBL038W'
p3682
F2880.0
sS'YHL039W'
p3683
F5170.0
sS'YGR189C'
p3684
F29500.0
sS'YHL042W'
p3685
F0.0
sS'YNL278W'
p3686
F1380.0
sS'YKL047W'
p3687
F2550.0
sS'YOR363C'
p3688
F0.0
sS'YDR396W'
p3689
F0.0
sS'YOR067C'
p3690
F0.0
sS'YGR094W'
p3691
F358.0
sS'YNR048W'
p3692
F4510.0
sS'YGR109C'
p3693
F0.0
sS'YHR028C'
p3694
F0.0
sS'YBR265W'
p3695
F7700.0
sS'YBL007C'
p3696
F952.0
sS'YNR037C'
p3697
F0.0
sS'YOL113W'
p3698
F238.0
sS'YCL024W'
p3699
F538.0
sS'YOL084W'
p3700
F0.0
sS'YAL032C'
p3701
F1670.0
sS'YGL145W'
p3702
F6020.0
sS'YNL283C'
p3703
F0.0
sS'YNL252C'
p3704
F7430.0
sS'YGL248W'
p3705
F1400.0
sS'YDR511W'
p3706
F195.0
sS'YDL177C'
p3707
F907.0
sS'YBR068C'
p3708
F8660.0
sS'YDR043C'
p3709
F556.0
sS'YGR076C'
p3710
F1550.0
sS'YEL015W'
p3711
F2340.0
sS'YGR254W'
p3712
F76700.0
sS'YEL040W'
p3713
F0.0
sS'YPR013C'
p3714
F195.0
sS'YPL230W'
p3715
F0.0
sS'YKL087C'
p3716
F0.0
sS'YHR115C'
p3717
F2790.0
sS'YER124C'
p3718
F3080.0
sS'YER153C'
p3719
F468.0
sS'YPL256C'
p3720
F1270.0
sS'YDL034W'
p3721
F0.0
sS'YKL201C'
p3722
F0.0
sS'YOL026C'
p3723
F0.0
sS'YGL204C'
p3724
F0.0
sS'YDL069C'
p3725
F556.0
sS'YPL216W'
p3726
F3060.0
sS'YDR236C'
p3727
F830.0
sS'YER037W'
p3728
F195.0
sS'YCR092C'
p3729
F736.0
sS'YDR160W'
p3730
F0.0
sS'YJL111W'
p3731
F0.0
sS'YIR042C'
p3732
F0.0
sS'YNL192W'
p3733
F0.0
sS'YLL010C'
p3734
F5620.0
sS'YLR436C'
p3735
F1080.0
sS'YJR077C'
p3736
F0.0
sS'YDL112W'
p3737
F861.0
sS'YBR002C'
p3738
F8970.0
sS'YKL109W'
p3739
F0.0
sS'YKL154W'
p3740
F8250.0
sS'YOL019W'
p3741
F0.0
sS'YLR121C'
p3742
F0.0
sS'YDL052C'
p3743
F0.0
sS'YKR061W'
p3744
F0.0
sS'YML075C'
p3745
F0.0
sS'YML002W'
p3746
F0.0
sS'YLR052W'
p3747
F2280.0
sS'YER011W'
p3748
F623.0
sS'YMR090W'
p3749
F704.0
sS'YHR099W'
p3750
F0.0
sS'YKL132C'
p3751
F0.0
sS'YHR171W'
p3752
F0.0
sS'YKL189W'
p3753
F1280.0
sS'YKL094W'
p3754
F2140.0
sS'YOL030W'
p3755
F11700.0
sS'YDR318W'
p3756
F952.0
sS'YER080W'
p3757
F8200.0
sS'YPL179W'
p3758
F319.0
sS'YDL247W'
p3759
F0.0
sS'YJR019C'
p3760
F0.0
sS'YFR032C-A'
p3761
F51100.0
sS'YDR147W'
p3762
F3420.0
sS'YMR031C'
p3763
F5570.0
sS'YBL080C'
p3764
F1390.0
sS'YMR136W'
p3765
F0.0
sS'YDL083C'
p3766
F0.0
sS'YPL022W'
p3767
F1400.0
sS'YDR440W'
p3768
F2160.0
sS'YJL060W'
p3769
F1600.0
sS'YOR100C'
p3770
F0.0
sS'YPL095C'
p3771
F573.0
sS'YNL327W'
p3772
F0.0
sS'YPR140W'
p3773
F1340.0
sS'YGL059W'
p3774
F450.0
sS'YML034C-A'
p3775
F0.0
sS'YGR115C'
p3776
F0.0
sS'YBR279W'
p3777
F1040.0
sS'YAR033W'
p3778
F0.0
sS'YOR340C'
p3779
F4070.0
sS'YGR140W'
p3780
F1350.0
sS'YOL158C'
p3781
F0.0
sS'YOR122C'
p3782
F0.0
sS'YBR151W'
p3783
F2000.0
sS'YBR184W'
p3784
F0.0
sS'YGL231C'
p3785
F1320.0
sS'YHR136C'
p3786
F2180.0
sS'YDR018C'
p3787
F0.0
sS'YDR297W'
p3788
F54300.0
sS'YFL065C'
p3789
F0.0
sS'YBR246W'
p3790
F2640.0
sS'YIL100W'
p3791
F0.0
sS'YLR186W'
p3792
F0.0
sS'YIL155C'
p3793
F1670.0
sS'YPL065W'
p3794
F1420.0
sS'YJL211C'
p3795
F0.0
sS'YAL013W'
p3796
F0.0
sS'YDR098C'
p3797
F11000.0
sS'YJR099W'
p3798
F0.0
sS'YLR259C'
p3799
F0.0
sS'YPL157W'
p3800
F0.0
sS'YKL005C'
p3801
F892.0
sS'YDR418W'
p3802
F50300.0
sS'YGL166W'
p3803
F1760.0
sS'YBL024W'
p3804
F16100.0
sS'YOL067C'
p3805
F2190.0
sS'YOR275C'
p3806
F2880.0
sS'YDL075W'
p3807
F0.0
sS'YDR127W'
p3808
F6420.0
sS'YOL018C'
p3809
F0.0
sS'YOR220W'
p3810
F967.0
sS'YLL048C'
p3811
F3000.0
sS'YNL264C'
p3812
F5040.0
sS'YHR212C'
p3813
F0.0
sS'YLR053C'
p3814
F0.0
sS'YLR462W'
p3815
F0.0
sS'YPR203W'
p3816
F0.0
sS'YIL075C'
p3817
F4750.0
sS'YNL335W'
p3818
F0.0
sS'YIL020C'
p3819
F6490.0
sS'YOL098C'
p3820
F8120.0
sS'YNR074C'
p3821
F1560.0
sS'YHR014W'
p3822
F0.0
sS'YIL097W'
p3823
F784.0
sS'YOL045W'
p3824
F2220.0
sS'YFR010W'
p3825
F6770.0
sS'YHL009C'
p3826
F1680.0
sS'YDR251W'
p3827
F300.0
sS'YOR053W'
p3828
F0.0
sS'YIL008W'
p3829
F1240.0
sS'YOR236W'
p3830
F1080.0
sS'YPR016W-A'
p3831
F0.0
sS'YNL048W'
p3832
F3140.0
sS'YNL086W'
p3833
F195.0
sS'YGL064C'
p3834
F736.0
sS'YPR126C'
p3835
F0.0
sS'YMR119W'
p3836
F0.0
sS'YER176W'
p3837
F736.0
sS'YPL279C'
p3838
F0.0
sS'YDL180W'
p3839
F0.0
sS'YGL127C'
p3840
F468.0
sS'YKL220C'
p3841
F0.0
sS'YLR166C'
p3842
F2340.0
sS'YMR271C'
p3843
F815.0
sS'YBL065W'
p3844
F0.0
sS'YPL004C'
p3845
F104000.0
sS'YMR199W'
p3846
F319.0
sS'YER118C'
p3847
F2330.0
sS'YMR162C'
p3848
F0.0
sS'YEL009C'
p3849
F0.0
sS'YKR106W'
p3850
F0.0
sS'YDR498C'
p3851
F4910.0
sS'YLL066C'
p3852
F0.0
sS'YDR111C'
p3853
F3480.0
sS'YBR023C'
p3854
F1510.0
sS'YER058W'
p3855
F0.0
sS'YMR071C'
p3856
F0.0
sS'YBR299W'
p3857
F4030.0
sS'YKR055W'
p3858
F0.0
sS'YIR035C'
p3859
F2370.0
sS'YJR034W'
p3860
F0.0
sS'YOR003W'
p3861
F0.0
sS'YNL026W'
p3862
F0.0
sS'YGR206W'
p3863
F752.0
sS'YGL189C'
p3864
F16300.0
sS'YDR211W'
p3865
F33800.0
sS'YOR125C'
p3866
F0.0
sS'YPR167C'
p3867
F217.0
sS'YJL045W'
p3868
F0.0
sS'YMR057C'
p3869
F0.0
sS'YNL306W'
p3870
F5300.0
sS'YOR297C'
p3871
F4440.0
sS'YDR060W'
p3872
F15000.0
sS'YDR407C'
p3873
F259.0
sS'YHR196W'
p3874
F20000.0
sS'YER014C-A'
p3875
F0.0
sS'YDR277C'
p3876
F0.0
sS'YPR067W'
p3877
F1560.0
sS'YML092C'
p3878
F7060.0
sS'YML025C'
p3879
F1180.0
sS'YLR100W'
p3880
F0.0
sS'YJR134C'
p3881
F300.0
sS'YBR167C'
p3882
F0.0
sS'YPL196W'
p3883
F1560.0
sS'YJL149W'
p3884
F195.0
sS'YNR017W'
p3885
F1440.0
sS'YNL168C'
p3886
F2550.0
sS'YFR037C'
p3887
F3380.0
sS'YDR364C'
p3888
F1630.0
sS'YHR077C'
p3889
F1280.0
sS'YPL056C'
p3890
F0.0
sS'YIL056W'
p3891
F279.0
sS'YDR461W'
p3892
F28900.0
sS'YNL113W'
p3893
F8680.0
sS'YLR229C'
p3894
F0.0
sS'YJR052W'
p3895
F937.0
sS'YPR109W'
p3896
F0.0
sS'YLR292C'
p3897
F5290.0
sS'YKL020C'
p3898
F432.0
sS'YFR019W'
p3899
F149.0
sS'YLR312W-A'
p3900
F6490.0
sS'YGL120C'
p3901
F16900.0
sS'YDL166C'
p3902
F8350.0
sS'YGL212W'
p3903
F2360.0
sS'YLR374C'
p3904
F0.0
sS'YNL008C'
p3905
F0.0
sS'YOL111C'
p3906
F6510.0
sS'YDR004W'
p3907
F238.0
sS'YMR312W'
p3908
F0.0
sS'YIL161W'
p3909
F1230.0
sS'YOL144W'
p3910
F2170.0
sS'YPL121C'
p3911
F0.0
sS'YGL178W'
p3912
F1240.0
sS'YPL249C-A'
p3913
F5370.0
sS'YGR121C'
p3914
F0.0
sS'YDL134C'
p3915
F5620.0
sS'YLR243W'
p3916
F0.0
sS'YGR096W'
p3917
F0.0
sS'YHR066W'
p3918
F8150.0
sS'YJR112W'
p3919
F2070.0
sS'YDL231C'
p3920
F0.0
sS'YMR153C-A'
p3921
F0.0
sS'YDR503C'
p3922
F300.0
sS'YIL069C'
p3923
F6160.0
sS'YJR083C'
p3924
F1140.0
sS'YGL037C'
p3925
F7720.0
sS'YNL135C'
p3926
F43300.0
sS'YAL030W'
p3927
F0.0
sS'YGL147C'
p3928
F52400.0
sS'YBR263W'
p3929
F17700.0
sS'YOL086C'
p3930
F0.0
sS'YBL001C'
p3931
F1900.0
sS'YNR035C'
p3932
F13400.0
sS'YBR232C'
p3933
F0.0
sS'YKL141W'
p3934
F238.0
sS'YDL032W'
p3935
F0.0
sS'YMR252C'
p3936
F172.0
sS'YCR101C'
p3937
F0.0
sS'YGL246C'
p3938
F4030.0
sS'YDR045C'
p3939
F0.0
sS'YPL232W'
p3940
F450.0
sS'YEL017W'
p3941
F1300.0
sS'YGR252W'
p3942
F1180.0
sS'YGR003W'
p3943
F172.0
sS'YDR517W'
p3944
F2730.0
sS'YGR074W'
p3945
F2400.0
sS'YOR256C'
p3946
F300.0
sS'YPR011C'
p3947
F0.0
sS'YPR044C'
p3948
F0.0
sS'YHL040C'
p3949
F0.0
sS'YOR361C'
p3950
F47500.0
sS'YGR029W'
p3951
F0.0
sS'YOR334W'
p3952
F768.0
sS'YGL078C'
p3953
F38900.0
sS'YER151C'
p3954
F2210.0
sS'YOL024W'
p3955
F0.0
sS'YPL209C'
p3956
F149.0
sS'YOR382W'
p3957
F0.0
sS'YEL039C'
p3958
F1310.0
sS'YDR258C'
p3959
F2990.0
sS'YPL254W'
p3960
F7950.0
sS'YFL063W'
p3961
F0.0
sS'YLL012W'
p3962
F7770.0
sS'YCR076C'
p3963
F358.0
sS'YLR438W'
p3964
F72000.0
sS'YCR094W'
p3965
F589.0
sS'YNL190W'
p3966
F1380.0
sS'YDR234W'
p3967
F7350.0
sS'YDL239C'
p3968
F0.0
sS'YER039C'
p3969
F0.0
sS'YIR029W'
p3970
F0.0
sS'YKR049C'
p3971
F1240.0
sS'YPR179C'
p3972
F1100.0
sS'YDL149W'
p3973
F0.0
sS'YPL002C'
p3974
F1040.0
sS'YJR075W'
p3975
F7160.0
sS'YPR124W'
p3976
F1180.0
sS'YNL210W'
p3977
F0.0
sS'YLR127C'
p3978
F432.0
sS'YER017C'
p3979
F3870.0
sS'YKR063C'
p3980
F647.0
sS'YLR027C'
p3981
F7700.0
sS'YDL132W'
p3982
F377.0
sS'YHR097C'
p3983
F0.0
sS'YMR096W'
p3984
F0.0
sS'YGR229C'
p3985
F5680.0
sS'YGL175C'
p3986
F1030.0
sS'YER082C'
p3987
F5800.0
sS'YKL069W'
p3988
F2610.0
sS'YHR173C'
p3989
F149.0
sS'YMR003W'
p3990
F2820.0
sS'YPL177C'
p3991
F521.0
sS'YKL092C'
p3992
F1230.0
sS'YDR322C-A'
p3993
F4590.0
sS'YLR260W'
p3994
F1760.0
sS'YDL241W'
p3995
F1300.0
sS'YKL152C'
p3996
F172000.0
sS'YMR001C'
p3997
F1480.0
sS'YBL082C'
p3998
F0.0
sS'YDL081C'
p3999
F0.0
sS'YLR149C'
p4000
F0.0
sS'YMR138W'
p4001
F468.0
sS'YFL018C'
p4002
F24600.0
sS'YDR149C'
p4003
F0.0
sS'YJL139C'
p4004
F6400.0
sS'YPL097W'
p4005
F996.0
sS'YOR339C'
p4006
F0.0
sS'YDR334W'
p4007
F656.0
sS'YLR375W'
p4008
F1240.0
sS'YPR142C'
p4009
F0.0
sS'YMR038C'
p4010
F12000.0
sS'YJL066C'
p4011
F3390.0
sS'YNL321W'
p4012
F259.0
sS'YGR117C'
p4013
F1280.0
sS'YHR033W'
p4014
F0.0
sS'YOR342C'
p4015
F1360.0
sS'YFR029W'
p4016
F0.0
sS'YBR153W'
p4017
F0.0
sS'YOR073W'
p4018
F0.0
sS'YOR008C'
p4019
F664.0
sS'YDR291W'
p4020
F259.0
sS'YMR289W'
p4021
F768.0
sS'YAL015C'
p4022
F0.0
sS'YBR240C'
p4023
F0.0
sS'YIL157C'
p4024
F1680.0
sS'YNL074C'
p4025
F0.0
sS'YPL151C'
p4026
F1770.0
sS'YKL007W'
p4027
F4380.0
sS'YLR180W'
p4028
F103000.0
sS'YJL213W'
p4029
F0.0
sS'YDR416W'
p4030
F2170.0
sS'YOR277C'
p4031
F0.0
sS'YGL129C'
p4032
F1300.0
sS'YPR074W-A'
p4033
F0.0
sS'YOL065C'
p4034
F1200.0
sS'YMR181C'
p4035
F721.0
sS'YBL022C'
p4036
F14500.0
sS'YGL164C'
p4037
F3670.0
sS'YOL130W'
p4038
F0.0
sS'YDR125C'
p4039
F143.0
sS'YHR214W'
p4040
F0.0
sS'YLR460C'
p4041
F799.0
sS'YLL046C'
p4042
F0.0
sS'YMR135W-A'
p4043
F0.0
sS'YLR051C'
p4044
F0.0
sS'YLR004C'
p4045
F0.0
sS'YFR012W'
p4046
F0.0
sS'YPR201W'
p4047
F0.0
sS'YIL073C'
p4048
F0.0
sS'YOR284W'
p4049
F1360.0
sS'YNR072W'
p4050
F0.0
sS'YOL047C'
p4051
F155.0
sS'YHR012W'
p4052
F259.0
sS'YIL022W'
p4053
F0.0
sS'YNL248C'
p4054
F0.0
sS'YDR336W'
p4055
F0.0
sS'YOR055W'
p4056
F0.0
sS'YLR326W'
p4057
F1520.0
sS'YML132W'
p4058
F639.0
sS'YBR025C'
p4059
F36800.0
sS'YDL186W'
p4060
F0.0
sS'YKL128C'
p4061
F3250.0
sS'YER170W'
p4062
F704.0
sS'YKL222C'
p4063
F0.0
sS'YLR139C'
p4064
F3430.0
sS'YMR277W'
p4065
F6550.0
sS'YML049C'
p4066
F0.0
sS'YCR068W'
p4067
F3060.0
sS'YLR446W'
p4068
F0.0
sS'YGL125W'
p4069
F8600.0
sS'YLR164W'
p4070
F0.0
sS'YKR104W'
p4071
F0.0
sS'YOR248W'
p4072
F0.0
sS'YER116C'
p4073
F0.0
sS'YMR160W'
p4074
F279.0
sS'YCL073C'
p4075
F0.0
sS'YMR197C'
p4076
F0.0
sS'YAR071W'
p4077
F1460.0
sS'YLL060C'
p4078
F0.0
sS'YKL219W'
p4079
F0.0
sS'YJR032W'
p4080
F3230.0
sS'YIR037W'
p4081
F8120.0
sS'YGL012W'
p4082
F1640.0
sS'YOL057W'
p4083
F3260.0
sS'YMR073C'
p4084
F450.0
sS'YFR004W'
p4085
F16400.0
sS'YDR213W'
p4086
F752.0
sS'YNL053W'
p4087
F538.0
sS'YGR208W'
p4088
F13800.0
sS'YNL024C'
p4089
F1760.0
sS'YKR079C'
p4090
F2710.0
sS'YMR055C'
p4091
F0.0
sS'YDR066C'
p4092
F1050.0
sS'YOR190W'
p4093
F0.0
sS'YNL304W'
p4094
F2850.0
sS'YPR165W'
p4095
F0.0
sS'YJL047C'
p4096
F0.0
sS'YDR275W'
p4097
F922.0
sS'YEL061C'
p4098
F238.0
sS'YML027W'
p4099
F861.0
sS'YML128C'
p4100
F1070.0
sS'YHR194W'
p4101
F1200.0
sS'YGR288W'
p4102
F0.0
sS'YOR295W'
p4103
F639.0
sS'YLR102C'
p4104
F0.0
sS'YPR030W'
p4105
F0.0
sS'YDL208W'
p4106
F0.0
sS'YFL037W'
p4107
F0.0
sS'YJR132W'
p4108
F13500.0
sS'YPL198W'
p4109
F7080.0
sS'YDR366C'
p4110
F0.0
sS'YFR035C'
p4111
F0.0
sS'YNL111C'
p4112
F5390.0
sS'YPL058C'
p4113
F752.0
sS'YNR011C'
p4114
F172.0
sS'YIL050W'
p4115
F3390.0
sS'YLR309C'
p4116
F2350.0
sS'YDR153C'
p4117
F8100.0
sS'YJL170C'
p4118
F0.0
sS'YKL026C'
p4119
F0.0
sS'YDR308C'
p4120
F1390.0
sS'YLR372W'
p4121
F0.0
sS'YLR389C'
p4122
F0.0
sS'YDL168W'
p4123
F8370.0
sS'YER003C'
p4124
F5220.0
sS'YBR234C'
p4125
F0.0
sS'YIL163C'
p4126
F0.0
sS'YBR261C'
p4127
F3060.0
sS'YPR088C'
p4128
F0.0
sS'YNL253W'
p4129
F0.0
sS'YNL287W'
p4130
F77900.0
sS'YOL146W'
p4131
F2210.0
sS'YHR144C'
p4132
F1510.0
sS'YDR006C'
p4133
F0.0
sS'YMR158W-B'
p4134
F0.0
sS'YGR123C'
p4135
F6990.0
sS'YMR314W'
p4136
F7210.0
sS'YPL118W'
p4137
F656.0
sS'YLR241W'
p4138
F0.0
sS'YGR090W'
p4139
F3260.0
sS'YDL233W'
p4140
F1010.0
sS'YNL132W'
p4141
F0.0
sS'YBR029C'
p4142
F0.0
sS'YJR149W'
p4143
F172.0
sS'YGL141W'
p4144
F3120.0
sS'YNL137C'
p4145
F3270.0
sS'YAL036C'
p4146
F11700.0
sS'YBL003C'
p4147
F32100.0
sS'YHR005C-A'
p4148
F0.0
sS'YHR208W'
p4149
F87300.0
sS'YDL065C'
p4150
F5350.0
sS'YGL244W'
p4151
F6510.0
sS'YMR254C'
p4152
F0.0
sS'YBR296C'
p4153
F0.0
sS'YDL030W'
p4154
F3920.0
sS'YEL011W'
p4155
F1230.0
sS'YGR001C'
p4156
F3060.0
sS'YGR250C'
p4157
F1910.0
sS'YDR515W'
p4158
F861.0
sS'YOR254C'
p4159
F17700.0
sS'YOR201C'
p4160
F2760.0
sS'YGL250W'
p4161
F1820.0
sS'YAR047C'
p4162
F0.0
sS'YHR119W'
p4163
F172.0
sS'YBR166C'
p4164
F2180.0
sS'YOR336W'
p4165
F815.0
sS'YPL252C'
p4166
F14800.0
sS'YOR094W'
p4167
F1240.0
sS'YER157W'
p4168
F4140.0
sS'YOL022C'
p4169
F125.0
sS'YEL037C'
p4170
F10900.0
sS'YBL059W'
p4171
F623.0
sS'YCR096C'
p4172
F0.0
sS'YFL061W'
p4173
F0.0
sS'YNL196C'
p4174
F0.0
sS'YMR101C'
p4175
F0.0
sS'YCL050C'
p4176
F19600.0
sS'YCR021C'
p4177
F7800.0
sS'YPR079W'
p4178
F0.0
sS'YDR170C'
p4179
F3670.0
sS'YPR122W'
p4180
F623.0
sS'YHR048W'
p4181
F0.0
sS'YNL318C'
p4182
F0.0
sS'YJL039C'
p4183
F2520.0
sS'YBR006W'
p4184
F0.0
sS'YJL062W-A'
p4185
F2530.0
sS'YNL212W'
p4186
F3500.0
sS'YDR387C'
p4187
F0.0
sS'YER015W'
p4188
F358.0
sS'YMR247C'
p4189
F222.0
sS'YML006C'
p4190
F222.0
sS'YAL056C-A'
p4191
F0.0
sS'YDR439W'
p4192
F1390.0
sS'YPR037C'
p4193
F259.0
sS'YLR401C'
p4194
F3630.0
sS'YLR125W'
p4195
F0.0
sS'YHR095W'
p4196
F0.0
sS'YLR070C'
p4197
F0.0
sS'YDL130W'
p4198
F22400.0
sS'YLR025W'
p4199
F3270.0
sS'YER139C'
p4200
F5480.0
sS'YMR094W'
p4201
F0.0
sS'YDR341C'
p4202
F20600.0
sS'YJL013C'
p4203
F3170.0
sS'YJL064W'
p4204
F0.0
sS'YER019C-A'
p4205
F414.0
sS'YKR021W'
p4206
F414.0
sS'YNL018C'
p4207
F0.0
sS'YKL067W'
p4208
F7130.0
sS'YKL090W'
p4209
F0.0
sS'YMR005W'
p4210
F1940.0
sS'YLR262C'
p4211
F7720.0
sS'YDL243C'
p4212
F0.0
sS'YER084W'
p4213
F300.0
sS'YPL175W'
p4214
F1480.0
sS'YKL105C'
p4215
F538.0
sS'YDL087C'
p4216
F2270.0
sS'YKL150W'
p4217
F1920.0
sS'YMR225C'
p4218
F1560.0
sS'YOR173W'
p4219
F1810.0
sS'YNL323W'
p4220
F2460.0
sS'YFR031C-A'
p4221
F0.0
sS'YPL091W'
p4222
F7600.0
sS'YML068W'
p4223
F846.0
sS'YIR008C'
p4224
F197.0
sS'YKL186C'
p4225
F0.0
sS'YPL217C'
p4226
F0.0
sS'YDR524C'
p4227
F396.0
sS'YOR333C'
p4228
F0.0
sS'YDR293C'
p4229
F1100.0
sS'YBR155W'
p4230
F672.0
sS'YEL023C'
p4231
F0.0
sS'YOR071C'
p4232
F0.0
sS'YPL171C'
p4233
F0.0
sS'YGR028W'
p4234
F3530.0
sS'YAL017W'
p4235
F967.0
sS'YBR242W'
p4236
F2730.0
sS'YNL158W'
p4237
F6940.0
sS'YBR108W'
p4238
F0.0
sS'YJL151C'
p4239
F12500.0
sS'YNL076W'
p4240
F0.0
sS'YLR182W'
p4241
F3340.0
sS'YKL001C'
p4242
F2170.0
sS'YBR173C'
p4243
F2740.0
sS'YHR045W'
p4244
F0.0
sS'YDR386W'
p4245
F300.0
sS'YMR308C'
p4246
F15500.0
sS'YGL162W'
p4247
F1100.0
sS'YOR271C'
p4248
F9290.0
sS'YMR183C'
p4249
F1720.0
sS'YDR414C'
p4250
F0.0
sS'YFL055W'
p4251
F0.0
sS'YLL044W'
p4252
F0.0
sS'YOL132W'
p4253
F0.0
sS'YHR216W'
p4254
F7870.0
sS'YNL260C'
p4255
F784.0
sS'YBL020W'
p4256
F0.0
sS'YHR010W'
p4257
F7380.0
sS'YDR400W'
p4258
F0.0
sS'YNL231C'
p4259
F15400.0
sS'YIL024C'
p4260
F1540.0
sS'YNL218W'
p4261
F1180.0
sS'YOL041C'
p4262
F5910.0
sS'YIL071C'
p4263
F504.0
sS'YOL109W'
p4264
F0.0
sS'YNR025C'
p4265
F0.0
sS'YER060W-A'
p4266
F0.0
sS'YNR070W'
p4267
F0.0
sS'YML130C'
p4268
F0.0
sS'YJL156W-A'
p4269
F0.0
sS'YLR328W'
p4270
F5130.0
sS'YBR228W'
p4271
F0.0
sS'YNL246W'
p4272
F3120.0
sS'YGR046W'
p4273
F195.0
sS'YLR039C'
p4274
F78.6
sS'YNL097C'
p4275
F3250.0
sS'YDR039C'
p4276
F639.0
sS'YBR090C'
p4277
F0.0
sS'YBR027C'
p4278
F0.0
sS'YGL057C'
p4279
F0.0
sS'YER172C'
p4280
F1440.0
sS'YDL184C'
p4281
F11900.0
sS'YDL046W'
p4282
F2840.0
sS'YLR162W'
p4283
F0.0
sS'YKL224C'
p4284
F0.0
sS'YEL058W'
p4285
F14700.0
sS'YMR019W'
p4286
F98.9
sS'YMR148W'
p4287
F922.0
sS'YFL034C-A'
p4288
F74700.0
sS'YFL034C-B'
p4289
F2250.0
sS'YML047C'
p4290
F0.0
sS'YLR006C'
p4291
F1200.0
sS'YKR102W'
p4292
F0.0
sS'YER149C'
p4293
F7820.0
sS'YER114C'
p4294
F688.0
sS'YHR127W'
p4295
F2140.0
sS'YOR300W'
p4296
F0.0
sS'YIL086C'
p4297
F0.0
sS'YAR073W'
p4298
F0.0
sS'YMR228W'
p4299
F9380.0
sS'YLL062C'
p4300
F606.0
sS'YHL014C'
p4301
F2360.0
sS'YER045C'
p4302
F0.0
sS'YMR028W'
p4303
F0.0
sS'YLR422W'
p4304
F238.0
sS'YLR093C'
p4305
F1890.0
sS'YIR031C'
p4306
F0.0
sS'YJR065C'
p4307
F6650.0
sS'YJR030C'
p4308
F0.0
sS'YBR297W'
p4309
F0.0
sS'YMR030W'
p4310
F0.0
sS'YDL151C'
p4311
F0.0
sS'YGL010W'
p4312
F486.0
sS'YMR122C'
p4313
F0.0
sS'YDR034W-B'
p4314
F861.0
sS'YDR064W'
p4315
F0.0
sS'YMR275C'
p4316
F486.0
sS'YLR456W'
p4317
F589.0
sS'YOR192C'
p4318
F0.0
sS'YMR202W'
p4319
F2640.0
sS'YKR077W'
p4320
F861.0
sS'YDR273W'
p4321
F0.0
sS'YPR063C'
p4322
F2140.0
sS'YGR231C'
p4323
F2850.0
sS'YEL063C'
p4324
F0.0
sS'YDR326C'
p4325
F0.0
sS'YML021C'
p4326
F4820.0
sS'YPR032W'
p4327
F0.0
sS'YJR130C'
p4328
F2070.0
sS'YFL039C'
p4329
F0.0
sS'YNL117W'
p4330
F0.0
sS'YIL052C'
p4331
F21000.0
sS'YAL069W'
p4332
F0.0
sS'YPL064C'
p4333
F2360.0
sS'YNR013C'
p4334
F4280.0
sS'YDR360W'
p4335
F0.0
sS'YHR073W'
p4336
F589.0
sS'YJL172W'
p4337
F721.0
sS'YDR151C'
p4338
F0.0
sS'YBL078C'
p4339
F2010.0
sS'YNL051W'
p4340
F468.0
sS'YKL024C'
p4341
F1500.0
sS'YKL126W'
p4342
F2950.0
sS'YDR306C'
p4343
F0.0
sS'YPL061W'
p4344
F135000.0
sS'YLR370C'
p4345
F1920.0
sS'YDR343C'
p4346
F0.0
sS'YLR387C'
p4347
F2240.0
sS'YAL034C'
p4348
F0.0
sS'YNR039C'
p4349
F0.0
sS'YAL043C'
p4350
F3730.0
sS'YIL165C'
p4351
F0.0
sS'YLR425W'
p4352
F0.0
sS'YBR236C'
p4353
F0.0
sS'YPL125W'
p4354
F6300.0
sS'YDR289C'
p4355
F3930.0
sS'YNL285W'
p4356
F0.0
sS'YOR157C'
p4357
F11400.0
sS'YGL040C'
p4358
F11600.0
sS'YLR305C'
p4359
F846.0
sS'YBR194W'
p4360
F0.0
sS'YJL092W'
p4361
F5190.0
sS'YMR316W'
p4362
F736.0
sS'YIL038C'
p4363
F2490.0
sS'YIL138C'
p4364
F11100.0
sS'YDR034C'
p4365
F450.0
sS'YIL143C'
p4366
F825.0
sS'YGR092W'
p4367
F3500.0
sS'YOL166C'
p4368
F0.0
sS'YJL207C'
p4369
F300.0
sS'YLR247C'
p4370
F143.0
sS'YOR038C'
p4371
F922.0
sS'YDL235C'
p4372
F6330.0
sS'YGL081W'
p4373
F0.0
sS'YGR103W'
p4374
F4530.0
sS'YGR178C'
p4375
F2870.0
sS'YGR057C'
p4376
F656.0
sS'YNR001W-A'
p4377
F0.0
sS'YMR013W-A'
p4378
F0.0
sS'YJR087W'
p4379
F0.0
sS'YGL143C'
p4380
F414.0
sS'YJR123W'
p4381
F0.0
sS'YOL075C'
p4382
F0.0
sS'YBR294W'
p4383
F0.0
sS'YDL067C'
p4384
F35500.0
sS'YOL020W'
p4385
F752.0
sS'YDR135C'
p4386
F396.0
sS'YOR314W'
p4387
F0.0
sS'YMR256C'
p4388
F639.0
sS'YGL242C'
p4389
F0.0
sS'YBL109W'
p4390
F0.0
sS'YOR252W'
p4391
F5350.0
sS'YGR078C'
p4392
F6550.0
sS'YPR001W'
p4393
F0.0
sS'YGR007W'
p4394
F4700.0
sS'YHL033C'
p4395
F238000.0
sS'YGL252C'
p4396
F3260.0
sS'YER155C'
p4397
F1230.0
sS'YDL154W'
p4398
F0.0
sS'YGL074C'
p4399
F0.0
sS'YOR096W'
p4400
F41000.0
sS'YEL035C'
p4401
F0.0
sS'YGR025W'
p4402
F0.0
sS'YPL205C'
p4403
F0.0
sS'YPL250C'
p4404
F450.0
sS'YGR132C'
p4405
F9690.0
sS'YGL119W'
p4406
F952.0
sS'YMR103C'
p4407
F0.0
sS'YCR072C'
p4408
F0.0
sS'YNL194C'
p4409
F0.0
sS'YCR023C'
p4410
F0.0
sS'YGR278W'
p4411
F3260.0
sS'YBL057C'
p4412
F2190.0
sS'YBR073W'
p4413
F1270.0
sS'YPR175W'
p4414
F3110.0
sS'YDR172W'
p4415
F78900.0
sS'YPR120C'
p4416
F521.0
sS'YBL041W'
p4417
F0.0
sS'YDL058W'
p4418
F2330.0
sS'YNL214W'
p4419
F656.0
sS'YLR403W'
p4420
F259.0
sS'YPR180W'
p4421
F7430.0
sS'YOR203W'
p4422
F0.0
sS'YEL013W'
p4423
F5680.0
sS'YPR040W'
p4424
F5710.0
sS'YDR385W'
p4425
F78100.0
sS'YOR280C'
p4426
F0.0
sS'YDR480W'
p4427
F1310.0
sS'YML004C'
p4428
F2570.0
sS'YHR093W'
p4429
F0.0
sS'YLR023C'
p4430
F0.0
sS'YBR059C'
p4431
F3000.0
sS'YDL198C'
p4432
F0.0
sS'YLR072W'
p4433
F672.0
sS'YER180C'
p4434
F0.0
sS'YGR212W'
p4435
F0.0
sS'YJL011C'
p4436
F2930.0
sS'YKL138C'
p4437
F2120.0
sS'YPL093W'
p4438
F28000.0
sS'YDR347W'
p4439
F2840.0
sS'YER086W'
p4440
F11900.0
sS'YDR207C'
p4441
F217.0
sS'YLR264W'
p4442
F8600.0
sS'YKR023W'
p4443
F1710.0
sS'YDL218W'
p4444
F0.0
sS'YKL038W'
p4445
F195.0
sS'YDR424C'
p4446
F1310.0
sS'YLR286C'
p4447
F6350.0
sS'YNL016W'
p4448
F49600.0
sS'YDL118W'
p4449
F0.0
sS'YGL199C'
p4450
F0.0
sS'YKL107W'
p4451
F0.0
sS'YPL079W'
p4452
F66400.0
sS'YDL085W'
p4453
F0.0
sS'YFL049W'
p4454
F3180.0
sS'YKR018C'
p4455
F1770.0
sS'YOR171C'
p4456
F2840.0
sS'YKL003C'
p4457
F0.0
sS'YHR069C'
p4458
F4840.0
sS'YDR329C'
p4459
F1400.0
sS'YFR025C'
p4460
F4280.0
sS'YBR175W'
p4461
F0.0
sS'YGL249W'
p4462
F0.0
sS'YKL192C'
p4463
F60500.0
sS'YIL041W'
p4464
F7720.0
sS'YLR311C'
p4465
F0.0
sS'YPR098C'
p4466
F752.0
sS'YNR009W'
p4467
F2880.0
sS'YOL161C'
p4468
F0.0
sS'YMR052C-A'
p4469
F0.0
sS'YJR151C'
p4470
F0.0
sS'YKL065C'
p4471
F7210.0
sS'YJR046W'
p4472
F2190.0
sS'YMR007W'
p4473
F0.0
sS'YDL172C'
p4474
F0.0
sS'YFL023W'
p4475
F1300.0
sS'YDR092W'
p4476
F8970.0
sS'YPL108W'
p4477
F0.0
sS'YBR171W'
p4478
F7820.0
sS'YJL157C'
p4479
F238.0
sS'YNL070W'
p4480
F3250.0
sS'YMR185W'
p4481
F0.0
sS'YOR273C'
p4482
F21400.0
sS'YBR200W'
p4483
F6490.0
sS'YNL262W'
p4484
F1970.0
sS'YAR028W'
p4485
F1840.0
sS'YAR053W'
p4486
F0.0
sS'YNL133C'
p4487
F468.0
sS'YOL069W'
p4488
F1550.0
sS'YLL042C'
p4489
F0.0
sS'YDR412W'
p4490
F2950.0
sS'YGL160W'
p4491
F0.0
sS'YOL134C'
p4492
F0.0
sS'YJL199C'
p4493
F0.0
sS'YBR157C'
p4494
F0.0
sS'YCL036W'
p4495
F0.0
sS'YOL092W'
p4496
F1800.0
sS'YOR077W'
p4497
F4590.0
sS'YOL043C'
p4498
F125.0
sS'YDR402C'
p4499
F0.0
sS'YIL026C'
p4500
F4090.0
sS'YDR042C'
p4501
F0.0
sS'YGL042C'
p4502
F0.0
sS'YBL071W-A'
p4503
F8400.0
sS'YNL244C'
p4504
F0.0
sS'YNR027W'
p4505
F6580.0
sS'YLR438C-A'
p4506
F7060.0
sS'YLR458W'
p4507
F0.0
sS'YGL055W'
p4508
F0.0
sS'YBR092C'
p4509
F952.0
sS'YNL095C'
p4510
F0.0
sS'YDR529C'
p4511
F10100.0
sS'YGR044C'
p4512
F0.0
sS'YBL113C'
p4513
F0.0
sS'YOR219C'
p4514
F0.0
sS'YLR135W'
p4515
F274.0
sS'YPL226W'
p4516
F37600.0
sS'YML018C'
p4517
F2010.0
sS'YDL044C'
p4518
F2060.0
sS'YLR160C'
p4519
F0.0
sS'YDL011C'
p4520
F0.0
sS'YER112W'
p4521
F3440.0
sS'YKR100C'
p4522
F0.0
sS'YIL084C'
p4523
F105.0
sS'YOR302W'
p4524
F0.0
sS'YAR075W'
p4525
F0.0
sS'YLR419W'
p4526
F195.0
sS'YHL016C'
p4527
F0.0
sS'YMR193W'
p4528
F4010.0
sS'YLL039C'
p4529
F0.0
sS'YCR053W'
p4530
F26000.0
sS'YML023C'
p4531
F907.0
sS'YLR091W'
p4532
F0.0
sS'YER047C'
p4533
F300.0
sS'YKR053C'
p4534
F0.0
sS'YML098W'
p4535
F2080.0
sS'YLR420W'
p4536
F12700.0
sS'YJR067C'
p4537
F1500.0
sS'YML094C-A'
p4538
F0.0
sS'YDL153C'
p4539
F0.0
sS'YJR069C'
p4540
F3490.0
sS'YIR033W'
p4541
F300.0
sS'YGL016W'
p4542
F9760.0
sS'YDL216C'
p4543
F0.0
sS'YMR120C'
p4544
F60900.0
sS'YER029C'
p4545
F861.0
sS'YKR075C'
p4546
F1960.0
sS'YOR194C'
p4547
F0.0
sS'YMR200W'
p4548
F2360.0
sS'YPR034W'
p4549
F1360.0
sS'YGR233C'
p4550
F2930.0
sS'YCR039C'
p4551
F0.0
sS'YPR061C'
p4552
F414.0
sS'YDR271C'
p4553
F0.0
sS'YOR299W'
p4554
F2070.0
sS'YDR224C'
p4555
F0.0
sS'YHR189W'
p4556
F339.0
sS'YLR385C'
p4557
F4240.0
sS'YDL133C-A'
p4558
F4910.0
sS'YMR119W-A'
p4559
F0.0
sS'YDR545W'
p4560
F0.0
sS'YLR218C'
p4561
F907.0
sS'YBR138C'
p4562
F195.0
sS'YNL162W'
p4563
F13600.0
sS'YDR362C'
p4564
F1130.0
sS'YNL115C'
p4565
F0.0
sS'YGL138C'
p4566
F0.0
sS'YJL174W'
p4567
F0.0
sS'YLR298C'
p4568
F2140.0
sS'YNL057W'
p4569
F0.0
sS'YDR157W'
p4570
F0.0
sS'YJR058C'
p4571
F1390.0
sS'YPR156C'
p4572
F2760.0
sS'YDR359C'
p4573
F0.0
sS'YKL124W'
p4574
F450.0
sS'YDR304C'
p4575
F0.0
sS'YKL171W'
p4576
F0.0
sS'YOR136W'
p4577
F43100.0
sS'YJL056C'
p4578
F0.0
sS'YPL063W'
p4579
F2400.0
sS'YOL142W'
p4580
F6050.0
sS'YDR287W'
p4581
F0.0
sS'YGL209W'
p4582
F504.0
sS'YLR400W'
p4583
F0.0
sS'YLR099W-A'
p4584
F0.0
sS'YAL041W'
p4585
F1010.0
sS'YDR199W'
p4586
F0.0
sS'YPL127C'
p4587
F6560.0
sS'YJL090C'
p4588
F540.0
sS'YBR196C'
p4589
F91600.0
sS'YHR140W'
p4590
F0.0
sS'YDR002W'
p4591
F0.0
sS'YOL164W'
p4592
F0.0
sS'YNL039W'
p4593
F0.0
sS'YLR198C'
p4594
F0.0
sS'YJL205C'
p4595
F0.0
sS'YJR118C'
p4596
F1160.0
sS'YIL141W'
p4597
F0.0
sS'YLR245C'
p4598
F3120.0
sS'YGL083W'
p4599
F1480.0
sS'YGR101W'
p4600
F0.0
sS'YLR232W'
p4601
F0.0
sS'YDL237W'
p4602
F0.0
sS'YJR085C'
p4603
F2100.0
sS'YOL077C'
p4604
F13200.0
sS'YDR137W'
p4605
F589.0
sS'YHR031C'
p4606
F656.0
sS'YKL209C'
p4607
F0.0
sS'YGR049W'
p4608
F3210.0
sS'YDL061C'
p4609
F5410.0
sS'YLR337C'
p4610
F0.0
sS'YIL010W'
p4611
F1840.0
sS'YEL033W'
p4612
F0.0
sS'YNR051C'
p4613
F11700.0
sS'YBR292C'
p4614
F0.0
sS'YGR005C'
p4615
F520.0
sS'YML111W'
p4616
F339.0
sS'YFR052W'
p4617
F9890.0
sS'YGL240W'
p4618
F1360.0
sS'YLR332W'
p4619
F0.0
sS'YOR392W'
p4620
F0.0
sS'YGL254W'
p4621
F2120.0
sS'YOL059W'
p4622
F8970.0
sS'YFR006W'
p4623
F0.0
sS'YHL031C'
p4624
F0.0
sS'YLR444C'
p4625
F0.0
sS'YOR026W'
p4626
F1430.0
sS'YER036C'
p4627
F17600.0
sS'YOR090C'
p4628
F7550.0
sS'YPL207W'
p4629
F5410.0
sS'YGR027C'
p4630
F322000.0
sS'YCL054W'
p4631
F0.0
sS'YGL117W'
p4632
F149.0
sS'YER051W'
p4633
F784.0
sS'YMR105C'
p4634
F3790.0
sS'YER182W'
p4635
F1920.0
sS'YCR025C'
p4636
F0.0
sS'YCR086W'
p4637
F1920.0
sS'YKL115C'
p4638
F0.0
sS'YBL055C'
p4639
F1460.0
sS'YOR188W'
p4640
F172.0
sS'YNL314W'
p4641
F0.0
sS'YLL018C'
p4642
F0.0
sS'YDR174W'
p4643
F19000.0
sS'YPR177C'
p4644
F0.0
sS'YOR155C'
p4645
F1590.0
sS'YGL101W'
p4646
F1500.0
sS'YOR250C'
p4647
F0.0
sS'YOR205C'
p4648
F937.0
sS'YBL043W'
p4649
F0.0
sS'YPR042C'
p4650
F377.0
sS'YDR383C'
p4651
F0.0
sS'YEL048C'
p4652
F8660.0
sS'YHL029C'
p4653
F12500.0
sS'YGR190C'
p4654
F0.0
sS'YDR482C'
p4655
F556.0
sS'YPR182W'
p4656
F2570.0
sS'YLR021W'
p4657
F1820.0
sS'YLR074C'
p4658
F5630.0
sS'YNL216W'
p4659
F4390.0
sS'YLR405W'
p4660
F3390.0
sS'YKL039W'
p4661
F0.0
sS'YPR148C'
p4662
F0.0
sS'YMR089C'
p4663
F11500.0
sS'YDR345C'
p4664
F37200.0
sS'YOR108W'
p4665
F28800.0
sS'YJL068C'
p4666
F1750.0
sS'YGR210C'
p4667
F11600.0
sS'YHR179W'
p4668
F15100.0
sS'YNL049C'
p4669
F1720.0
sS'YDR250C'
p4670
F0.0
sS'YKR025W'
p4671
F1590.0
sS'YCR087W'
p4672
F0.0
sS'YDR205W'
p4673
F1070.0
sS'YJL108C'
p4674
F0.0
sS'YLR266C'
p4675
F0.0
sS'YER088C'
p4676
F2120.0
sS'YLR284C'
p4677
F0.0
sS'YNL014W'
p4678
F125.0
sS'YDR508C'
p4679
F10600.0
sS'YPR028W'
p4680
F1760.0
sS'YJL035C'
p4681
F830.0
sS'YOR120W'
p4682
F0.0
sS'YBL088C'
p4683
F0.0
sS'YBR028C'
p4684
F1470.0
sS'YLR116W'
p4685
F4380.0
sS'YER008C'
p4686
F377.0
sS'YDL148C'
p4687
F0.0
sS'YJR155W'
p4688
F0.0
sS'YOR177C'
p4689
F0.0
sS'YLR192C'
p4690
F17900.0
sS'YBR177C'
p4691
F2550.0
sS'YJL155C'
p4692
F1680.0
sS'YHR067W'
p4693
F799.0
sS'YFR027W'
p4694
F0.0
sS'YJL122W'
p4695
F4780.0
sS'YGR148C'
p4696
F36900.0
sS'YKR069W'
p4697
F0.0
sS'YDR459C'
p4698
F0.0
sS'YLR313C'
p4699
F672.0
sS'YNR007C'
p4700
F3610.0
sS'YJR153W'
p4701
F0.0
sS'YKL190W'
p4702
F0.0
sS'YGL239C'
p4703
F0.0
sS'YKL063C'
p4704
F2190.0
sS'YDL170W'
p4705
F1200.0
sS'YGL135W'
p4706
F265000.0
sS'YJR044C'
p4707
F2340.0
sS'YJR011C'
p4708
F2560.0
sS'YMR009W'
p4709
F0.0
sS'YNL072W'
p4710
F623.0
sS'YFL021W'
p4711
F1180.0
sS'YJL219W'
p4712
F0.0
sS'YMR283C'
p4713
F259.0
sS'YDR090C'
p4714
F0.0
sS'YIL108W'
p4715
F195.0
sS'YER093C-A'
p4716
F1840.0
sS'YJR135W-A'
p4717
F0.0
sS'YMR187C'
p4718
F0.0
sS'YBR202W'
p4719
F166.0
sS'YNL239W'
p4720
F521.0
sS'YDR410C'
p4721
F2690.0
sS'YLL040C'
p4722
F125.0
sS'YCL032W'
p4723
F1670.0
sS'YBR193C'
p4724
F937.0
sS'YNL240C'
p4725
F0.0
sS'YBR159W'
p4726
F41900.0
sS'YOR075W'
p4727
F0.0
sS'YCL030C'
p4728
F521.0
sS'YLR352W'
p4729
F125.0
sS'YFR018C'
p4730
F3970.0
sS'YKL006W'
p4731
F45300.0
sS'YNL242W'
p4732
F876.0
sS'YNL162W-A'
p4733
F396.0
sS'YOL090W'
p4734
F1230.0
sS'YNL145W'
p4735
F0.0
sS'YNR021W'
p4736
F34900.0
sS'YBR094W'
p4737
F1770.0
sS'YOR306C'
p4738
F0.0
sS'YDR035W'
p4739
F8970.0
sS'YGL053W'
p4740
F1250.0
sS'YEL017C-A'
p4741
F74700.0
sS'YNL093W'
p4742
F830.0
sS'YOL001W'
p4743
F0.0
sS'YBL111C'
p4744
F279.0
sS'YPL224C'
p4745
F0.0
sS'YLR137W'
p4746
F468.0
sS'YDL042C'
p4747
F3350.0
sS'YBR096W'
p4748
F1950.0
sS'YDR531W'
p4749
F6190.0
sS'YHR214W-A'
p4750
F0.0
sS'YOL136C'
p4751
F0.0
sS'YLR002C'
p4752
F11700.0
sS'YER145C'
p4753
F8370.0
sS'YER110C'
p4754
F38300.0
sS'YHR123W'
p4755
F0.0
sS'YOR304W'
p4756
F1520.0
sS'YHL010C'
p4757
F0.0
sS'YMR191W'
p4758
F0.0
sS'YLR108C'
p4759
F189.0
sS'YKR008W'
p4760
F8570.0
sS'YDR226W'
p4761
F123000.0
sS'YLR097C'
p4762
F0.0
sS'YDR108W'
p4763
F8760.0
sS'YER041W'
p4764
F131.0
sS'YBR036C'
p4765
F0.0
sS'YBR191W-A'
p4766
F0.0
sS'YGL102C'
p4767
F0.0
sS'YMR079W'
p4768
F84300.0
sS'YMR126C'
p4769
F1200.0
sS'YGL014W'
p4770
F721.0
sS'YML043C'
p4771
F476.0
sS'YLR068W'
p4772
F1460.0
sS'YMR279C'
p4773
F0.0
sS'YER027C'
p4774
F3590.0
sS'YKR073C'
p4775
F0.0
sS'YDL013W'
p4776
F0.0
sS'YKR088C'
p4777
F11300.0
sS'YMR206W'
p4778
F0.0
sS'YOR196C'
p4779
F1630.0
sS'YOR231W'
p4780
F1040.0
sS'YPR036W'
p4781
F22500.0
sS'YCR087C-A'
p4782
F3430.0
sS'YGR235C'
p4783
F5220.0
sS'YEL067C'
p4784
F0.0
sS'YLR406C'
p4785
F57500.0
sS'YGL056C'
p4786
F21200.0
sS'YKL173W'
p4787
F300.0
sS'YLR383W'
p4788
F339.0
sS'YLL020C'
p4789
F0.0
sS'YDR525W'
p4790
F0.0
sS'YDR469W'
p4791
F937.0
sS'YGL051W'
p4792
F0.0
sS'YNL160W'
p4793
F0.0
sS'YMR013C'
p4794
F0.0
sS'YDR219C'
p4795
F1360.0
sS'YCR011C'
p4796
F339.0
sS'YNL055C'
p4797
F0.0
sS'YFL002C'
p4798
F5740.0
sS'YDR155C'
p4799
F86000.0
sS'YGL181W'
p4800
F937.0
sS'YJL176C'
p4801
F3150.0
sS'YPL087W'
p4802
F0.0
sS'YDR302W'
p4803
F0.0
sS'YJL054W'
p4804
F0.0
sS'YOR134W'
p4805
F0.0
sS'YPR154W'
p4806
F2190.0
sS'YKL122C'
p4807
F3400.0
sS'YAL038W'
p4808
F291000.0
sS'YAL047C'
p4809
F639.0
sS'YDR285W'
p4810
F391.0
sS'YGR107W'
p4811
F0.0
sS'YOL119C'
p4812
F0.0
sS'YIL169C'
p4813
F0.0
sS'YOR320C'
p4814
F238.0
sS'YJL096W'
p4815
F1840.0
sS'YHR142W'
p4816
F0.0
sS'YPL129W'
p4817
F3120.0
sS'YBR190W'
p4818
F0.0
sS'YOL162W'
p4819
F0.0
sS'YLR196W'
p4820
F43800.0
sS'YJL203W'
p4821
F2490.0
sS'YAL065C'
p4822
F0.0
sS'YIL147C'
p4823
F656.0
sS'YGL085W'
p4824
F704.0
sS'YML081C-A'
p4825
F6540.0
sS'YKL017C'
p4826
F1040.0
sS'YLR230W'
p4827
F0.0
sS'YPL201C'
p4828
F0.0
sS'YPL200W'
p4829
F0.0
sS'YBL018C'
p4830
F4870.0
sS'YDR131C'
p4831
F0.0
sS'YIL012W'
p4832
F0.0
sS'YEL031W'
p4833
F1870.0
sS'YOL071W'
p4834
F1080.0
sS'YNR053C'
p4835
F67700.0
sS'YDL063C'
p4836
F2600.0
sS'YNL298W'
p4837
F0.0
sS'YBR290W'
p4838
F3070.0
sS'YNR075W'
p4839
F2370.0
sS'YML113W'
p4840
F4700.0
sS'YHR202W'
p4841
F0.0
sS'YHR008C'
p4842
F10900.0
sS'YLR330W'
p4843
F172.0
sS'YFR051C'
p4844
F18000.0
sS'YHL037C'
p4845
F0.0
sS'YNR068C'
p4846
F0.0
sS'YGR129W'
p4847
F2460.0
sS'YAR018C'
p4848
F0.0
sS'YOR369C'
p4849
F0.0
sS'YOR025W'
p4850
F319.0
sS'YOR092W'
p4851
F0.0
sS'YGR021W'
p4852
F1780.0
sS'YGL070C'
p4853
F2440.0
sS'YGL256W'
p4854
F125.0
sS'YER184C'
p4855
F0.0
sS'YMR107W'
p4856
F259.0
sS'YER166W'
p4857
F0.0
sS'YHR015W'
p4858
F98.9
sS'YCR027C'
p4859
F1600.0
sS'YDL194W'
p4860
F0.0
sS'YDL009C'
p4861
F0.0
sS'YIL021W'
p4862
F10000.0
sS'YNL198C'
p4863
F0.0
sS'YGL115W'
p4864
F11700.0
sS'YBL053W'
p4865
F0.0
sS'YBR077C'
p4866
F3490.0
sS'YDR176W'
p4867
F2470.0
sS'YDR381W'
p4868
F0.0
sS'YGL103W'
p4869
F0.0
sS'YDR484W'
p4870
F3130.0
sS'YOR207C'
p4871
F1950.0
sS'YGL128C'
p4872
F0.0
sS'YGR192C'
p4873
F169000.0
sS'YBL045C'
p4874
F19300.0
sS'YPR184W'
p4875
F125.0
sS'YER064C'
p4876
F1730.0
sS'YLL021W'
p4877
F274.0
sS'YLR407W'
p4878
F3140.0
sS'YBR088C'
p4879
F0.0
sS'YLR076C'
p4880
F0.0
sS'YBR055C'
p4881
F2250.0
sS'YOR175C'
p4882
F0.0
sS'YNL329C'
p4883
F1630.0
sS'YJL015C'
p4884
F0.0
sS'YLL002W'
p4885
F1140.0
sS'YGL028C'
p4886
F22600.0
sS'YGR216C'
p4887
F0.0
sS'YNL012W'
p4888
F0.0
sS'YJL220W'
p4889
F0.0
sS'YCR085W'
p4890
F0.0
sS'YPL184C'
p4891
F7950.0
sS'YLR282C'
p4892
F0.0
sS'YDR203W'
p4893
F0.0
sS'YDR252W'
p4894
F1820.0
sS'YJL037W'
p4895
F0.0
sS'YDR054C'
p4896
F8170.0
sS'YBR008C'
p4897
F0.0
sS'YMR306C-A'
p4898
F0.0
sS'YPR171W'
p4899
F704.0
sS'YKL103C'
p4900
F5730.0
sS'YLR114C'
p4901
F7500.0
sS'YML037C'
p4902
F815.0
sS'YLR141W'
p4903
F0.0
sS'YDL089W'
p4904
F606.0
sS'YPL159C'
p4905
F0.0
sS'YBR102C'
p4906
F0.0
sS'YOR008W-B'
p4907
F0.0
sS'YDR096W'
p4908
F432.0
sS'YJL120W'
p4909
F0.0
sS'YKL102C'
p4910
F0.0
sS'YIR006C'
p4911
F0.0
sS'YPL046C'
p4912
F538.0
sS'YLR315W'
p4913
F1630.0
sS'YKL196C'
p4914
F0.0
sS'YNR005C'
p4915
F0.0
sS'YFR021W'
p4916
F1560.0
sS'YNL129W'
p4917
F1460.0
sS'YJR013W'
p4918
F0.0
sS'YDL176W'
p4919
F339.0
sS'YKR027W'
p4920
F2540.0
sS'YHR053C'
p4921
F31900.0
sS'YKL034W'
p4922
F0.0
sS'YKL061W'
p4923
F1240.0
sS'YJR042W'
p4924
F7920.0
sS'YMR281W'
p4925
F0.0
sS'YKL169C'
p4926
F0.0
sS'YHR186C'
p4927
F0.0
sS'YFL027C'
p4928
F573.0
sS'YPL133C'
p4929
F799.0
sS'YMR302C'
p4930
F5260.0
sS'YMR189W'
p4931
F12000.0
sS'YBR204C'
p4932
F0.0
sS'YDL223C'
p4933
F0.0
sS'YNR023W'
p4934
F0.0
sS'YOL096C'
p4935
F259.0
sS'YAL004W'
p4936
F0.0
sS'YBR259W'
p4937
F0.0
sS'YDR406W'
p4938
F0.0
sS'YNL147W'
p4939
F3070.0
sS'YBR222C'
p4940
F8770.0
sS'YJL184W'
p4941
F2180.0
sS'YCL017C'
p4942
F504.0
sS'YNL091W'
p4943
F217.0
sS'YDL040C'
p4944
F7600.0
sS'YMR226C'
p4945
F3210.0
sS'YHL012W'
p4946
F0.0
sS'YNL281W'
p4947
F8530.0
sS'YPL273W'
p4948
F60300.0
sS'YGR015C'
p4949
F0.0
sS'YDR037W'
p4950
F0.0
sS'YGR040W'
p4951
F5480.0
sS'YER178W'
p4952
F100000.0
sS'YOL003C'
p4953
F0.0
sS'YPL222W'
p4954
F2430.0
sS'YBR137W'
p4955
F1200.0
sS'YHR121W'
p4956
F8320.0
sS'YOL138C'
p4957
F606.0
sS'YDR533C'
p4958
F358.0
sS'YER147C'
p4959
F907.0
sS'YDR420W'
p4960
F0.0
sS'YOL038W'
p4961
F16800.0
sS'YKL211C'
p4962
F13400.0
sS'YDR220C'
p4963
F0.0
sS'YLR424W'
p4964
F556.0
sS'YCL066W'
p4965
F0.0
sS'YER043C'
p4966
F0.0
sS'YER187W'
p4967
F0.0
sS'YLR095C'
p4968
F7520.0
sS'YBR034C'
p4969
F37600.0
sS'YLR040C'
p4970
F0.0
sS'YJR063W'
p4971
F8450.0
sS'YKR105C'
p4972
F0.0
sS'YDL157C'
p4973
F752.0
sS'YLR131C'
p4974
F538.0
sS'YER025W'
p4975
F20800.0
sS'YDL015C'
p4976
F23600.0
sS'YKR086W'
p4977
F1250.0
sS'YML041C'
p4978
F0.0
sS'YER078C'
p4979
F5080.0
sS'YCR001W'
p4980
F0.0
sS'YMR204C'
p4981
F639.0
sS'YML014W'
p4982
F2360.0
sS'YKR071C'
p4983
F1050.0
sS'YGL261C'
p4984
F0.0
sS'YOR233W'
p4985
F143.0
sS'YMR179W'
p4986
F0.0
sS'YGR280C'
p4987
F3850.0
sS'YGR237C'
p4988
F1050.0
sS'YEL069C'
p4989
F0.0
sS'YKL120W'
p4990
F5350.0
sS'YKL175W'
p4991
F0.0
sS'YLR381W'
p4992
F319.0
sS'YMR011W'
p4993
F0.0
sS'YDL200C'
p4994
F0.0
sS'YJR009C'
p4995
F121000.0
sS'YER092W'
p4996
F2280.0
sS'YLR214W'
p4997
F892.0
sS'YCR013C'
p4998
F0.0
sS'YFL004W'
p4999
F2910.0
sS'YGL183C'
p5000
F0.0
sS'YMR153W'
p5001
F2060.0
sS'YMR124W'
p5002
F166.0
sS'YPR103W'
p5003
F8530.0
sS'YPL085W'
p5004
F358.0
sS'YPR152C'
p5005
F1310.0
sS'YJL052W'
p5006
F120000.0
sS'YDR355C'
p5007
F0.0
sS'YDR300C'
p5008
F10400.0
sS'YGL087C'
p5009
F2760.0
sS'YPR080W'
p5010
F377.0
sS'YGR172C'
p5011
F0.0
sS'YAL045C'
p5012
F0.0
sS'YOR396W'
p5013
F0.0
sS'YGR105W'
p5014
F1480.0
sS'YBR269C'
p5015
F0.0
sS'YDR283C'
p5016
F279.0
sS'YBR192W'
p5017
F0.0
sS'YER007C-A'
p5018
F4220.0
sS'YOR049C'
p5019
F0.0
sS'YBR125C'
p5020
F149.0
sS'YJL094C'
p5021
F172.0
sS'YGL043W'
p5022
F6260.0
sS'YNL166C'
p5023
F0.0
sS'YOL160W'
p5024
F0.0
sS'YAL067C'
p5025
F0.0
sS'YIL132C'
p5026
F414.0
sS'YIL145C'
p5027
F2400.0
sS'YLR194C'
p5028
F688.0
sS'YKL015W'
p5029
F736.0
sS'YLR236C'
p5030
F0.0
sS'YJR089W'
p5031
F0.0
sS'YPL110C'
p5032
F2300.0
sS'YJL201W'
p5033
F1750.0
sS'YKL040C'
p5034
F11300.0
sS'YCR038W-A'
p5035
F0.0
sS'YLR249W'
p5036
F871000.0
sS'YGL158W'
p5037
F0.0
sS'YOL073C'
p5038
F0.0
sS'YPL203W'
p5039
F2220.0
sS'YNR055C'
p5040
F0.0
sS'YIL014W'
p5041
F2310.0
sS'YHR200W'
p5042
F17200.0
sS'YDR184C'
p5043
F846.0
sS'YDR133C'
p5044
F0.0
sS'YML115C'
p5045
F4750.0
sS'YNL221C'
p5046
F846.0
sS'YOR353C'
p5047
F892.0
sS'YOL055C'
p5048
F195.0
sS'YIL032C'
p5049
F0.0
sS'YNL108C'
p5050
F1950.0
sS'YFR053C'
p5051
F40800.0
sS'YIL049W'
p5052
F0.0
sS'YLR336C'
p5053
F3060.0
sS'YFR002W'
p5054
F15500.0
sS'YGR089W'
p5055
F996.0
sS'YGR023W'
p5056
F0.0
sS'YGL072C'
p5057
F0.0
sS'YGL258W'
p5058
F0.0
sS'YDL196W'
p5059
F0.0
sS'YHR100C'
p5060
F0.0
sS'YBR057C'
p5061
F3400.0
sS'YPL269W'
p5062
F656.0
sS'YER186C'
p5063
F0.0
sS'YER164W'
p5064
F1620.0
sS'YER131W'
p5065
F503000.0
sS'YCL058C'
p5066
F0.0
sS'YBL051C'
p5067
F4630.0
sS'YGL113W'
p5068
F125.0
sS'YGR009C'
p5069
F0.0
sS'YCL005W'
p5070
F149.0
sS'YGL105W'
p5071
F57700.0
sS'YEL019C'
p5072
F2800.0
sS'YPR186C'
p5073
F1380.0
sS'YGR194C'
p5074
F3460.0
sS'YDR486C'
p5075
F2110.0
sS'YBL047C'
p5076
F1380.0
sS'YOR315W'
p5077
F0.0
sS'YLL023C'
p5078
F1680.0
sS'YMR032W'
p5079
F195.0
sS'YMR193C-A'
p5080
F0.0
sS'YDL129W'
p5081
F450.0
sS'YPL099C'
p5082
F0.0
sS'YGL026C'
p5083
F15500.0
sS'YDR201W'
p5084
F639.0
sS'YDR254W'
p5085
F606.0
sS'YGR263C'
p5086
F0.0
sS'YNL045W'
p5087
F5590.0
sS'YNL010W'
p5088
F12600.0
sS'YJL222W'
p5089
F279.0
sS'YGR214W'
p5090
F93700.0
sS'YPR002W'
p5091
F2730.0
sS'YCR083W'
p5092
F1010.0
sS'YNL310C'
p5093
F1520.0
sS'YDR052C'
p5094
F0.0
sS'YPR173C'
p5095
F5350.0
sS'YGR249W'
p5096
F0.0
sS'YJL031C'
p5097
F0.0
sS'YDL021W'
p5098
F2020.0
sS'YLR143W'
p5099
F2270.0
sS'YEL073C'
p5100
F0.0
sS'YML060W'
p5101
F3690.0
sS'YDR079C-A'
p5102
F0.0
sS'YML035C'
p5103
F3910.0
sS'YFL010W-A'
p5104
F0.0
sS'YLR112W'
p5105
F0.0
sS'YFL025C'
p5106
F0.0
sS'YKL009W'
p5107
F18200.0
sS'YFL052W'
p5108
F0.0
sS'YNL307C'
p5109
F396.0
sS'YDR094W'
p5110
F0.0
sS'YJL126W'
p5111
F0.0
sS'YJL159W'
p5112
F14600.0
sS'YHR063C'
p5113
F2600.0
sS'YPL044C'
p5114
F0.0
sS'YPL033C'
p5115
F0.0
sS'YLR317W'
p5116
F0.0
sS'YCL052C'
p5117
F4930.0
sS'YNR003C'
p5118
F0.0
sS'YDR376W'
p5119
F1600.0
sS'YKL194C'
p5120
F1240.0
sS'YFR023W'
p5121
F0.0
sS'YNL127W'
p5122
F1080.0
sS'YPL182C'
p5123
F0.0
sS'YLR280C'
p5124
F0.0
sS'YJR040W'
p5125
F0.0
sS'YPR119W'
p5126
F339.0
sS'YJR015W'
p5127
F639.0
sS'YHR051W'
p5128
F12500.0
sS'YKR029C'
p5129
F623.0
sS'YKL036C'
p5130
F0.0
sS'YJL104W'
p5131
F3180.0
sS'YOR296W'
p5132
F300.0
sS'YDL174C'
p5133
F10800.0
sS'YMR194C-A'
p5134
F0.0
sS'YDL103C'
p5135
F5480.0
sS'YMR287C'
p5136
F1070.0
sS'YBR220C'
p5137
F0.0
sS'YPL131W'
p5138
F0.0
sS'YIL115C'
p5139
F1230.0
sS'YOL101C'
p5140
F0.0
sS'YJL088W'
p5141
F1140.0
sS'YHR158C'
p5142
F1350.0
sS'YKL033W-A'
p5143
F0.0
sS'YGR155W'
p5144
F41900.0
sS'YMR300C'
p5145
F18700.0
sS'YFR049W'
p5146
F2050.0
sS'YBL028C'
p5147
F6210.0
sS'YDL221W'
p5148
F0.0
sS'YKL089W'
p5149
F465.0
sS'YOR006C'
p5150
F3610.0
sS'YLR277C'
p5151
F17400.0
sS'YJR157W'
p5152
F0.0
sS'YGR086C'
p5153
F115000.0
sS'YOL094C'
p5154
F2760.0
sS'YAL002W'
p5155
F736.0
sS'YIL079C'
p5156
F1550.0
sS'YDR408C'
p5157
F3910.0
sS'YPL067C'
p5158
F1470.0
sS'YHR195W'
p5159
F1900.0
sS'YKR035W-A'
p5160
F2440.0
sS'YNL141W'
p5161
F20700.0
sS'YKR090W'
p5162
F1310.0
sS'YMR220W'
p5163
F79.7
sS'YOR308C'
p5164
F0.0
sS'YIL006W'
p5165
F0.0
sS'YDR523C'
p5166
F0.0
sS'YPL220W'
p5167
F116000.0
sS'YOR268C'
p5168
F0.0
sS'YGR017W'
p5169
F2840.0
sS'YDR031W'
p5170
F0.0
sS'YOL005C'
p5171
F4280.0
sS'YOR213C'
p5172
F1800.0
sS'YEL050C'
p5173
F1580.0
sS'YGL224C'
p5174
F0.0
sS'YBR206W'
p5175
F0.0
sS'YNL268W'
p5176
F2580.0
sS'YDR535C'
p5177
F0.0
sS'YOR068C'
p5178
F0.0
sS'YGR039W'
p5179
F0.0
sS'YER141W'
p5180
F0.0
sS'YKL213C'
p5181
F6800.0
sS'YLL029W'
p5182
F3240.0
sS'YCL064C'
p5183
F36600.0
sS'YML029W'
p5184
F1890.0
sS'YJR154W'
p5185
F1600.0
sS'YCR048W'
p5186
F0.0
sS'YCR033W'
p5187
F396.0
sS'YDL114W-A'
p5188
F0.0
sS'YDR104C'
p5189
F0.0
sS'YDR222W'
p5190
F1010.0
sS'YLR042C'
p5191
F0.0
sS'YIR039C'
p5192
F0.0
sS'YKR059W'
p5193
F106000.0
sS'YBR032W'
p5194
F0.0
sS'YNL202W'
p5195
F0.0
sS'YJL186W'
p5196
F11400.0
sS'YER023W'
p5197
F43500.0
sS'YDR399W'
p5198
F36500.0
sS'YML016C'
p5199
F217.0
sS'YOR388C'
p5200
F0.0
sS'YLR133W'
p5201
F3930.0
sS'YDL017W'
p5202
F1600.0
sS'YJR142W'
p5203
F217.0
sS'YOR235W'
p5204
F0.0
sS'YGL263W'
p5205
F0.0
sS'YGR282C'
p5206
F45000.0
sS'YJL005W'
p5207
F0.0
sS'YJL050W'
p5208
F12500.0
sS'YKL177W'
p5209
F0.0
sS'YDL202W'
p5210
F6070.0
sS'YML083C'
p5211
F0.0
sS'YLR216C'
p5212
F18600.0
sS'YMR017W'
p5213
F0.0
sS'YKR033C'
p5214
F0.0
sS'YER090W'
p5215
F6510.0
sS'YLR159W'
p5216
F0.0
sS'YCR015C'
p5217
F0.0
sS'YDR159W'
p5218
F339.0
sS'YGL185C'
p5219
F1430.0
sS'YMR151W'
p5220
F0.0
sS'YBL070C'
p5221
F0.0
sS'YOR165W'
p5222
F2270.0
sS'YPR150W'
p5223
F0.0
sS'YOL159C-A'
p5224
F125.0
sS'YPR105C'
p5225
F1620.0
sS'YNL331C'
p5226
F0.0
sS'YPL083C'
p5227
F531.0
sS'YDR357C'
p5228
F589.0
sS'YJR021C'
p5229
F0.0
sS'YGL089C'
p5230
F0.0
sS'YPL158C'
p5231
F238.0
sS'YGR170W'
p5232
F0.0
sS'YOL148C'
p5233
F4150.0
sS'YPR082C'
p5234
F0.0
sS'YJR129C'
p5235
F1550.0
sS'YDR281C'
p5236
F0.0
sS'YGL203C'
p5237
F8550.0
sS'YDR008C'
p5238
F0.0
sS'YBR127C'
p5239
F131000.0
sS'YOR047C'
p5240
F238.0
sS'YGL009C'
p5241
F96300.0
sS'YIL130W'
p5242
F396.0
sS'YDR368W'
p5243
F14100.0
sS'YMR299C'
p5244
F1170.0
sS'YDR016C'
p5245
F799.0
sS'YLR234W'
p5246
F468.0
sS'YJL167W'
p5247
F0.0
sS'YBR149W'
p5248
F30200.0
sS'YDR088C'
p5249
F1490.0
sS'YCR020C-A'
p5250
F2140.0
sS'YKL042W'
p5251
F0.0
sS'YNL066W'
p5252
F24700.0
sS'YPL112C'
p5253
F2420.0
sS'YKL013C'
p5254
F9020.0
sS'YHR037W'
p5255
F17200.0
sS'YOL028C'
p5256
F1690.0
sS'YNR057C'
p5257
F0.0
sS'YDR186C'
p5258
F195.0
sS'YML117W'
p5259
F1540.0
sS'YHR206W'
p5260
F2570.0
sS'YOL122C'
p5261
F0.0
sS'YNL223W'
p5262
F3300.0
sS'YOL053W'
p5263
F0.0
sS'YFR055W'
p5264
F2610.0
sS'YIL030C'
p5265
F0.0
sS'YLR442C'
p5266
F1400.0
sS'YJR103W'
p5267
F5370.0
sS'YLR343W'
p5268
F0.0
sS'YOR021C'
p5269
F2520.0
sS'YER133W'
p5270
F14600.0
sS'YNL089C'
p5271
F0.0
sS'YER162C'
p5272
F876.0
sS'YDL190C'
p5273
F2600.0
sS'YHR102W'
p5274
F1040.0
sS'YBR051W'
p5275
F0.0
sS'YMR243C'
p5276
F8200.0
sS'YGL111W'
p5277
F2740.0
sS'YHR139C'
p5278
F0.0
sS'YOR132W'
p5279
F7380.0
sS'YPR188C'
p5280
F1130.0
sS'YOR374W'
p5281
F22200.0
sS'YLL025W'
p5282
F0.0
sS'YCL007C'
p5283
F0.0
sS'YGR196C'
p5284
F0.0
sS'YLR281C'
p5285
F0.0
sS'YDR433W'
p5286
F0.0
sS'YBL062W'
p5287
F0.0
sS'YBL049W'
p5288
F0.0
sS'YER057C'
p5289
F672.0
sS'YGL024W'
p5290
F0.0
sS'YKR010C'
p5291
F339.0
sS'YMR034C'
p5292
F0.0
sS'YLR085C'
p5293
F238.0
sS'YOR179C'
p5294
F1430.0
sS'YCR081W'
p5295
F1730.0
sS'YDR423C'
p5296
F623.0
sS'YPR004C'
p5297
F2950.0
sS'YGR261C'
p5298
F3570.0
sS'YPL228W'
p5299
F3900.0
sS'YJL019W'
p5300
F0.0
sS'YMR116C'
p5301
F333000.0
sS'YNL047C'
p5302
F2610.0
sS'YDR256C'
p5303
F623.0
sS'YGL030W'
p5304
F59300.0
sS'YJL033W'
p5305
F7900.0
sS'YOR182C'
p5306
F18500.0
sS'YHR049C-A'
p5307
F0.0
sS'YDR050C'
p5308
F207000.0
sS'YGR061C'
p5309
F40800.0
sS'YNL312W'
p5310
F6080.0
sS'YPL241C'
p5311
F1630.0
sS'YLR145W'
p5312
F556.0
sS'YPR059C'
p5313
F0.0
sS'YPR022C'
p5314
F238.0
sS'YLR110C'
p5315
F158000.0
sS'YDL023C'
p5316
F0.0
sS'YEL071W'
p5317
F13000.0
sS'YML062C'
p5318
F5910.0
sS'YFL050C'
p5319
F2130.0
sS'YBR106W'
p5320
F61800.0
sS'YBL093C'
p5321
F6120.0
sS'YLR390W-A'
p5322
F42000.0
sS'YLR064W'
p5323
F2240.0
sS'YNL078W'
p5324
F504.0
sS'YJL124C'
p5325
F3490.0
sS'YPR131C'
p5326
F639.0
sS'YKL143W'
p5327
F589.0
sS'YDR374C'
p5328
F0.0
sS'YIR002C'
p5329
F0.0
sS'YDR453C'
p5330
F4820.0
sS'YNL125C'
p5331
F0.0
sS'YHR035W'
p5332
F450.0
sS'YNR001C'
p5333
F0.0
sS'YNL178W'
p5334
F146000.0
sS'YKL030W'
p5335
F0.0
sS'YDR167W'
p5336
F3370.0
sS'YJR017C'
p5337
F4400.0
sS'YPL180W'
p5338
F243.0
sS'YHR057C'
p5339
F339.0
sS'YJL106W'
p5340
F0.0
sS'YOR380W'
p5341
F0.0
sS'YDL101C'
p5342
F3480.0
sS'YMR285C'
p5343
F3570.0
sS'YBR226C'
p5344
F0.0
sS'YLL018C-A'
p5345
F5750.0
sS'YIL117C'
p5346
F0.0
sS'YAL055W'
p5347
F259.0
sS'YPL137C'
p5348
F656.0
sS'YOL103W'
p5349
F468.0
sS'YHR156C'
p5350
F799.0
sS'YGR157W'
p5351
F1810.0
sS'YGL168W'
p5352
F0.0
sS'YJL165C'
p5353
F0.0
sS'YBR168W'
p5354
F0.0
sS'YMR306W'
p5355
F0.0
sS'YMR070W'
p5356
F1690.0
sS'YHR162W'
p5357
F3410.0
sS'YLR275W'
p5358
F799.0
sS'YOR004W'
p5359
F6960.0
sS'YNL339C'
p5360
F0.0
sS'YDL227C'
p5361
F0.0
sS'YGL093W'
p5362
F0.0
sS'YLR324W'
p5363
F4570.0
sS'YGR139W'
p5364
F0.0
sS'YNL143C'
p5365
F238.0
sS'YKL215C'
p5366
F3180.0
sS'YCL042W'
p5367
F0.0
sS'YDR442W'
p5368
F0.0
sS'YBR288C'
p5369
F3410.0
sS'YKR092C'
p5370
F12900.0
sS'YMR222C'
p5371
F1070.0
sS'YPL277C'
p5372
F0.0
sS'YOR211C'
p5373
F0.0
sS'YGR011W'
p5374
F0.0
sS'YDR521W'
p5375
F0.0
sS'YGL226W'
p5376
F1170.0
sS'YOR324C'
p5377
F259.0
sS'YAR020C'
p5378
F0.0
sS'YBR208C'
p5379
F952.0
sS'YHL025W'
p5380
F2900.0
sS'YDR537C'
p5381
F0.0
sS'YGR037C'
p5382
F8500.0
sS'YNL330C'
p5383
F3850.0
sS'YER143W'
p5384
F6510.0
sS'YOR106W'
p5385
F414.0
sS'YGR284C'
p5386
F0.0
sS'YCR031C'
p5387
F29600.0
sS'YDR106W'
p5388
F0.0
sS'YLL006W'
p5389
F2490.0
sS'YOR237W'
p5390
F1690.0
sS'YHL035C'
p5391
F0.0
sS'YMR175W'
p5392
F2300.0
sS'YBR030W'
p5393
F7880.0
sS'YLR440C'
p5394
F1840.0
sS'YLR428C'
p5395
F0.0
sS'YLR044C'
p5396
F8970.0
sS'YBR065C'
p5397
F4260.0
sS'YLR099C'
p5398
F0.0
sS'YOR149C'
p5399
F0.0
sS'YOR298C-A'
p5400
F47300.0
sS'YOL007C'
p5401
F0.0
sS'YDR429C'
p5402
F0.0
sS'YML010W'
p5403
F2340.0
sS'YER074W'
p5404
F0.0
sS'YER021W'
p5405
F16700.0
sS'YMR208W'
p5406
F3300.0
sS'YEL052W'
p5407
F3570.0
sS'YJL180C'
p5408
F6370.0
sS'YNL200C'
p5409
F1380.0
sS'YER129W'
p5410
F752.0
sS'YLR062C'
p5411
F0.0
sS'YKR082W'
p5412
F3060.0
sS'YOR027W'
p5413
F67600.0
sS'YLR019W'
p5414
F0.0
sS'YJL007C'
p5415
F0.0
sS'YPL081W'
p5416
F106000.0
sS'YDR351W'
p5417
F0.0
sS'YMR188C'
p5418
F2810.0
sS'YDL045W-A'
p5419
F259.0
sS'YLR210W'
p5420
F98.9
sS'YDL204W'
p5421
F0.0
sS'YLR171W'
p5422
F0.0
sS'YKR031C'
p5423
F49.2
sS'YER119C-A'
p5424
F0.0
sS'YML081W'
p5425
F672.0
sS'YHR181W'
p5426
F1810.0
sS'YER096W'
p5427
F0.0
sS'YMR128W'
p5428
F2000.0
sS'YJL029C'
p5429
F0.0
sS'YGL130W'
p5430
F279.0
sS'YMR157C'
p5431
F1710.0
sS'YCR017C'
p5432
F0.0
sS'YBL072C'
p5433
F15900.0
sS'YGL187C'
p5434
F9410.0
sS'YJR082C'
p5435
F504.0
sS'YMR048W'
p5436
F358.0
sS'YOR167C'
p5437
F94500.0
sS'YPR107C'
p5438
F3690.0
sS'YPL076W'
p5439
F0.0
sS'YJR023C'
p5440
F0.0
sS'YGR176W'
p5441
F0.0
sS'YKL011C'
p5442
F0.0
sS'YKL044W'
p5443
F0.0
sS'YAL049C'
p5444
F1800.0
sS'YOR018W'
p5445
F386.0
sS'YGL201C'
p5446
F13400.0
sS'YPR084W'
p5447
F0.0
sS'YBR121C'
p5448
F98400.0
sS'YDL146W'
p5449
F329.0
sS'YMR062C'
p5450
F0.0
sS'YMR015C'
p5451
F24700.0
sS'YDR322W'
p5452
F7700.0
sS'YCL026C-B'
p5453
F0.0
sS'YGL262W'
p5454
F0.0
sS'YAL063C'
p5455
F0.0
sS'YDR260C'
p5456
F0.0
sS'YBR147W'
p5457
F0.0
sS'YNL064C'
p5458
F119000.0
sS'YNL031C'
p5459
F248000.0
sS'YIL136W'
p5460
F6490.0
sS'YLR190W'
p5461
F1070.0
sS'YOR023C'
p5462
F339.0
sS'YOR098C'
p5463
F468.0
sS'YIL018W'
p5464
F4050.0
sS'YCL016C'
p5465
F1660.0
sS'YHR039C'
p5466
F2500.0
sS'YBR274W'
p5467
F2530.0
sS'YML119W'
p5468
F0.0
sS'YBL012C'
p5469
F0.0
sS'YHR204W'
p5470
F656.0
sS'YGR118W'
p5471
F10600.0
sS'YAR069C'
p5472
F0.0
sS'YOR318C'
p5473
F0.0
sS'YNR059W'
p5474
F0.0
sS'YDR180W'
p5475
F3310.0
sS'YOL120C'
p5476
F0.0
sS'YIL036W'
p5477
F1240.0
sS'YOL051W'
p5478
F606.0
sS'YFR057W'
p5479
F0.0
sS'YOR045W'
p5480
F0.0
sS'YDR476C'
p5481
F2120.0
sS'YGR268C'
p5482
F0.0
sS'YPL183W-A'
p5483
F538.0
sS'YIL158W'
p5484
F0.0
sS'YJR101W'
p5485
F2060.0
sS'YMR245W'
p5486
F0.0
sS'YLR341W'
p5487
F0.0
sS'YDR029W'
p5488
F0.0
sS'YGR058W'
p5489
F1630.0
sS'YBR053C'
p5490
F4190.0
sS'YDL192W'
p5491
F19300.0
sS'YLR029C'
p5492
F0.0
sS'YBR082C'
p5493
F13500.0
sS'YER135C'
p5494
F0.0
sS'YHR104W'
p5495
F12900.0
sS'YDL003W'
p5496
F1040.0
sS'YDR363W-A'
p5497
F5590.0
sS'YDL078C'
p5498
F3300.0
sS'YOR258W'
p5499
F396.0
sS'YDR435C'
p5500
F0.0
sS'YOR376W'
p5501
F0.0
sS'YIL098C'
p5502
F589.0
sS'YLL027W'
p5503
F125.0
sS'YOR322C'
p5504
F295.0
sS'YHL006C'
p5505
F0.0
sS'YGR198W'
p5506
F1640.0
sS'YAR007C'
p5507
F4100.0
sS'YML064C'
p5508
F573.0
sS'YLR414C'
p5509
F1660.0
sS'YLR087C'
p5510
F0.0
sS'YKR012C'
p5511
F0.0
sS'YBR085W'
p5512
F1080.0
sS'YMR036C'
p5513
F0.0
sS'YMR081C'
p5514
F0.0
sS'YGR218W'
p5515
F7080.0
sS'YGR267C'
p5516
F2840.0
sS'YDL125C'
p5517
F5410.0
sS'YPR006C'
p5518
F1080.0
sS'YMR114C'
p5519
F0.0
sS'YGL022W'
p5520
F3000.0
sS'YJL153C'
p5521
F0.0
sS'YDR431W'
p5522
F0.0
sS'YMR214W'
p5523
F8260.0
sS'YOR180C'
p5524
F0.0
sS'YDR500C'
p5525
F19700.0
sS'YGL032C'
p5526
F1160.0
sS'YPR020W'
p5527
F0.0
sS'YEL077C'
p5528
F0.0
sS'YGR245C'
p5529
F3640.0
sS'YKL053W'
p5530
F0.0
sS'YPL243W'
p5531
F6280.0
sS'YDR497C'
p5532
F0.0
sS'YDL025C'
p5533
F861.0
sS'YLR147C'
p5534
F0.0
sS'YFL029C'
p5535
F0.0
sS'YBL091C'
p5536
F1080.0
sS'YER091C-A'
p5537
F0.0
sS'YPL048W'
p5538
F60900.0
sS'YPR133C'
p5539
F2830.0
sS'YJL071W'
p5540
F112.0
sS'YNL123W'
p5541
F3150.0
sS'YDR372C'
p5542
F1850.0
sS'YKL145W'
p5543
F105.0
sS'YOR111W'
p5544
F1940.0
sS'YDR451C'
p5545
F0.0
sS'YKL198C'
p5546
F0.0
sS'YNL041C'
p5547
F1720.0
sS'YDR522C'
p5548
F238.0
sS'YJL100W'
p5549
F56.9
sS'YDR165W'
p5550
F5910.0
sS'YDL178W'
p5551
F11400.0
sS'YKL118W'
p5552
F0.0
sS'YHR080C'
p5553
F0.0
sS'YKL163W'
p5554
F0.0
sS'YPL015C'
p5555
F5260.0
sS'YDL107W'
p5556
F736.0
sS'YNR029C'
p5557
F1560.0
sS'YKR040C'
p5558
F0.0
sS'YOL105C'
p5559
F0.0
sS'YBR253W'
p5560
F2180.0
sS'YBR224W'
p5561
F0.0
sS'YIL111W'
p5562
F2250.0
sS'YPL142C'
p5563
F0.0
sS'YJL084C'
p5564
F49.2
sS'YHR154W'
p5565
F1380.0
sS'YPL135W'
p5566
F10800.0
sS'YGR151C'
p5567
F0.0
sS'YMR304W'
p5568
F2810.0
sS'YGR041W'
p5569
F952.0
sS'YPL168W'
p5570
F0.0
sS'YIL177C'
p5571
F0.0
sS'YHR160C'
p5572
F0.0
sS'YLR273C'
p5573
F0.0
sS'YGR137W'
p5574
F0.0
sS'YHR047C'
p5575
F77000.0
sS'YGL091C'
p5576
F0.0
sS'YCL038C'
p5577
F0.0
sS'YML099W-A'
p5578
F0.0
sS'YKL058W'
p5579
F3910.0
sS'YKL085W'
p5580
F28100.0
sS'YNR043W'
p5581
F13700.0
sS'YIR040C'
p5582
F0.0
sS'YOL089C'
p5583
F238.0
sS'YHR023W'
p5584
F2140.0
sS'YKL217W'
p5585
F0.0
sS'YKR094C'
p5586
F28200.0
sS'YGR013W'
p5587
F782.0
sS'YML103C'
p5588
F11700.0
sS'YLR306W'
p5589
F0.0
sS'YGL220W'
p5590
F2050.0
sS'YOR351C'
p5591
F0.0
sS'YNL266W'
p5592
F0.0
sS'YDL115C'
p5593
F1080.0
sS'YHL027W'
p5594
F1820.0
sS'YGR035C'
p5595
F0.0
sS'YJR146W'
p5596
F952.0
sS'YDR539W'
p5597
F861.0
sS'YMR177W'
p5598
F6490.0
sS'YGR286C'
p5599
F504.0
sS'YCR037C'
p5600
F504.0
sS'YOR239W'
p5601
F17000.0
sS'YOR147W'
p5602
F10400.0
sS'YLR046C'
p5603
F0.0
sS'YBR067C'
p5604
F35600.0
sS'YDR100W'
p5605
F4540.0
sS'YLL004W'
p5606
F0.0
sS'YER049W'
p5607
F8910.0
sS'YEL054C'
p5608
F68500.0
sS'YML012W'
p5609
F51700.0
sS'YOL009C'
p5610
F1070.0
sS'YPR192W'
p5611
F0.0
sS'YOR217W'
p5612
F2360.0
sS'YBL035C'
p5613
F11200.0
sS'YNL206C'
p5614
F11100.0
sS'YLR060W'
p5615
F5440.0
sS'YER076C'
p5616
F0.0
sS'YJL182C'
p5617
F0.0
sS'YBR049C'
p5618
F7510.0
sS'YKR080W'
p5619
F16200.0
sS'YGR224W'
p5620
F0.0
sS'YDR071C'
p5621
F8680.0
sS'YPL066W'
p5622
F396.0
sS'YPL107W'
p5623
F2100.0
sS'YDR353W'
p5624
F292000.0
sS'YJL001W'
p5625
F7250.0
sS'YHR183W'
p5626
F101000.0
sS'YDL085C-A'
p5627
F876.0
sS'YCR099C'
p5628
F0.0
sS'YML087C'
p5629
F0.0
sS'YDL206W'
p5630
F0.0
sS'YER094C'
p5631
F0.0
sS'YLR173W'
p5632
F0.0
sS'YKR037C'
p5633
F0.0
sS'YLR212C'
p5634
F7200.0
sS'YER101C'
p5635
F937.0
sS'YMR155W'
p5636
F0.0
sS'YCR019W'
p5637
F0.0
sS'YJL027C'
p5638
F0.0
sS'YGL132W'
p5639
F0.0
sS'YIL007C'
p5640
F846.0
sS'YBL074C'
p5641
F7330.0
sS'YMR260C'
p5642
F35100.0
sS'YOR161C'
p5643
F0.0
sS'YML078W'
p5644
F1960.0
sS'YOR133W'
p5645
F82700.0
sS'YIR018W'
p5646
F238.0
sS'YPL074W'
p5647
F259.0
sS'YJR025C'
p5648
F2330.0
sS'YKL046C'
p5649
F2580.0
sS'YBR145W'
p5650
F1310.0
sS'YDR339C'
p5651
F0.0
sS'YOR151C'
p5652
F18700.0
sS'YGR174C'
p5653
F704.0
sS'YGL207W'
p5654
F18500.0
sS'YLR454W'
p5655
F1360.0
sS'YKL184W'
p5656
F688.0
sS'YLR365W'
p5657
F0.0
sS'YPR086W'
p5658
F6750.0
sS'YJR125C'
p5659
F0.0
sS'YMR060C'
p5660
F1580.0
sS'YJR003C'
p5661
F3280.0
sS'YDL144C'
p5662
F5170.0
sS'YJR078W'
p5663
F149.0
sS'YNL033W'
p5664
F396.0
sS'YNL062C'
p5665
F2580.0
sS'YMR295C'
p5666
F10800.0
sS'YPL116W'
p5667
F4420.0
sS'YLR238W'
p5668
F0.0
sS'YBR118W'
p5669
F450.0
sS'YFL017C'
p5670
F2550.0
sS'YDR262W'
p5671
F4850.0
sS'YIL134W'
p5672
F0.0
sS'YJL163C'
p5673
F0.0
sS'YDR084C'
p5674
F1040.0
sS'YJR143C'
p5675
F1270.0
sS'YGR083C'
p5676
F10300.0
sS'YDR182W'
p5677
F583.0
sS'YNL290W'
p5678
F3140.0
sS'YBL010C'
p5679
F1320.0
sS'YAL064C-A'
p5680
F0.0
sS'YDR139C'
p5681
F1310.0
sS'YBR276C'
p5682
F0.0
sS'YOL079W'
p5683
F0.0
sS'YAL021C'
p5684
F2780.0
sS'YOL126C'
p5685
F5260.0
sS'YOR316C'
p5686
F2070.0
sS'YBR298C'
p5687
F0.0
sS'YBR123C'
p5688
F15800.0
sS'YBR198C'
p5689
F14800.0
sS'YOR043W'
p5690
F1800.0
sS'YDR470C'
p5691
F0.0
sS'YIL034C'
p5692
F6770.0
sS'YIL043C'
p5693
F4820.0
sS'YLR338W'
p5694
F0.0
sS'YLR347C'
p5695
F51700.0
sS'YJR107W'
p5696
F0.0
sS'YNL157W'
p5697
F0.0
sS'YBR218C'
p5698
F17000.0
sS'YNR060W'
p5699
F0.0
sS'YML120C'
p5700
F5240.0
sS'YHR106W'
p5701
F414.0
sS'YNL164C'
p5702
F0.0
sS'YDL156W'
p5703
F3810.0
sS'YMR238W'
p5704
F2950.0
sS'YER137C'
p5705
F0.0
sS'YDR027C'
p5706
F2540.0
sS'YGL069C'
p5707
F0.0
sS'YPL263C'
p5708
F4010.0
sS'YDL001W'
p5709
F952.0
sS'YOL013C'
p5710
F2660.0
sS'YPL218W'
p5711
F0.0
sS'YEL028W'
p5712
F0.0
sS'YBR071W'
p5713
F1200.0
sS'YHL004W'
p5714
F6890.0
sS'YOR370C'
p5715
F23800.0
sS'YDR389W'
p5716
F1420.0
sS'YDL027C'
p5717
F450.0
sS'YER053C'
p5718
F0.0
sS'YPL051W'
p5719
F1920.0
sS'YDL217C'
p5720
F0.0
sS'YLR081W'
p5721
F0.0
sS'YML066C'
p5722
F0.0
sS'YKR014C'
p5723
F9380.0
sS'YGL008C'
p5724
F1260000.0
sS'YLR412W'
p5725
F6490.0
sS'YER002W'
p5726
F2860.0
sS'YDL127W'
p5727
F0.0
sS'YGR265W'
p5728
F0.0
sS'YPR008W'
p5729
F339.0
sS'YGL020C'
p5730
F2250.0
sS'YMR083W'
p5731
F11600.0
sS'YMR112C'
p5732
F396.0
sS'YOR186W'
p5733
F0.0
sS'YMR216C'
p5734
F2420.0
sS'YIL047C'
p5735
F1160.0
sS'YDR502C'
p5736
F22000.0
sS'YGL034C'
p5737
F0.0
sS'YGR247W'
p5738
F1520.0
sS'YPR026W'
p5739
F0.0
sS'YEL002C'
p5740
F14900.0
sS'YEL075C'
p5741
F0.0
sS'YPL245W'
p5742
F1130.0
sS'YDR495C'
p5743
F2270.0
sS'YBR079C'
p5744
F52700.0
sS'YHR199C'
p5745
F4420.0
sS'YDL090C'
p5746
F3910.0
sS'YFL054C'
p5747
F0.0
sS'YJL128C'
p5748
F2160.0
sS'YBL097W'
p5749
F704.0
sS'YDR457W'
p5750
F358.0
sS'YJL073W'
p5751
F3180.0
sS'YNL174W'
p5752
F0.0
sS'YDR370C'
p5753
F1040.0
sS'YOR113W'
p5754
F556.0
sS'YPR135W'
p5755
F3280.0
sS'YLR193C'
p5756
F704.0
sS'YLR248W'
p5757
F1790.0
sS'YJL102W'
p5758
F1730.0
sS'YNL043C'
p5759
F0.0
sS'YNL181W'
p5760
F13900.0
sS'YBL068W'
p5761
F5280.0
sS'YDR163W'
p5762
F0.0
sS'YDL105W'
p5763
F0.0
sS'YBR011C'
p5764
F68400.0
sS'YHR082C'
p5765
F1270.0
sS'YFR008W'
p5766
F486.0
sS'YPL017C'
p5767
F6400.0
sS'YPR168W'
p5768
F1470.0
sS'YJL048C'
p5769
F1340.0
sS'YPR113W'
p5770
F3810.0
sS'YKL161C'
p5771
F0.0
sS'YBR251W'
p5772
F6680.0
sS'YIL113W'
p5773
F0.0
sS'YMR099C'
p5774
F8580.0
sS'YOL107W'
p5775
F1630.0
sS'YGR135W'
p5776
F17100.0
sS'YGL219C'
p5777
F377.0
sS'YAL051W'
p5778
F92.3
sS'YCR057C'
p5779
F16700.0
sS'YPL140C'
p5780
F1950.0
sS'YKL070W'
p5781
F0.0
sS'YJL086C'
p5782
F0.0
sS'YHR152W'
p5783
F937.0
sS'YNL316C'
p5784
F2020.0
sS'YKL147C'
p5785
F0.0
sS'YNL029C'
p5786
F450.0
sS'YHR166C'
p5787
F79.7
sS'YIL128W'
p5788
F3150.0
sS'YGL097W'
p5789
F12100.0
sS'YLR224W'
p5790
F0.0
sS'YLR271W'
p5791
F1470.0
sS'YGR168C'
p5792
F0.0
sS'YOR261C'
p5793
F19800.0
sS'YHR021C'
p5794
F0.0
sS'YIL088C'
p5795
F195.0
sS'YGL170C'
p5796
F0.0
sS'YNR041C'
p5797
F0.0
sS'YNL259C'
p5798
F0.0
sS'YML101C'
p5799
F1850.0
sS'YNL099C'
p5800
F2310.0
sS'YGR048W'
p5801
F3530.0
sS'YKR096W'
p5802
F195.0
sS'YDR390C'
p5803
F18800.0
sS'YFR043C'
p5804
F0.0
sS'YHL021C'
p5805
F5800.0
sS'YLR304C'
p5806
F96700.0
sS'YOR357C'
p5807
F0.0
sS'YGR153W'
p5808
F0.0
sS'YFR038W'
p5809
F0.0
sS'YOR037W'
p5810
F2730.0
sS'YGL222C'
p5811
F0.0
sS'YHR129C'
p5812
F1580.0
sS'YGR033C'
p5813
F3770.0
sS'YJR144W'
p5814
F0.0
sS'YPL271W'
p5815
F4280.0
sS'YOR383C'
p5816
F0.0
sS'YMR171C'
p5817
F656.0
sS'YCR042C'
p5818
F1160.0
sS'YCR035C'
p5819
F3180.0
sS'YPL019C'
p5820
F2630.0
sS'YLR048W'
p5821
F60900.0
sS'YDR102C'
p5822
F0.0
sS'YMR259C'
p5823
F7110.0
sS'YBR061C'
p5824
F4110.0
sS'YOR145C'
p5825
F0.0
sS'YBL037W'
p5826
F1590.0
sS'YPR190C'
p5827
F2520.0
sS'YOR215C'
p5828
F2870.0
sS'YGR182C'
p5829
F0.0
sS'YOR262W'
p5830
F9230.0
sS'YDL048C'
p5831
F623.0
sS'YEL056W'
p5832
F0.0
sS'YNL204C'
p5833
F0.0
sS'YLR066W'
p5834
F6840.0
sS'YBR047W'
p5835
F2160.0
sS'YNL273W'
p5836
F952.0
sS'YOR140W'
p5837
F1040.0
sS'YER070W'
p5838
F293000.0
sS'YOR312C'
p5839
F0.0
sS'YJL003W'
p5840
F672.0
sS'YKR057W'
p5841
F27400.0
sS'YGR222W'
p5842
F799.0
sS'YOR163W'
p5843
F3440.0
sS'YMR044W'
p5844
F5820.0
sS'YDR073W'
p5845
F1030.0
sS'YML050W'
p5846
F0.0
sS'YPR074C'
p5847
F40300.0
sS'YDR239C'
p5848
F155.0
sS'YDL080C'
p5849
F2140.0
sS'YML085C'
p5850
F5590.0
sS'YHR185C'
p5851
F0.0
sS'YDR242W'
p5852
F0.0
sS'YLR175W'
p5853
F33600.0
sS'YDR048C'
p5854
F0.0
sS'YJL138C'
p5855
F0.0
sS'YER103W'
p5856
F17900.0
sS'YJL025W'
p5857
F398.0
sS'YMR262W'
p5858
F125.0
sS'YLR153C'
p5859
F225000.0
sS'YBL076C'
p5860
F23300.0
sS'YGL134W'
p5861
F217.0
sS'YLR128W'
p5862
F0.0
sS'YKR068C'
p5863
F2370.0
sS'YBR143C'
p5864
F13100.0
sS'YDR086C'
p5865
F0.0
sS'YIR016W'
p5866
F0.0
sS'YPL072W'
p5867
F450.0
sS'YJL134W'
p5868
F0.0
sS'YJL161W'
p5869
F0.0
sS'YDR449C'
p5870
F7520.0
sS'YLR367W'
p5871
F19700.0
sS'YGL205W'
p5872
F0.0
sS'YIR022W'
p5873
F3150.0
sS'YKR035C'
p5874
F0.0
sS'YKR042W'
p5875
F56900.0
sS'YDL142C'
p5876
F876.0
sS'YMR066W'
p5877
F396.0
sS'YJR001W'
p5878
F1820.0
sS'YGL196W'
p5879
F0.0
sS'YJL209W'
p5880
F2180.0
sS'YDR264C'
p5881
F4070.0
sS'YNL035C'
p5882
F3970.0
sS'YFL015C'
p5883
F0.0
sS'YMR297W'
p5884
F44000.0
sS'YLR250W'
p5885
F6900.0
sS'YML122C'
p5886
F0.0
sS'YBR281C'
p5887
F1940.0
sS'YCR075C'
p5888
F0.0
sS'YGR081C'
p5889
F3670.0
sS'YBL016W'
p5890
F8480.0
sS'YGL150C'
p5891
F6280.0
sS'YOR349W'
p5892
F704.0
sS'YNL292W'
p5893
F3990.0
sS'YDR171W'
p5894
F1470.0
sS'YBR270C'
p5895
F0.0
sS'YAL023C'
p5896
F6510.0
sS'YJR127C'
p5897
F0.0
sS'YOR041C'
p5898
F0.0
sS'YOR014W'
p5899
F300.0
sS'YLR390W'
p5900
F1890.0
sS'YLR345W'
p5901
F3380.0
sS'YLR448W'
p5902
F38400.0
sS'YDR311W'
p5903
F5150.0
sS'YHR002W'
p5904
F0.0
sS'YDR472W'
p5905
F8350.0
sS'YNR062C'
p5906
F0.0
sS'YNL155W'
p5907
F4280.0
sS'YAL018C'
p5908
F0.0
sS'YNL100W'
p5909
F5460.0
sS'YBR216C'
p5910
F3060.0
sS'YOR372C'
p5911
F799.0
sS'YCR009C'
p5912
F7390.0
sS'YHR108W'
p5913
F2270.0
sS'YDR025W'
p5914
F0.0
sS'YBR086C'
p5915
F0.0
sS'YAR003W'
p5916
F907.0
sS'YMR236W'
p5917
F6580.0
sS'YOR127W'
p5918
F396.0
sS'YOL011W'
p5919
F0.0
sS'YPL261C'
p5920
F0.0
sS'YLR443W'
p5921
F0.0
sS'YLL013C'
p5922
F846.0
sS'YOL124C'
p5923
F2020.0
sS'YDR013W'
p5924
F1430.0
sS'YHR021W-A'
p5925
F0.0
sS'YHL002W'
p5926
F358.0
sS'YLR410W'
p5927
F8810.0
sS'YDR228C'
p5928
F2800.0
sS'YER004W'
p5929
F1340.0
sS'YBL105C'
p5930
F0.0
sS'YKR016W'
p5931
F5730.0
sS'YLL036C'
p5932
F11700.0
sS'YDL029W'
p5933
F6650.0
sS'YLR034C'
p5934
F0.0
sS'YLR083C'
p5935
F0.0
sS'YHR039C-A'
p5936
F2280.0
sS'YDL121C'
p5937
F3260.0
sS'YMR085W'
p5938
F0.0
sS'YHR219W'
p5939
F0.0
sS'YPR065W'
p5940
F238.0
sS'YOR184W'
p5941
F15900.0
sS'YDL007W'
p5942
F0.0
sS'YMR210W'
p5943
F0.0
sS'YDR504C'
p5944
F0.0
sS'YGR067C'
p5945
F0.0
sS'YOR158W'
p5946
F2010.0
sS'YPR024W'
p5947
F20100.0
sS'YDR493W'
p5948
F279.0
sS'YGR241C'
p5949
F6800.0
sS'YGL036W'
p5950
F486.0
sS'YPL247C'
p5951
F799.0
sS'YOR245C'
p5952
F907.0
sS'YPR053C'
p5953
F0.0
sS'YKL167C'
p5954
F0.0
sS'YBL095W'
p5955
F704.0
sS'YDL092W'
p5956
F8000.0
sS'YML116W-A'
p5957
F0.0
sS'YPR137W'
p5958
F5130.0
sS'YMR027W'
p5959
F6190.0
sS'YOR115C'
p5960
F0.0
sS'YDR327W'
p5961
F0.0
sS'YLR208W'
p5962
F21400.0
sS'YDR455C'
p5963
F0.0
sS'YJL075C'
p5964
F0.0
sS'YMR145C'
p5965
F4930.0
sS'YDR161W'
p5966
F1630.0
sS'YMR110C'
p5967
F2930.0
sS'YCL041C'
p5968
F0.0
sS'YNL183C'
p5969
F284.0
sS'YDR209C'
p5970
F0.0
sS'YCR065W'
p5971
F358.0
sS'YLR288C'
p5972
F414.0
sS'YHR059W'
p5973
F2630.0
sS'YBR013C'
p5974
F0.0
sS'YPL011C'
p5975
F3300.0
sS'YNL309W'
p5976
F319.0
sS'YJR048W'
p5977
F7330.0
sS'YPR111W'
p5978
F3320.0
sS'YHR084W'
p5979
F1920.0
sS'YAL053W'
p5980
F414.0
sS'YNL149C'
p5981
F0.0
sS'YGL095C'
p5982
F5660.0
sS'YBR257W'
p5983
F0.0
sS'YHR079C-A'
p5984
F0.0
sS'YHR018C'
p5985
F10200.0
sS'YGR133W'
p5986
F0.0
sS'YJL140W'
p5987
F0.0
sS'YPL146C'
p5988
F1600.0
sS'YKL072W'
p5989
F211.0
sS'YPL139C'
p5990
F3040.0
sS'YNL001W'
p5991
F1720.0
sS'YJL080C'
p5992
F0.0
sS'YHR150W'
p5993
F0.0
sS'YNL176C'
p5994
F0.0
sS'YIL173W'
p5995
F319.0
sS'YKL149C'
p5996
F1130.0
sS'YJL152W'
p5997
F0.0
sS'YER087C-B'
p5998
F217.0
sS'YKL081W'
p5999
F102000.0
sS'YJR128W'
p6000
F0.0
sS'YPL164C'
p6001
F0.0
sS'YMR274C'
p6002
F0.0
sS'YLR226W'
p6003
F2910.0
sS'YDL229W'
p6004
F170000.0
sS'YOL032W'
p6005
F1910.0
sS'YHR027C'
p6006
F306000.0
sS'YNR047W'
p6007
F752.0
sS'YIL060W'
p6008
F0.0
sS'YBR239C'
p6009
F85.5
sS'YML107C'
p6010
F2210.0
sS'YKR098C'
p6011
F0.0
sS'YFR041C'
p6012
F0.0
sS'YHR071W'
p6013
F0.0
sS'YOR355W'
p6014
F2280.0
sS'YLR302C'
p6015
F0.0
sS'YAL034W-A'
p6016
F2610.0
sS'YHL023C'
p6017
F0.0
sS'YGR031W'
p6018
F7400.0
sS'YOR035C'
p6019
F3410.0
sS'YOR060C'
p6020
F1690.0
sS'YER158C'
p6021
F784.0
sS'YMR173W'
p6022
F0.0
sS'YCR040W'
p6023
F0.0
sS'YMR250W'
p6024
F1200.0
sS'YDR058C'
p6025
F0.0
sS'YER123W'
p6026
F1320.0
sS'YLL008W'
p6027
F0.0
sS'YKL206C'
p6028
F2940.0
sS'YKL207W'
p6029
F0.0
sS'YMR319C'
p6030
F573.0
sS'YGL177W'
p6031
F0.0
sS'YER055C'
p6032
F0.0
sS'YBL031W'
p6033
F264.0
sS'YDR391C'
p6034
F6020.0
sS'YGR180C'
p6035
F88900.0
sS'YOR260W'
p6036
F9530.0
sS'YPR196W'
p6037
F0.0
sS'YHL049C'
p6038
F0.0
sS'YLR013W'
p6039
F0.0
sS'YNL271C'
p6040
F166.0
sS'YBR045C'
p6041
F0.0
sS'YLL055W'
p6042
F0.0
sS'YER072W'
p6043
F12100.0
sS'YOR138C'
p6044
F5930.0
sS'YPR158W'
p6045
F0.0
sS'YJL058C'
p6046
F1960.0
sS'YDR075W'
p6047
F2840.0
sS'YLR177W'
p6048
F1550.0
sS'YGR220C'
p6049
F3190.0
sS'YML052W'
p6050
F17000.0
sS'YHR187W'
p6051
F3870.0
sS'YGR275W'
p6052
F1550.0
sS'YOR286W'
p6053
F4220.0
sS'YDR240C'
p6054
F361.0
sS'YPR076W'
p6055
F0.0
sS'YLL022C'
p6056
F4550.0
sS'YOR143C'
p6057
F3320.0
sS'YBR063C'
p6058
F0.0
sS'YER105C'
p6059
F4420.0
sS'YJL023C'
p6060
F721.0
sS'YBL104C'
p6061
F184.0
sS'YKL165C'
p6062
F0.0
sS'YDR518W'
p6063
F0.0
sS'YMR159C'
p6064
F573.0
sS'YLR151C'
p6065
F238.0
sS'YMR264W'
p6066
F589.0
sS'YGL136C'
p6067
F0.0
sS'YPR018W'
p6068
F1590.0
sS'YER018C'
p6069
F3280.0
sS'YBR141C'
p6070
F623.0
sS'YJL136C'
p6071
F15300.0
sS'YDR140W'
p6072
F3390.0
sS'YKL112W'
p6073
F4820.0
sS'YDR080W'
p6074
F1170.0
sS'YBR114W'
p6075
F358.0
sS'YHR024C'
p6076
F31400.0
sS'YPL025C'
p6077
F0.0
sS'YCR097W-A'
p6078
F0.0
sS'YIR014W'
p6079
F0.0
sS'YPL070W'
p6080
F0.0
sS'YLR361C'
p6081
F1940.0
sS'YPL202C'
p6082
F0.0
sS'YKL180W'
p6083
F0.0
sS'YMR064W'
p6084
F504.0
sS'YJR007W'
p6085
F17100.0
sS'YER098W'
p6086
F98.9
sS'YIR020C'
p6087
F0.0
sS'YJL118W'
p6088
F0.0
sS'YGL001C'
p6089
F2580.0
sS'YMR291W'
p6090
F10200.0
sS'YDL140C'
p6091
F0.0
sS'YDR266C'
p6092
F1910.0
sS'YGL194C'
p6093
F4890.0
sS'YLR263W'
p6094
F0.0
sS'YNL037C'
p6095
F10500.0
sS'YFL013C'
p6096
F1390.0
sS'YML124C'
p6097
F12300.0
sS'YIL107C'
p6098
F1710.0
sS'YLR252W'
p6099
F0.0
sS'YOR029W'
p6100
F0.0
sS'YOR326W'
p6101
F4340.0
sS'YGR087C'
p6102
F1520.0
sS'YGL156W'
p6103
F319.0
sS'YDL114W'
p6104
F0.0
sS'YGR147C'
p6105
F1240.0
sS'YJR092W'
p6106
F1600.0
sS'YAL025C'
p6107
F0.0
sS'YBL014C'
p6108
F237.0
sS'YMR320W'
p6109
F0.0
sS'YLR269C'
p6110
F0.0
sS'YOR016C'
p6111
F2710.0
sS'YJR121W'
p6112
F164000.0
sS'YDR313C'
p6113
F195.0
sS'YHR004C'
p6114
F377.0
sS'YNL153C'
p6115
F7470.0
sS'YBR214W'
p6116
F2840.0
sS'YNR064C'
p6117
F0.0
sS'YMR224C'
p6118
F432.0
sS'YBR249C'
p6119
F26300.0
sS'YLR392C'
p6120
F736.0
sS'YNL102W'
p6121
F1050.0
sS'YMR234W'
p6122
F149.0
sS'YOL086W-A'
p6123
F0.0
sS'YBR084W'
p6124
F11400.0
sS'YDL131W'
p6125
F21900.0
sS'YNL081C'
p6126
F259.0
sS'YPL267W'
p6127
F688.0
sS'YOR229W'
p6128
F3750.0
sS'YEL024W'
p6129
F0.0
sS'YOL017W'
p6130
F432.0
sS'YPL123C'
p6131
F504.0
sS'YOR083W'
p6132
F1440.0
sS'YDR023W'
p6133
F0.0
sS'YNL294C'
p6134
F0.0
sS'YBR272C'
p6135
F468.0
sS'YDR298C'
p6136
F32400.0
sS'YDR011W'
p6137
F1300.0
sS'YCR067C'
p6138
F0.0
sS'YPR097W'
p6139
F3080.0
sS'YOL151W'
p6140
F5460.0
sS'YHR131C'
p6141
F172.0
sS'YIL029C'
p6142
F0.0
sS'YDR491C'
p6143
F0.0
sS'YDR118W'
p6144
F1330.0
sS'YMR169C'
p6145
F172.0
sS'YPR070W'
p6146
F4670.0
sS'YLR118C'
p6147
F1480.0
sS'YER006W'
p6148
F7130.0
sS'YPR051W'
p6149
F1940.0
sS'YLL034C'
p6150
F4490.0
sS'YMR251W-A'
p6151
F6140.0
sS'YLR036C'
p6152
F967.0
sS'YDL189W'
p6153
F892.0
sS'YDL123W'
p6154
F6780.0
sS'YMR087W'
p6155
F0.0
sS'YNL236W'
p6156
F1720.0
sS'YOR287C'
p6157
F0.0
sS'YJR105W'
p6158
F22200.0
sS'YDL072C'
p6159
F2840.0
sS'YOR328W'
p6160
F0.0
sS'YDL005C'
p6161
F10800.0
sS'YMR212C'
p6162
F1670.0
sS'YNL313C'
p6163
F8070.0
sS'YJL196C'
p6164
F937.0
sS'YLR058C'
p6165
F67600.0
sS'YOR247W'
p6166
F0.0
sS'YGR292W'
p6167
F5060.0
sS'YEL006W'
p6168
F1630.0
sS'YGR243W'
p6169
F6750.0
sS'YDR506C'
p6170
F589.0
sS'YGL038C'
p6171
F9490.0
sS'YGR069W'
p6172
F0.0
sS'YPL249C'
p6173
F1940.0
sS'YDL109C'
p6174
F195.0
sS'YFL058W'
p6175
F0.0
sS'YDL094C'
p6176
F0.0
sS'YML095C'
p6177
F0.0
sS'YOR117W'
p6178
F0.0
sS'YMR025W'
p6179
F0.0
sS'YLR206W'
p6180
F1970.0
sS'YPR139C'
p6181
F6630.0
sS'YML009W-B'
p6182
F0.0
sS'YNL185C'
p6183
F3190.0
sS'YCL043C'
p6184
F0.0
sS'YGR269W'
p6185
F279.0
sS'YMR147W'
p6186
F0.0
sS'YCR089W'
p6187
F0.0
sS'YPR117W'
p6188
F0.0
sS'YHR086W'
p6189
F1480.0
sS'YBR015C'
p6190
F6730.0
sS'YPL013C'
p6191
F0.0
s.