(dp0
S'YBR177C'
p1
(lp2
F4.5
aF12.0
aF9.8
aF16.2
asS'YIL140W'
p3
(lp4
F2.6
aF7.6
aF5.4
aF15.0
asS'YLR268W'
p5
(lp6
F5.7
aF8.7
aF7.3
aF11.9
asS'YOR011W'
p7
(lp8
F2.3
aF6.6
aF5.7
aF9.9
asS'YPL043W'
p9
(lp10
F1.2
aF2.9
aF2.7
aF3.9
asS'YJL155C'
p11
(lp12
F6.7
aF8.4
aF6.4
aF17.8
asS'YHR067W'
p13
(lp14
F4.1
aF7.6
aF6.3
aF11.5
asS'YAL008W'
p15
(lp16
F12.5
aF27.5
aF13.4
aF57.3
asS'YNR028W'
p17
(lp18
F3.9
aF5.7
aF4.4
aF9.2
asS'YMR111C'
p19
(lp20
F3.4
aF7.0
aF3.7
aF13.0
asS'YBR255W'
p21
(lp22
F3.8
aF8.4
aF5.8
aF14.8
asS'YFR027W'
p23
(lp24
F3.6
aF3.8
aF3.1
aF6.8
asS'YBR128C'
p25
(lp26
F12.5
aF14.1
aF10.1
aF22.0
asS'YAL056W'
p27
(lp28
F3.5
aF4.9
aF4.5
aF7.5
asS'YGR148C'
p29
(lp30
F4.6
aF25.7
aF19.2
aF32.5
asS'YNR060W'
p31
(lp32
F6.6
aF9.5
aF7.6
aF14.2
asS'YJL204C'
p33
(lp34
F2.6
aF6.6
aF5.3
aF13.2
asS'YIL034C'
p35
(lp36
F8.8
aF23.1
aF16.8
aF33.4
asS'YLR244C'
p37
(lp38
F3.8
aF14.2
aF10.6
aF22.7
asS'YNL003C'
p39
(lp40
F2.4
aF4.7
aF4.1
aF6.8
asS'YJR084W'
p41
(lp42
F2.8
aF4.9
aF4.1
aF7.4
asS'YBR135W'
p43
(lp44
F4.3
aF11.1
aF9.1
aF15.7
asS'YBR004C'
p45
(lp46
F1.1
aF2.4
aF2.3
aF3.0
asS'YBR160W'
p47
(lp48
F11.9
aF13.5
aF10.0
aF20.8
asS'YDL238C'
p49
(lp50
F7.3
aF28.0
aF20.0
aF37.9
asS'YHR007C'
p51
(lp52
F2.6
aF5.7
aF5.0
aF8.9
asS'YIR004W'
p53
(lp54
F2.5
aF4.7
aF4.0
aF7.3
asS'YKL190W'
p55
(lp56
F4.8
aF9.6
aF7.4
aF13.8
asS'YGL084C'
p57
(lp58
F3.4
aF5.1
aF4.3
aF7.7
asS'YDR312W'
p59
(lp60
F1.7
aF3.4
aF3.2
aF4.0
asS'YLR348C'
p61
(lp62
F13.2
aF45.0
aF22.4
aF122.4
asS'YBR248C'
p63
(lp64
F2.3
aF8.0
aF6.8
aF13.2
asS'YNR067C'
p65
(lp66
F2.2
aF7.3
aF5.5
aF12.0
asS'YNL152W'
p67
(lp68
F4.8
aF6.3
aF4.7
aF12.3
asS'YLR382C'
p69
(lp70
F3.7
aF5.0
aF4.6
aF7.3
asS'YJL077C'
p71
(lp72
F3.6
aF4.8
aF4.1
aF7.4
asS'YKL096W-A'
p73
(lp74
F4.4
aF27.5
aF19.0
aF44.0
asS'YFL045C'
p75
(lp76
F3.8
aF12.7
aF10.0
aF16.0
asS'YDR141C'
p77
(lp78
F7.8
aF46.9
aF31.9
aF79.7
asS'YDL170W'
p79
(lp80
F3.4
aF4.8
aF4.2
aF7.6
asS'YJR044C'
p81
(lp82
F10.3
aF19.5
aF13.0
aF31.9
asS'YDR083W'
p83
(lp84
F1.2
aF2.3
aF2.2
aF3.9
asS'YMR009W'
p85
(lp86
F3.3
aF6.6
aF5.2
aF11.0
asS'YJL179W'
p87
(lp88
F2.9
aF6.3
aF5.0
aF9.3
asS'YJL122W'
p89
(lp90
F0.8
aF1.3
aF1.3
aF1.5
asS'YKL183W'
p91
(lp92
F3.2
aF6.0
aF5.2
aF7.8
asS'YLR189C'
p93
(lp94
F10.8
aF30.2
aF20.5
aF45.2
asS'YDR363W'
p95
(lp96
F1.9
aF3.2
aF3.0
aF4.7
asS'YLR362W'
p97
(lp98
F3.5
aF12.0
aF7.9
aF18.3
asS'YPR118W'
p99
(lp100
F3.2
aF10.0
aF8.0
aF11.9
asS'YMR283C'
p101
(lp102
F2.6
aF4.6
aF4.0
aF8.2
asS'YPL024W'
p103
(lp104
F2.6
aF4.7
aF3.6
aF10.0
asS'YKL134C'
p105
(lp106
F2.5
aF4.3
aF3.5
aF8.6
asS'YIL108W'
p107
(lp108
F6.8
aF20.3
aF13.3
aF32.3
asS'YKL052C'
p109
(lp110
F2.6
aF3.5
aF3.2
aF4.8
asS'YBR273C'
p111
(lp112
F5.9
aF10.9
aF7.8
aF17.4
asS'YFR005C'
p113
(lp114
F1.9
aF3.5
aF3.3
aF4.8
asS'YHL036W'
p115
(lp116
F2.1
aF2.7
aF2.4
aF5.9
asS'YAL026C'
p117
(lp118
F2.6
aF6.3
aF5.2
aF8.5
asS'YOL034W'
p119
(lp120
F2.5
aF4.8
aF3.8
aF8.6
asS'YJR135W-A'
p121
(lp122
F2.8
aF8.8
aF7.7
aF11.4
asS'YFL017W-A'
p123
(lp124
F2.8
aF6.0
aF4.8
aF9.2
asS'YFR050C'
p125
(lp126
F3.9
aF6.8
aF5.4
aF10.3
asS'YBL008W'
p127
(lp128
F1.8
aF4.8
aF3.9
aF7.8
asS'YLR079W'
p129
(lp130
F3.5
aF3.8
aF3.5
aF5.4
asS'YLR447C'
p131
(lp132
F3.7
aF32.5
aF22.9
aF45.7
asS'YGL237C'
p133
(lp134
F5.3
aF8.5
aF6.5
aF14.8
asS'YOL058W'
p135
(lp136
F1.3
aF3.2
aF2.9
aF4.0
asS'YIL062C'
p137
(lp138
F8.9
aF17.3
aF12.2
aF25.5
asS'YOR005C'
p139
(lp140
F8.1
aF8.8
aF6.5
aF14.4
asS'YDR016C'
p141
(lp142
F4.9
aF5.5
aF4.1
aF8.7
asS'YPL059W'
p143
(lp144
F3.7
aF7.5
aF6.4
aF10.5
asS'YAR019C'
p145
(lp146
F6.9
aF15.3
aF10.9
aF22.6
asS'YDR299W'
p147
(lp148
F1.7
aF3.8
aF3.5
aF5.1
asS'YOL116W'
p149
(lp150
F17.7
aF25.0
aF15.9
aF40.9
asS'YJL140W'
p151
(lp152
F4.8
aF9.9
aF6.8
aF15.8
asS'YBR182C'
p153
(lp154
F4.5
aF6.9
aF5.4
aF13.2
asS'YGL257C'
p155
(lp156
F2.8
aF6.2
aF5.2
aF8.9
asS'YDR196C'
p157
(lp158
F6.7
aF14.1
aF10.0
aF24.1
asS'YBR202W'
p159
(lp160
F2.2
aF4.0
aF3.6
aF7.0
asS'YHR101C'
p161
(lp162
F6.3
aF6.8
aF5.2
aF11.0
asS'YDR410C'
p163
(lp164
F1.9
aF2.4
aF2.3
aF3.9
asS'YNL255C'
p165
(lp166
F2.4
aF5.2
aF4.6
aF7.6
asS'YGR020C'
p167
(lp168
F5.7
aF19.6
aF15.2
aF25.6
asS'YNR045W'
p169
(lp170
F4.2
aF7.3
aF6.1
aF12.1
asS'YPL143W'
p171
(lp172
F3.8
aF24.0
aF17.2
aF36.0
asS'YML105C'
p173
(lp174
F2.6
aF4.7
aF4.1
aF7.1
asS'YNL288W'
p175
(lp176
F3.5
aF7.0
aF5.9
aF12.5
asS'YIL091C'
p177
(lp178
F1.2
aF2.8
aF2.6
aF3.8
asS'YDR406W'
p179
(lp180
F5.9
aF19.9
aF16.5
aF26.6
asS'YLR357W'
p181
(lp182
F3.7
aF4.0
aF3.6
aF6.9
asS'YPL104W'
p183
(lp184
F10.3
aF14.6
aF9.2
aF24.4
asS'YNL103W'
p185
(lp186
F2.8
aF5.0
aF3.8
aF9.5
asS'YAL046C'
p187
(lp188
F3.0
aF9.9
aF7.9
aF15.5
asS'YDR198C'
p189
(lp190
F1.7
aF2.9
aF2.7
aF4.6
asS'YAL039C'
p191
(lp192
F2.8
aF5.3
aF4.8
aF7.4
asS'YNR018W'
p193
(lp194
F3.6
aF9.8
aF8.5
aF12.1
asS'YPL144W'
p195
(lp196
F1.4
aF1.9
aF1.8
aF2.6
asS'YOR184W'
p197
(lp198
F3.0
aF11.4
aF8.5
aF17.9
asS'YFR047C'
p199
(lp200
F7.9
aF24.3
aF18.3
aF33.4
asS'YGR100W'
p201
(lp202
F5.1
aF18.9
aF11.4
aF34.5
asS'YFR037C'
p203
(lp204
F4.2
aF6.5
aF5.6
aF9.5
asS'YLR403W'
p205
(lp206
F2.3
aF3.7
aF3.3
aF6.1
asS'YNL147W'
p207
(lp208
F3.4
aF5.5
aF4.9
aF7.3
asS'YBR159W'
p209
(lp210
F4.3
aF8.5
aF6.7
aF12.2
asS'YML127W'
p211
(lp212
F6.7
aF10.1
aF8.1
aF14.1
asS'YCL030C'
p213
(lp214
F2.9
aF13.3
aF10.3
aF21.4
asS'YLR188W'
p215
(lp216
F2.3
aF5.3
aF4.9
aF7.9
asS'YGR084C'
p217
(lp218
F2.7
aF4.1
aF3.4
aF8.2
asS'YCR002C'
p219
(lp220
F4.4
aF9.5
aF7.4
aF14.0
asS'YHR141C'
p221
(lp222
F4.1
aF19.8
aF14.6
aF27.3
asS'YLR355C'
p223
(lp224
F1.4
aF4.8
aF4.4
aF6.3
asS'YJR110W'
p225
(lp226
F2.3
aF3.5
aF3.1
aF5.8
asS'YLR233C'
p227
(lp228
F3.5
aF4.8
aF3.6
aF9.7
asS'YPL128C'
p229
(lp230
F2.7
aF2.8
aF2.6
aF5.3
asS'YBL015W'
p231
(lp232
F4.0
aF9.7
aF6.9
aF14.0
asS'YGR128C'
p233
(lp234
F1.8
aF3.8
aF3.3
aF7.1
asS'YLR300W'
p235
(lp236
F1.2
aF2.7
aF2.6
aF3.3
asS'YCL028W'
p237
(lp238
F5.8
aF40.7
aF28.5
aF58.2
asS'YJR140C'
p239
(lp240
F3.5
aF14.0
aF8.9
aF21.1
asS'YBR191W'
p241
(lp242
F3.5
aF21.5
aF17.4
aF27.1
asS'YBR043C'
p243
(lp244
F2.6
aF4.9
aF4.2
aF7.4
asS'YHR005C-A'
p245
(lp246
F2.2
aF5.1
aF4.5
aF6.6
asS'YGL100W'
p247
(lp248
F2.8
aF4.5
aF4.1
aF6.3
asS'YBR094W'
p249
(lp250
F2.7
aF11.5
aF7.5
aF19.5
asS'YOR306C'
p251
(lp252
F11.9
aF52.4
aF27.4
aF109.4
asS'YNR007C'
p253
(lp254
F5.2
aF9.0
aF5.9
aF13.7
asS'YDR035W'
p255
(lp256
F3.1
aF14.7
aF11.0
aF20.5
asS'YGR042W'
p257
(lp258
F2.4
aF4.9
aF3.9
aF7.3
asS'YPL156C'
p259
(lp260
F2.4
aF3.2
aF2.9
aF5.3
asS'YDR485C'
p261
(lp262
F4.5
aF8.2
aF5.9
aF15.4
asS'YGR077C'
p263
(lp264
F4.3
aF7.7
aF5.8
aF14.8
asS'YOR216C'
p265
(lp266
F3.9
aF9.5
aF7.0
aF16.0
asS'YIL044C'
p267
(lp268
F2.4
aF4.7
aF4.0
aF6.9
asS'YNL197C'
p269
(lp270
F7.3
aF13.8
aF7.2
aF23.5
asS'YPR183W'
p271
(lp272
F4.5
aF24.1
aF17.4
aF30.9
asS'YLR069C'
p273
(lp274
F3.7
aF6.6
aF5.6
aF10.6
asS'YOL043C'
p275
(lp276
F3.9
aF7.2
aF6.2
aF13.3
asS'YBL042C'
p277
(lp278
F0.8
aF1.3
aF1.5
aF2.2
asS'YEL017C-A'
p279
(lp280
F3.8
aF14.2
aF10.7
aF18.1
asS'YNL091W'
p281
(lp282
F11.1
aF25.0
aF14.8
aF42.6
asS'YCR046C'
p283
(lp284
F2.8
aF6.1
aF5.5
aF7.6
asS'YLR059C'
p285
(lp286
F3.2
aF9.9
aF8.0
aF12.2
asS'YOL001W'
p287
(lp288
F4.8
aF6.7
aF4.3
aF11.8
asS'YDR525W-A'
p289
(lp290
F2.2
aF3.1
aF2.8
aF3.9
asS'YIL056W'
p291
(lp292
F4.9
aF7.9
aF5.6
aF12.9
asS'YDR059C'
p293
(lp294
F3.9
aF4.9
aF3.9
aF8.3
asS'YDR379C-A'
p295
(lp296
F9.8
aF11.0
aF7.3
aF17.1
asS'YOL063C'
p297
(lp298
F6.8
aF15.8
aF10.5
aF26.7
asS'YPL224C'
p299
(lp300
F8.7
aF17.0
aF11.7
aF24.5
asS'YLR137W'
p301
(lp302
F7.7
aF13.8
aF8.4
aF18.1
asS'YEL007W'
p303
(lp304
F2.1
aF4.9
aF3.9
aF7.9
asS'YLR020C'
p305
(lp306
F2.2
aF3.1
aF2.9
aF4.4
asS'YLR404W'
p307
(lp308
F1.8
aF2.7
aF2.5
aF5.0
asS'YDL042C'
p309
(lp310
F1.2
aF2.6
aF2.5
aF3.6
asS'YOR058C'
p311
(lp312
F4.3
aF5.4
aF4.8
aF7.1
asS'YPL248C'
p313
(lp314
F12.1
aF41.0
aF19.4
aF81.4
asS'YDR531W'
p315
(lp316
F2.3
aF6.2
aF5.1
aF8.8
asS'YIL013C'
p317
(lp318
F11.8
aF36.2
aF26.7
aF53.4
asS'YOR266W'
p319
(lp320
F2.2
aF1.3
aF1.4
aF2.5
asS'YPL206C'
p321
(lp322
F6.7
aF13.5
aF9.6
aF20.4
asS'YOL136C'
p323
(lp324
F4.3
aF6.4
aF4.6
aF12.2
asS'YDL060W'
p325
(lp326
F1.8
aF5.0
aF4.2
aF7.4
asS'YLR002C'
p327
(lp328
F2.0
aF5.1
aF4.5
aF6.7
asS'YOR303W'
p329
(lp330
F2.1
aF3.4
aF3.0
aF6.7
asS'YDR320C-A'
p331
(lp332
F2.4
aF5.2
aF4.8
aF6.7
asS'YOR071C'
p333
(lp334
F8.1
aF19.2
aF12.0
aF35.2
asS'YDR393W'
p335
(lp336
F3.8
aF6.2
aF4.7
aF10.6
asS'YGL171W'
p337
(lp338
F1.9
aF4.3
aF4.0
aF5.3
asS'YLR395C'
p339
(lp340
F4.5
aF12.0
aF7.9
aF21.7
asS'YGR019W'
p341
(lp342
F2.4
aF6.2
aF5.7
aF8.9
asS'YMR194W'
p343
(lp344
F2.3
aF7.4
aF6.1
aF10.7
asS'YHR032W'
p345
(lp346
F1.9
aF4.4
aF4.0
aF6.7
asS'YEL032W'
p347
(lp348
F1.2
aF4.6
aF4.1
aF8.7
asS'YER145C'
p349
(lp350
F2.1
aF4.8
aF4.6
aF6.3
asS'YER110C'
p351
(lp352
F3.1
aF39.7
aF29.9
aF53.4
asS'YHR123W'
p353
(lp354
F3.4
aF6.7
aF5.6
aF9.4
asS'YBL033C'
p355
(lp356
F4.3
aF5.4
aF4.7
aF7.8
asS'YDR022C'
p357
(lp358
F3.7
aF7.7
aF6.2
aF11.1
asS'YPL266W'
p359
(lp360
F2.5
aF4.6
aF3.9
aF6.3
asS'YML009C'
p361
(lp362
F2.7
aF3.5
aF3.1
aF5.6
asS'YHR203C'
p363
(lp364
F4.8
aF25.6
aF21.1
aF30.0
asS'YLR023C'
p365
(lp366
F3.5
aF5.3
aF4.7
aF9.1
asS'YLL057C'
p367
(lp368
F6.5
aF11.1
aF8.2
aF17.4
asS'YML112W'
p369
(lp370
F2.0
aF2.5
aF2.3
aF5.0
asS'YGL062W'
p371
(lp372
F3.9
aF46.1
aF30.8
aF68.4
asS'YNL229C'
p373
(lp374
F2.8
aF5.0
aF4.4
aF7.1
asS'YER169W'
p375
(lp376
F2.7
aF3.4
aF3.1
aF5.2
asS'YOL016C'
p377
(lp378
F4.3
aF11.6
aF9.1
aF15.8
asS'YOR226C'
p379
(lp380
F2.8
aF7.4
aF5.8
aF12.4
asS'YGL241W'
p381
(lp382
F2.6
aF11.1
aF7.6
aF21.8
asS'YMR238W'
p383
(lp384
F2.0
aF4.5
aF4.0
aF6.4
asS'YLR108C'
p385
(lp386
F8.9
aF7.3
aF5.3
aF11.1
asS'YNL186W'
p387
(lp388
F1.3
aF2.9
aF2.7
aF3.8
asS'YMR040W'
p389
(lp390
F9.2
aF10.7
aF7.1
aF19.0
asS'YPR176C'
p391
(lp392
F2.5
aF5.2
aF4.4
aF10.6
asS'YKR008W'
p393
(lp394
F4.5
aF6.4
aF5.1
aF11.2
asS'YMR146C'
p395
(lp396
F3.2
aF7.2
aF6.1
aF9.2
asS'YPR165W'
p397
(lp398
F4.7
aF11.6
aF9.7
aF15.5
asS'YDR226W'
p399
(lp400
F4.0
aF16.5
aF13.8
aF22.0
asS'YMR266W'
p401
(lp402
F2.9
aF6.1
aF5.4
aF7.8
asS'YDR057W'
p403
(lp404
F2.4
aF6.9
aF5.3
aF12.8
asS'YLR097C'
p405
(lp406
F6.9
aF9.3
aF6.3
aF15.3
asS'YCR060W'
p407
(lp408
F2.4
aF5.1
aF4.8
aF6.5
asS'YJL036W'
p409
(lp410
F8.1
aF11.6
aF8.3
aF16.3
asS'YER041W'
p411
(lp412
F4.0
aF5.4
aF4.6
aF9.3
asS'YGR277C'
p413
(lp414
F4.1
aF16.2
aF13.5
aF22.0
asS'YER009W'
p415
(lp416
F7.0
aF26.4
aF18.3
aF35.4
asS'YBR036C'
p417
(lp418
F4.0
aF7.4
aF6.2
aF12.8
asS'YMR015C'
p419
(lp420
F2.0
aF6.3
aF5.5
aF9.8
asS'YDL139C'
p421
(lp422
F2.4
aF2.3
aF2.3
aF3.7
asS'YDR246W'
p423
(lp424
F7.0
aF10.6
aF8.9
aF14.7
asS'YOR288C'
p425
(lp426
F9.7
aF14.9
aF12.2
aF20.2
asS'YLR163C'
p427
(lp428
F4.2
aF14.8
aF9.4
aF26.9
asS'YMR079W'
p429
(lp430
F3.5
aF12.8
aF10.1
aF18.7
asS'YLR115W'
p431
(lp432
F2.4
aF4.0
aF3.7
aF6.9
asS'YHR089C'
p433
(lp434
F1.6
aF3.1
aF2.7
aF4.8
asS'YGL014W'
p435
(lp436
F3.6
aF5.8
aF4.6
aF11.8
asS'YMR168C'
p437
(lp438
F2.6
aF6.6
aF5.1
aF13.3
asS'YML043C'
p439
(lp440
F0.7
aF1.0
aF1.1
aF1.6
asS'YLR068W'
p441
(lp442
F1.7
aF1.9
aF1.8
aF2.7
asS'YMR258C'
p443
(lp444
F11.7
aF25.8
aF19.6
aF33.8
asS'YNL323W'
p445
(lp446
F3.5
aF8.4
aF6.0
aF14.6
asS'YNL182C'
p447
(lp448
F1.2
aF2.0
aF1.9
aF2.5
asS'YER027C'
p449
(lp450
F3.7
aF5.7
aF4.8
aF7.8
asS'YGL044C'
p451
(lp452
F4.0
aF4.5
aF3.6
aF7.9
asS'YER107C'
p453
(lp454
F2.3
aF3.8
aF3.2
aF6.4
asS'YPL237W'
p455
(lp456
F4.4
aF5.6
aF5.0
aF8.3
asS'YBR038W'
p457
(lp458
F3.7
aF5.4
aF4.5
aF7.1
asS'YDR117C'
p459
(lp460
F3.6
aF5.9
aF5.3
aF9.0
asS'YLR120C'
p461
(lp462
F2.3
aF6.0
aF5.5
aF7.9
asS'YCR026C'
p463
(lp464
F3.6
aF5.7
aF5.1
aF9.6
asS'YBL052C'
p465
(lp466
F1.9
aF2.7
aF2.6
aF3.9
asS'YBR060C'
p467
(lp468
F4.4
aF7.5
aF5.7
aF11.7
asS'YPR016C'
p469
(lp470
F1.8
aF5.0
aF4.3
aF6.8
asS'YNL317W'
p471
(lp472
F2.3
aF5.1
aF4.4
aF7.8
asS'YGR235C'
p473
(lp474
F4.1
aF8.4
aF7.1
aF12.6
asS'YDR068W'
p475
(lp476
F3.9
aF5.9
aF4.5
aF12.2
asS'YDL055C'
p477
(lp478
F2.3
aF5.8
aF5.3
aF8.1
asS'YOR130C'
p479
(lp480
F2.3
aF4.5
aF3.8
aF6.6
asS'YBR009C'
p481
(lp482
F1.9
aF4.4
aF3.8
aF5.7
asS'YEL043W'
p483
(lp484
F7.1
aF17.3
aF12.2
aF27.8
asS'YJL003W'
p485
(lp486
F6.5
aF6.3
aF4.9
aF9.6
asS'YML072C'
p487
(lp488
F4.8
aF22.7
aF18.3
aF28.6
asS'YHR052W'
p489
(lp490
F1.0
aF1.8
aF1.8
aF3.0
asS'YKR026C'
p491
(lp492
F2.2
aF3.3
aF3.1
aF4.1
asS'YFL044C'
p493
(lp494
F5.2
aF23.4
aF18.7
aF29.9
asS'YJR043C'
p495
(lp496
F1.3
aF2.6
aF2.3
aF3.5
asS'YKL019W'
p497
(lp498
F5.2
aF13.7
aF11.4
aF17.2
asS'YJL130C'
p499
(lp500
F4.0
aF31.2
aF24.1
aF38.4
asS'YJL078C'
p501
(lp502
F2.8
aF12.3
aF8.0
aF20.8
asS'YJR126C'
p503
(lp504
F4.9
aF7.3
aF6.5
aF10.6
asS'YNL173C'
p505
(lp506
F9.7
aF15.9
aF12.0
aF22.1
asS'YBL085W'
p507
(lp508
F4.3
aF7.9
aF6.6
aF12.2
asS'YKL173W'
p509
(lp510
F2.4
aF7.8
aF5.9
aF16.0
asS'YGR200C'
p511
(lp512
F3.1
aF9.9
aF7.3
aF15.5
asS'YBR056W'
p513
(lp514
F11.9
aF44.3
aF27.2
aF131.3
asS'YLR383W'
p515
(lp516
F3.1
aF11.3
aF8.6
aF15.9
asS'YDR348C'
p517
(lp518
F2.7
aF4.6
aF3.9
aF6.1
asS'YKL182W'
p519
(lp520
F2.7
aF33.8
aF26.8
aF44.7
asS'YDL039C'
p521
(lp522
F2.8
aF3.9
aF3.6
aF5.6
asS'YDR469W'
p523
(lp524
F2.5
aF6.6
aF5.6
aF9.5
asS'YDR333C'
p525
(lp526
F4.8
aF7.1
aF5.5
aF12.8
asS'YKL051W'
p527
(lp528
F3.6
aF5.6
aF5.2
aF7.9
asS'YMR013C'
p529
(lp530
F2.1
aF2.6
aF2.4
aF3.9
asS'YPL167C'
p531
(lp532
F4.7
aF5.4
aF4.5
aF10.9
asS'YLR223C'
p533
(lp534
F2.2
aF4.1
aF3.5
aF8.1
asS'YIR012W'
p535
(lp536
F2.0
aF6.9
aF6.1
aF8.9
asS'YLR363C'
p537
(lp538
F6.4
aF14.3
aF8.6
aF23.1
asS'YNR026C'
p539
(lp540
F2.1
aF4.7
aF4.2
aF6.8
asS'YNR046W'
p541
(lp542
F2.6
aF5.5
aF5.0
aF7.7
asS'YNL328C'
p543
(lp544
F2.3
aF3.5
aF3.1
aF7.1
asS'YJL014W'
p545
(lp546
F2.0
aF7.8
aF6.3
aF12.0
asS'YDR219C'
p547
(lp548
F8.9
aF13.7
aF7.6
aF20.8
asS'YCR011C'
p549
(lp550
F11.6
aF34.9
aF22.1
aF61.5
asS'YPL218W'
p551
(lp552
F4.7
aF15.1
aF11.7
aF18.5
asS'YLR431C'
p553
(lp554
F2.0
aF3.0
aF2.6
aF4.7
asS'YKR046C'
p555
(lp556
F4.9
aF32.8
aF25.6
aF42.0
asS'YJR036C'
p557
(lp558
F16.1
aF15.7
aF8.7
aF27.5
asS'YJR005W'
p559
(lp560
F4.4
aF7.5
aF5.4
aF15.3
asS'YGR217W'
p561
(lp562
F3.5
aF7.3
aF5.7
aF15.7
asS'YNL072W'
p563
(lp564
F5.9
aF9.9
aF8.1
aF14.4
asS'YDL095W'
p565
(lp566
F4.6
aF18.3
aF13.1
aF25.4
asS'YMR030W'
p567
(lp568
F15.3
aF16.1
aF10.4
aF24.4
asS'YOR174W'
p569
(lp570
F2.6
aF4.4
aF3.9
aF6.4
asS'YER030W'
p571
(lp572
F5.7
aF20.5
aF14.8
aF27.4
asS'YFL002C'
p573
(lp574
F1.6
aF3.0
aF2.7
aF3.7
asS'YDR155C'
p575
(lp576
F9.5
aF21.4
aF16.1
aF31.2
asS'YGL181W'
p577
(lp578
F6.6
aF13.2
aF8.8
aF20.5
asS'YJL176C'
p579
(lp580
F3.6
aF4.9
aF4.4
aF7.1
asS'YJR072C'
p581
(lp582
F4.8
aF12.9
aF10.1
aF18.5
asS'YLR151C'
p583
(lp584
F10.2
aF15.1
aF10.4
aF21.9
asS'YPL087W'
p585
(lp586
F5.3
aF10.8
aF8.5
aF14.5
asS'YNL015W'
p587
(lp588
F12.9
aF15.7
aF11.0
aF22.1
asS'YCR084C'
p589
(lp590
F3.5
aF8.0
aF6.3
aF11.8
asS'YDR302W'
p591
(lp592
F1.9
aF3.3
aF3.2
aF4.8
asS'YGL003C'
p593
(lp594
F7.8
aF14.7
aF11.3
aF19.4
asS'YJL054W'
p595
(lp596
F2.0
aF4.5
aF4.0
aF6.3
asS'YLR205C'
p597
(lp598
F7.3
aF15.8
aF8.6
aF27.5
asS'YDR268W'
p599
(lp600
F2.4
aF4.5
aF4.0
aF6.6
asS'YGL192W'
p601
(lp602
F6.6
aF8.4
aF5.2
aF17.1
asS'YOL003C'
p603
(lp604
F2.5
aF6.8
aF5.3
aF9.0
asS'YML094W'
p605
(lp606
F3.5
aF7.6
aF6.0
aF10.9
asS'YKR006C'
p607
(lp608
F2.2
aF5.2
aF4.5
aF8.0
asS'YDL117W'
p609
(lp610
F2.0
aF3.4
aF3.1
aF6.5
asS'YMR131C'
p611
(lp612
F2.5
aF5.6
aF4.9
aF6.8
asS'YDR204W'
p613
(lp614
F15.7
aF27.0
aF20.0
aF40.9
asS'YDR251W'
p615
(lp616
F3.8
aF6.1
aF5.1
aF9.3
asS'YER089C'
p617
(lp618
F4.5
aF10.7
aF8.5
aF15.8
asS'YIL005W'
p619
(lp620
F2.2
aF3.3
aF3.0
aF5.0
asS'YIL105C'
p621
(lp622
F10.7
aF24.9
aF20.2
aF30.5
asS'YNR006W'
p623
(lp624
F4.3
aF9.3
aF5.8
aF17.9
asS'YML126C'
p625
(lp626
F3.2
aF27.0
aF21.5
aF36.0
asS'YAL047C'
p627
(lp628
F1.8
aF3.6
aF3.3
aF5.1
asS'YIL150C'
p629
(lp630
F1.7
aF2.4
aF2.3
aF3.5
asS'YLR435W'
p631
(lp632
F1.2
aF2.0
aF1.9
aF2.9
asS'YDR285W'
p633
(lp634
F7.7
aF9.9
aF7.5
aF16.9
asS'YBR212W'
p635
(lp636
F8.0
aF38.5
aF23.0
aF71.3
asS'YJR109C'
p637
(lp638
F1.4
aF32.1
aF23.3
aF44.0
asS'YKL025C'
p639
(lp640
F7.3
aF11.6
aF7.8
aF20.4
asS'YLR254C'
p641
(lp642
F4.5
aF6.5
aF5.5
aF10.8
asS'YAR008W'
p643
(lp644
F1.9
aF3.1
aF2.8
aF5.2
asS'YBR158W'
p645
(lp646
F3.6
aF4.0
aF3.5
aF7.3
asS'YPL105C'
p647
(lp648
F4.3
aF13.8
aF8.8
aF23.5
asS'YOR089C'
p649
(lp650
F6.6
aF15.8
aF10.7
aF22.5
asS'YOL097C'
p651
(lp652
F3.1
aF10.5
aF8.0
aF15.5
asS'YJL096W'
p653
(lp654
F4.8
aF4.7
aF3.9
aF8.2
asS'YCL033C'
p655
(lp656
F7.9
aF21.4
aF14.2
aF38.8
asS'YLR354C'
p657
(lp658
F5.1
aF20.8
aF17.8
aF26.0
asS'YGR110W'
p659
(lp660
F2.3
aF3.5
aF3.1
aF6.1
asS'YNR020C'
p661
(lp662
F2.2
aF3.5
aF2.3
aF7.0
asS'YKL029C'
p663
(lp664
F1.9
aF4.9
aF4.1
aF7.3
asS'YBR258C'
p665
(lp666
F2.0
aF6.1
aF5.0
aF11.2
asS'YLR301W'
p667
(lp668
F5.5
aF36.8
aF29.6
aF48.5
asS'YFR019W'
p669
(lp670
F6.3
aF27.3
aF17.3
aF47.4
asS'YHR142W'
p671
(lp672
F2.1
aF2.6
aF2.4
aF4.5
asS'YPL129W'
p673
(lp674
F3.8
aF6.7
aF5.9
aF8.6
asS'YBR223C'
p675
(lp676
F3.4
aF4.5
aF4.0
aF6.6
asS'YGL154C'
p677
(lp678
F5.1
aF9.2
aF7.5
aF13.6
asS'YPL178W'
p679
(lp680
F4.2
aF4.9
aF4.2
aF7.5
asS'YJL154C'
p681
(lp682
F4.3
aF16.0
aF10.2
aF24.5
asS'YDR091C'
p683
(lp684
F1.6
aF4.8
aF4.2
aF6.6
asS'YJL123C'
p685
(lp686
F7.7
aF19.8
aF12.7
aF35.3
asS'YHR066W'
p687
(lp688
F1.2
aF2.9
aF2.8
aF3.6
asS'YJL203W'
p689
(lp690
F2.1
aF3.4
aF3.1
aF6.0
asS'YAL009W'
p691
(lp692
F2.4
aF4.4
aF3.9
aF6.2
asS'YIL147C'
p693
(lp694
F2.6
aF7.0
aF5.7
aF10.3
asS'YPL244C'
p695
(lp696
F2.1
aF4.0
aF3.5
aF5.9
asS'YBR129C'
p697
(lp698
F2.4
aF4.6
aF3.4
aF7.6
asS'YDL160C'
p699
(lp700
F4.8
aF49.7
aF35.7
aF76.0
asS'YLR183C'
p701
(lp702
F3.4
aF8.1
aF5.8
aF14.0
asS'YPL173W'
p703
(lp704
F2.4
aF4.0
aF3.7
aF6.6
asS'YDL215C'
p705
(lp706
F7.1
aF47.0
aF36.6
aF62.7
asS'YGR167W'
p707
(lp708
F7.5
aF17.3
aF13.2
aF24.0
asS'YPR065W'
p709
(lp710
F2.0
aF3.5
aF3.1
aF5.2
asS'YJL059W'
p711
(lp712
F13.1
aF20.2
aF11.6
aF37.4
asS'YFR026C'
p713
(lp714
F3.7
aF3.3
aF2.8
aF6.5
asS'YKL099C'
p715
(lp716
F2.4
aF4.0
aF3.6
aF4.8
asS'YPL097W'
p717
(lp718
F4.6
aF8.1
aF6.2
aF12.7
asS'YDR315C'
p719
(lp720
F3.3
aF8.7
aF6.2
aF14.2
asS'YJL143W'
p721
(lp722
F3.3
aF8.0
aF6.3
aF14.2
asS'YBR161W'
p723
(lp724
F12.8
aF16.1
aF10.9
aF32.4
asS'YNL002C'
p725
(lp726
F2.1
aF3.0
aF2.9
aF3.7
asS'YDL239C'
p727
(lp728
F17.6
aF54.0
aF28.0
aF364.0
asS'YNL104C'
p729
(lp730
F4.3
aF17.1
aF13.9
aF21.9
asS'YPL145C'
p731
(lp732
F2.3
aF13.9
aF10.4
aF20.7
asS'YIL118W'
p733
(lp734
F2.6
aF3.6
aF3.1
aF6.6
asS'YDR450W'
p735
(lp736
F5.9
aF29.4
aF23.4
aF38.4
asS'YNL151C'
p737
(lp738
F1.8
aF3.1
aF2.8
aF4.4
asS'YKL191W'
p739
(lp740
F3.0
aF8.0
aF7.0
aF10.7
asS'YLR220W'
p741
(lp742
F4.5
aF6.5
aF5.2
aF11.1
asS'YHR006W'
p743
(lp744
F4.8
aF8.4
aF6.6
aF14.7
asS'YHR120W'
p745
(lp746
F2.3
aF6.0
aF4.6
aF11.0
asS'YOR023C'
p747
(lp748
F4.6
aF7.7
aF6.4
aF12.1
asS'YGR106C'
p749
(lp750
F4.1
aF13.8
aF10.8
aF19.2
asS'YKL021C'
p751
(lp752
F2.0
aF3.4
aF3.2
aF4.2
asS'YHR025W'
p753
(lp754
F5.5
aF25.3
aF22.7
aF30.0
asS'YNL083W'
p755
(lp756
F11.1
aF23.7
aF11.9
aF40.6
asS'YBL018C'
p757
(lp758
F1.8
aF5.5
aF4.1
aF8.8
asS'YOR357C'
p759
(lp760
F7.5
aF10.8
aF7.3
aF19.9
asS'YDR530C'
p761
(lp762
F7.4
aF11.1
aF8.0
aF17.6
asS'YER111C'
p763
(lp764
F4.2
aF26.2
aF13.8
aF47.6
asS'YEL031W'
p765
(lp766
F2.6
aF8.6
aF7.3
aF12.3
asS'YOL071W'
p767
(lp768
F6.3
aF12.9
aF10.0
aF20.0
asS'YBL029C-A'
p769
(lp770
F4.1
aF7.2
aF5.0
aF10.6
asS'YDL063C'
p771
(lp772
F1.3
aF2.5
aF2.4
aF3.6
asS'YER144C'
p773
(lp774
F4.0
aF5.7
aF4.6
aF10.9
asS'YNL163C'
p775
(lp776
F2.6
aF14.2
aF8.8
aF26.3
asS'YGR185C'
p777
(lp778
F5.1
aF29.1
aF21.5
aF39.6
asS'YJL189W'
p779
(lp780
F7.2
aF18.6
aF13.4
aF24.1
asS'YER168C'
p781
(lp782
F2.8
aF5.2
aF4.7
aF7.4
asS'YIL083C'
p783
(lp784
F3.0
aF7.0
aF5.8
aF9.5
asS'YOR081C'
p785
(lp786
F2.7
aF6.2
aF4.8
aF10.8
asS'YEL026W'
p787
(lp788
F3.3
aF11.3
aF8.8
aF17.1
asS'YLL050C'
p789
(lp790
F8.1
aF44.4
aF32.2
aF74.7
asS'YDR392W'
p791
(lp792
F4.5
aF6.7
aF5.7
aF9.4
asS'YBR290W'
p793
(lp794
F7.1
aF16.7
aF11.6
aF23.7
asS'YLR180W'
p795
(lp796
F1.1
aF5.2
aF4.2
aF9.7
asS'YPL072W'
p797
(lp798
F3.9
aF3.2
aF2.8
aF5.8
asS'YNR075W'
p799
(lp800
F2.5
aF5.2
aF4.0
aF9.2
asS'YML113W'
p801
(lp802
F1.1
aF2.5
aF2.4
aF5.2
asS'YDR021W'
p803
(lp804
F1.9
aF3.2
aF3.0
aF4.5
asS'YGL063W'
p805
(lp806
F2.1
aF2.7
aF2.4
aF5.8
asS'YPL212C'
p807
(lp808
F1.1
aF2.5
aF2.2
aF4.0
asS'YMR005W'
p809
(lp810
F4.1
aF10.2
aF7.0
aF17.8
asS'YMR296C'
p811
(lp812
F2.5
aF6.3
aF5.6
aF8.2
asS'YIL018W'
p813
(lp814
F4.8
aF24.9
aF21.1
aF29.8
asS'YPL023C'
p815
(lp816
F2.6
aF5.9
aF4.7
aF10.3
asS'YLR330W'
p817
(lp818
F4.7
aF8.0
aF6.8
aF12.3
asS'YPR095C'
p819
(lp820
F3.6
aF4.9
aF4.3
aF9.2
asS'YOR310C'
p821
(lp822
F1.9
aF4.3
aF3.8
aF6.3
asS'YFR051C'
p823
(lp824
F5.0
aF14.4
aF11.6
aF18.6
asS'YHR024C'
p825
(lp826
F3.4
aF7.7
aF5.9
aF13.9
asS'YDR188W'
p827
(lp828
F2.2
aF8.1
aF6.3
aF11.2
asS'YAL027W'
p829
(lp830
F2.5
aF4.8
aF3.6
aF8.9
asS'YGL236C'
p831
(lp832
F0.9
aF2.5
aF2.4
aF4.0
asS'YOL057W'
p833
(lp834
F4.5
aF35.0
aF23.1
aF50.7
asS'YFR004W'
p835
(lp836
F4.2
aF8.9
aF7.1
aF13.9
asS'YHR133C'
p837
(lp838
F3.7
aF9.7
aF8.7
aF12.1
asS'YDR017C'
p839
(lp840
F2.2
aF4.8
aF4.2
aF7.8
asS'YOR369C'
p841
(lp842
F4.9
aF19.9
aF14.7
aF23.5
asS'YOR025W'
p843
(lp844
F3.4
aF6.1
aF5.4
aF8.5
asS'YOR086C'
p845
(lp846
F6.2
aF21.0
aF15.0
aF29.4
asS'YDR411C'
p847
(lp848
F7.4
aF12.4
aF9.4
aF17.5
asS'YBR283C'
p849
(lp850
F4.3
aF10.4
aF7.8
aF15.1
asS'YIL090W'
p851
(lp852
F1.9
aF3.3
aF3.2
aF4.5
asS'YBR205W'
p853
(lp854
F3.6
aF11.5
aF10.5
aF14.0
asS'YOR321W'
p855
(lp856
F4.5
aF18.9
aF15.7
aF24.0
asS'YML104C'
p857
(lp858
F3.0
aF8.4
aF7.0
aF13.2
asS'YBR183W'
p859
(lp860
F4.0
aF7.1
aF5.5
aF11.1
asS'YDL004W'
p861
(lp862
F5.5
aF15.3
aF12.2
aF21.5
asS'YGL256W'
p863
(lp864
F2.0
aF3.9
aF3.3
aF6.6
asS'YDR195W'
p865
(lp866
F22.1
aF21.4
aF12.9
aF38.3
asS'YOR319W'
p867
(lp868
F2.0
aF4.1
aF3.5
aF6.6
asS'YOL048C'
p869
(lp870
F6.0
aF5.1
aF4.2
aF8.4
asS'YNL256W'
p871
(lp872
F1.6
aF3.7
aF3.2
aF5.7
asS'YGL045W'
p873
(lp874
F4.2
aF8.1
aF5.7
aF15.9
asS'YLR136C'
p875
(lp876
F4.5
aF8.5
aF5.1
aF16.6
asS'YOR070C'
p877
(lp878
F4.2
aF5.6
aF4.5
aF9.0
asS'YML015C'
p879
(lp880
F3.9
aF9.7
aF7.0
aF20.1
asS'YOR197W'
p881
(lp882
F4.9
aF14.6
aF12.5
aF18.2
asS'YCR107W'
p883
(lp884
F3.3
aF4.8
aF4.2
aF7.3
asS'YKR089C'
p885
(lp886
F9.0
aF21.6
aF14.2
aF35.3
asS'YEL004W'
p887
(lp888
F4.4
aF8.2
aF6.7
aF14.0
asS'YER166W'
p889
(lp890
F3.8
aF10.1
aF8.1
aF16.7
asS'YDL014W'
p891
(lp892
F1.7
aF4.6
aF4.0
aF6.4
asS'YNL098C'
p893
(lp894
F5.0
aF10.4
aF7.5
aF15.7
asS'YMR167W'
p895
(lp896
F2.4
aF6.7
aF5.0
aF12.8
asS'YCR027C'
p897
(lp898
F1.2
aF2.8
aF2.6
aF4.1
asS'YLR186W'
p899
(lp900
F1.2
aF2.2
aF2.1
aF3.2
asS'YBR039W'
p901
(lp902
F3.7
aF8.1
aF6.7
aF13.2
asS'YHL010C'
p903
(lp904
F4.2
aF18.2
aF10.2
aF28.3
asS'YDR116C'
p905
(lp906
F4.3
aF5.7
aF4.7
aF8.3
asS'YGR258C'
p907
(lp908
F3.7
aF11.6
aF8.5
aF19.6
asS'YLR325C'
p909
(lp910
F5.1
aF22.7
aF17.1
aF27.7
asS'YPL234C'
p911
(lp912
F5.6
aF22.6
aF13.9
aF34.0
asS'YDL056W'
p913
(lp914
F5.1
aF7.5
aF5.3
aF12.2
asS'YGR234W'
p915
(lp916
F2.7
aF12.4
aF10.1
aF16.8
asS'YMR178W'
p917
(lp918
F4.2
aF10.0
aF8.2
aF14.8
asS'YPR017C'
p919
(lp920
F1.2
aF2.4
aF2.3
aF3.1
asS'YGL115W'
p921
(lp922
F6.0
aF8.0
aF6.8
aF12.0
asS'YOR094W'
p923
(lp924
F2.4
aF3.6
aF3.3
aF5.7
asS'YOL129W'
p925
(lp926
F6.6
aF15.6
aF11.6
aF21.4
asS'YEL044W'
p927
(lp928
F2.5
aF5.5
aF4.7
aF6.8
asS'YMR247C'
p929
(lp930
F6.2
aF31.6
aF24.1
aF42.9
asS'YDR395W'
p931
(lp932
F3.9
aF51.5
aF31.1
aF113.1
asS'YML071C'
p933
(lp934
F3.5
aF5.3
aF4.7
aF7.5
asS'YBR077C'
p935
(lp936
F2.6
aF4.7
aF4.3
aF6.3
asS'YDR176W'
p937
(lp938
F2.5
aF3.6
aF3.3
aF5.3
asS'YPL177C'
p939
(lp940
F2.3
aF3.3
aF2.9
aF5.9
asS'YDR122W'
p941
(lp942
F11.3
aF37.6
aF23.3
aF76.5
asS'YER120W'
p943
(lp944
F4.9
aF18.9
aF12.1
aF30.0
asS'YNL090W'
p945
(lp946
F4.2
aF15.7
aF8.2
aF25.7
asS'YBR042C'
p947
(lp948
F2.6
aF4.8
aF3.9
aF7.4
asS'YOL062C'
p949
(lp950
F3.7
aF6.7
aF5.3
aF12.6
asS'YDR381W'
p951
(lp952
F2.3
aF5.1
aF4.3
aF6.4
asS'YNL234W'
p953
(lp954
F5.4
aF13.8
aF9.5
aF22.7
asS'YDR484W'
p955
(lp956
F4.1
aF4.9
aF4.0
aF10.0
asS'YJL194W'
p957
(lp958
F1.1
aF2.6
aF2.4
aF4.9
asS'YMR098C'
p959
(lp960
F3.6
aF5.2
aF4.3
aF8.9
asS'YOL015W'
p961
(lp962
F5.3
aF11.9
aF7.9
aF17.0
asS'YHR111W'
p963
(lp964
F3.3
aF10.6
aF8.1
aF16.1
asS'YBL045C'
p965
(lp966
F7.5
aF26.2
aF20.8
aF33.2
asS'YGL071W'
p967
(lp968
F3.5
aF4.6
aF3.9
aF6.7
asS'YDR524C'
p969
(lp970
F2.2
aF3.8
aF3.0
aF7.2
asS'YDL070W'
p971
(lp972
F1.9
aF3.1
aF2.8
aF4.3
asS'YCR047C'
p973
(lp974
F1.4
aF3.7
aF3.1
aF6.3
asS'YER064C'
p975
(lp976
F2.1
aF3.3
aF3.1
aF5.3
asS'YDR389W'
p977
(lp978
F2.1
aF3.6
aF3.4
aF5.2
asS'YOL002C'
p979
(lp980
F2.9
aF5.3
aF4.8
aF7.0
asS'YLR190W'
p981
(lp982
F3.8
aF6.7
aF5.7
aF9.9
asS'YOR359W'
p983
(lp984
F1.0
aF1.1
aF1.3
aF2.5
asS'YLL021W'
p985
(lp986
F3.2
aF36.9
aF21.6
aF67.7
asS'YPL269W'
p987
(lp988
F3.7
aF7.2
aF5.1
aF14.9
asS'YBR088C'
p989
(lp990
F2.1
aF3.2
aF2.7
aF4.4
asS'YLR425W'
p991
(lp992
F10.7
aF13.2
aF7.9
aF24.0
asS'YBR055C'
p993
(lp994
F2.2
aF4.6
aF4.0
aF7.0
asS'YOR175C'
p995
(lp996
F2.8
aF6.3
aF5.4
aF8.6
asS'YER033C'
p997
(lp998
F4.6
aF9.9
aF6.6
aF16.2
asS'YNL329C'
p999
(lp1000
F2.6
aF5.6
aF4.8
aF10.2
asS'YFL005W'
p1001
(lp1002
F4.2
aF12.1
aF10.1
aF14.9
asS'YKL110C'
p1003
(lp1004
F5.4
aF9.1
aF7.1
aF12.5
asS'YMR014W'
p1005
(lp1006
F1.7
aF9.8
aF6.4
aF21.5
asS'YPR040W'
p1007
(lp1008
F10.4
aF10.1
aF6.3
aF17.8
asS'YGR056W'
p1009
(lp1010
F2.4
aF3.5
aF3.1
aF6.6
asS'YMR152W'
p1011
(lp1012
F10.9
aF25.2
aF18.9
aF37.0
asS'YML057W'
p1013
(lp1014
F5.0
aF9.0
aF7.8
aF13.8
asS'YDR178W'
p1015
(lp1016
F9.1
aF17.6
aF11.4
aF25.2
asS'YKR038C'
p1017
(lp1018
F3.6
aF4.8
aF4.3
aF7.8
asS'YGL028C'
p1019
(lp1020
F1.1
aF4.7
aF3.8
aF8.9
asS'YLR288C'
p1021
(lp1022
F4.6
aF4.1
aF3.8
aF6.4
asS'YJR004C'
p1023
(lp1024
F4.1
aF6.9
aF5.2
aF14.1
asS'YGL180W'
p1025
(lp1026
F4.3
aF5.7
aF4.9
aF9.1
asS'YJL115W'
p1027
(lp1028
F3.7
aF9.6
aF6.5
aF17.2
asS'YJR073C'
p1029
(lp1030
F6.6
aF16.6
aF14.6
aF20.2
asS'YGL004C'
p1031
(lp1032
F8.2
aF15.2
aF10.2
aF23.8
asS'YLR204W'
p1033
(lp1034
F3.6
aF4.5
aF3.7
aF7.8
asS'YLR055C'
p1035
(lp1036
F2.4
aF5.0
aF4.3
aF9.0
asS'YPR102C'
p1037
(lp1038
F3.4
aF16.2
aF14.0
aF19.1
asS'YNL225C'
p1039
(lp1040
F2.5
aF4.0
aF3.4
aF8.2
asS'YHR193C'
p1041
(lp1042
F6.2
aF22.9
aF19.0
aF28.9
asS'YMR292W'
p1043
(lp1044
F2.5
aF7.0
aF5.9
aF9.8
asS'YBL099W'
p1045
(lp1046
F4.0
aF34.8
aF25.4
aF50.1
asS'YDR303C'
p1047
(lp1048
F3.8
aF7.8
aF5.7
aF17.2
asS'YPL008W'
p1049
(lp1050
F2.0
aF3.5
aF2.8
aF5.9
asS'YOR126C'
p1051
(lp1052
F3.4
aF4.7
aF4.2
aF5.8
asS'YDL116W'
p1053
(lp1054
F3.5
aF6.6
aF5.3
aF14.3
asS'YPL184C'
p1055
(lp1056
F5.0
aF27.0
aF15.2
aF43.4
asS'YER034W'
p1057
(lp1058
F1.7
aF2.4
aF2.3
aF3.2
asS'YMR042W'
p1059
(lp1060
F2.0
aF2.6
aF2.5
aF3.4
asS'YDR252W'
p1061
(lp1062
F3.4
aF5.0
aF4.1
aF8.0
asS'YLL003W'
p1063
(lp1064
F2.4
aF3.3
aF3.0
aF5.0
asS'YOR165W'
p1065
(lp1066
F1.9
aF6.4
aF5.5
aF10.5
asS'YDR054C'
p1067
(lp1068
F4.0
aF6.7
aF5.7
aF10.0
asS'YLR409C'
p1069
(lp1070
F1.9
aF4.6
aF4.1
aF5.9
asS'YBR008C'
p1071
(lp1072
F6.5
aF7.8
aF5.7
aF15.3
asS'YLR081W'
p1073
(lp1074
F3.4
aF5.0
aF4.2
aF8.0
asS'YCL045C'
p1075
(lp1076
F3.8
aF12.7
aF9.4
aF19.2
asS'YKR065C'
p1077
(lp1078
F6.2
aF16.0
aF11.5
aF20.8
asS'YOR092W'
p1079
(lp1080
F2.4
aF4.3
aF3.7
aF5.6
asS'YMR041C'
p1081
(lp1082
F7.6
aF9.2
aF6.4
aF14.7
asS'YDR221W'
p1083
(lp1084
F4.1
aF15.6
aF12.0
aF20.2
asS'YMR267W'
p1085
(lp1086
F3.7
aF5.2
aF4.4
aF8.5
asS'YMR096W'
p1087
(lp1088
F3.6
aF11.2
aF8.1
aF14.9
asS'YDR078C'
p1089
(lp1090
F12.3
aF11.8
aF8.0
aF22.2
asS'YOR358W'
p1091
(lp1092
F2.7
aF5.3
aF4.4
aF6.8
asS'YMR078C'
p1093
(lp1094
F3.8
aF19.7
aF12.9
aF30.3
asS'YLR094C'
p1095
(lp1096
F1.1
aF2.0
aF2.0
aF3.1
asS'YDL154W'
p1097
(lp1098
F11.2
aF25.0
aF18.7
aF36.6
asS'YDR232W'
p1099
(lp1100
F2.0
aF4.3
aF4.0
aF5.7
asS'YNL262W'
p1101
(lp1102
F4.3
aF17.7
aF13.7
aF27.0
asS'YDR245W'
p1103
(lp1104
F2.3
aF3.5
aF3.2
aF5.5
asS'YHR088W'
p1105
(lp1106
F3.4
aF5.8
aF5.3
aF7.2
asS'YGR276C'
p1107
(lp1108
F3.3
aF6.2
aF5.5
aF9.1
asS'YOR052C'
p1109
(lp1110
F15.8
aF27.3
aF16.0
aF53.7
asS'YKR014C'
p1111
(lp1112
F9.1
aF17.8
aF12.7
aF26.3
asS'YDL138W'
p1113
(lp1114
F4.8
aF8.8
aF6.5
aF17.2
asS'YJR060W'
p1115
(lp1116
F4.8
aF24.0
aF14.1
aF44.6
asS'YLR141W'
p1117
(lp1118
F2.7
aF4.8
aF4.0
aF6.9
asS'YDL089W'
p1119
(lp1120
F9.1
aF13.9
aF8.8
aF21.2
asS'YPL159C'
p1121
(lp1122
F4.4
aF6.2
aF5.0
aF10.2
asS'YDL161W'
p1123
(lp1124
F4.5
aF9.7
aF6.8
aF15.9
asS'YGR096W'
p1125
(lp1126
F2.7
aF4.8
aF4.2
aF7.5
asS'YKL055C'
p1127
(lp1128
F39.0
aF3.6
aF3.2
aF6.5
asS'YDL212W'
p1129
(lp1130
F2.6
aF5.0
aF4.5
aF6.6
asS'YJR055W'
p1131
(lp1132
F1.1
aF0.8
aF0.8
aF1.5
asS'YDR096W'
p1133
(lp1134
F5.4
aF9.1
aF7.0
aF15.5
asS'YHR065C'
p1135
(lp1136
F2.1
aF4.5
aF3.6
aF8.9
asS'YPL046C'
p1137
(lp1138
F2.4
aF2.6
aF2.4
aF3.5
asS'YGL099W'
p1139
(lp1140
F1.7
aF6.8
aF6.0
aF8.7
asS'YFL030W'
p1141
(lp1142
F4.6
aF10.5
aF7.3
aF18.8
asS'YPR111W'
p1143
(lp1144
F2.3
aF4.2
aF3.5
aF7.3
asS'YPL193W'
p1145
(lp1146
F2.3
aF5.0
aF4.0
aF9.0
asS'YKL196C'
p1147
(lp1148
F3.8
aF10.1
aF7.3
aF15.6
asS'YDR314C'
p1149
(lp1150
F25.5
aF23.5
aF16.6
aF33.5
asS'YLR231C'
p1151
(lp1152
F4.5
aF23.3
aF16.1
aF30.7
asS'YDR255C'
p1153
(lp1154
F7.5
aF31.8
aF18.8
aF50.1
asS'YFR021W'
p1155
(lp1156
F3.7
aF11.2
aF8.4
aF15.7
asS'YKL098W'
p1157
(lp1158
F2.7
aF6.8
aF5.4
aF9.2
asS'YJR139C'
p1159
(lp1160
F6.7
aF58.0
aF41.5
aF91.5
asS'YKL016C'
p1161
(lp1162
F4.4
aF8.5
aF6.8
aF11.4
asS'YBR133C'
p1163
(lp1164
F3.7
aF7.1
aF5.5
aF13.1
asS'YFL049W'
p1165
(lp1166
F5.0
aF5.3
aF4.3
aF10.6
asS'YBR162C'
p1167
(lp1168
F3.4
aF21.5
aF14.8
aF30.5
asS'YCR018C'
p1169
(lp1170
F4.4
aF4.2
aF3.4
aF8.8
asS'YIL004C'
p1171
(lp1172
F2.2
aF7.3
aF5.5
aF11.3
asS'YPR129W'
p1173
(lp1174
F4.6
aF6.8
aF5.9
aF9.7
asS'YKL174C'
p1175
(lp1176
F2.8
aF5.3
aF4.7
aF7.3
asS'YJR013W'
p1177
(lp1178
F3.6
aF5.0
aF4.2
aF8.7
asS'YJL133W'
p1179
(lp1180
F2.0
aF3.5
aF3.0
aF5.6
asS'YGR260W'
p1181
(lp1182
F2.2
aF3.6
aF3.4
aF4.5
asS'YBL084C'
p1183
(lp1184
F8.6
aF11.2
aF7.5
aF22.7
asS'YDR143C'
p1185
(lp1186
F4.2
aF7.8
aF5.3
aF15.0
asS'YDL176W'
p1187
(lp1188
F1.9
aF3.6
aF3.0
aF6.8
asS'YBR111C'
p1189
(lp1190
F8.1
aF19.9
aF17.0
aF25.6
asS'YKR027W'
p1191
(lp1192
F2.0
aF2.7
aF2.7
aF4.2
asS'YFL047W'
p1193
(lp1194
F6.9
aF11.8
aF6.9
aF23.2
asS'YPR122W'
p1195
(lp1196
F8.1
aF35.5
aF19.9
aF58.0
asS'YLR380W'
p1197
(lp1198
F3.4
aF7.2
aF5.6
aF10.7
asS'YKL034W'
p1199
(lp1200
F5.3
aF9.5
aF7.5
aF12.9
asS'YKL061W'
p1201
(lp1202
F3.5
aF3.4
aF3.2
aF6.3
asS'YJR042W'
p1203
(lp1204
F3.2
aF6.8
aF5.3
aF11.5
asS'YMR281W'
p1205
(lp1206
F8.3
aF13.1
aF8.8
aF20.6
asS'YMR012W'
p1207
(lp1208
F3.0
aF50.4
aF36.5
aF80.3
asS'YER093C'
p1209
(lp1210
F8.0
aF13.8
aF8.7
aF23.8
asS'YLR133W'
p1211
(lp1212
F4.3
aF44.9
aF29.8
aF72.7
asS'YNL023C'
p1213
(lp1214
F4.0
aF16.1
aF10.0
aF23.6
asS'YDR349C'
p1215
(lp1216
F3.2
aF7.4
aF5.9
aF13.2
asS'YIR011C'
p1217
(lp1218
F4.1
aF6.2
aF4.7
aF11.2
asS'YOR171C'
p1219
(lp1220
F3.7
aF7.2
aF5.5
aF13.2
asS'YIL126W'
p1221
(lp1222
F1.9
aF7.5
aF6.3
aF11.6
asS'YLR201C'
p1223
(lp1224
F6.6
aF19.7
aF11.5
aF36.8
asS'YLR295C'
p1225
(lp1226
F3.7
aF7.7
aF6.3
aF11.4
asS'YFL027C'
p1227
(lp1228
F4.3
aF9.4
aF5.2
aF17.7
asS'YDR468C'
p1229
(lp1230
F3.6
aF7.7
aF6.2
aF13.2
asS'YDR332W'
p1231
(lp1232
F4.9
aF6.4
aF5.3
aF11.6
asS'YHR168W'
p1233
(lp1234
F2.1
aF3.7
aF3.1
aF6.5
asS'YOL102C'
p1235
(lp1236
F1.9
aF4.3
aF3.9
aF6.4
asS'YOR064C'
p1237
(lp1238
F3.4
aF4.2
aF3.2
aF7.8
asS'YOR048C'
p1239
(lp1240
F2.6
aF15.9
aF11.8
aF20.9
asS'YFR003C'
p1241
(lp1242
F7.9
aF11.9
aF8.9
aF20.8
asS'YNL297C'
p1243
(lp1244
F7.2
aF37.3
aF17.7
aF68.5
asS'YIL033C'
p1245
(lp1246
F5.3
aF12.4
aF9.7
aF17.1
asS'YOR368W'
p1247
(lp1248
F3.7
aF4.4
aF3.6
aF8.4
asS'YGL148W'
p1249
(lp1250
F3.7
aF9.7
aF7.7
aF11.5
asS'YOR002W'
p1251
(lp1252
F4.2
aF12.3
aF9.8
aF17.5
asS'YPL133C'
p1253
(lp1254
F3.7
aF4.4
aF3.6
aF6.7
asS'YIL048W'
p1255
(lp1256
F4.7
aF16.3
aF10.3
aF29.5
asS'YDR189W'
p1257
(lp1258
F4.4
aF21.3
aF12.9
aF34.9
asS'YLR441C'
p1259
(lp1260
F3.1
aF17.8
aF13.4
aF24.0
asS'YOL056W'
p1261
(lp1262
F1.1
aF2.3
aF2.2
aF3.5
asS'YOR075W'
p1263
(lp1264
F7.9
aF10.5
aF6.6
aF19.7
asS'YFR052W'
p1265
(lp1266
F6.7
aF14.0
aF9.7
aF21.2
asS'YMR302C'
p1267
(lp1268
F4.9
aF11.6
aF7.8
aF24.9
asS'YBR282W'
p1269
(lp1270
F4.2
aF8.3
aF6.9
aF12.6
asS'YOR079C'
p1271
(lp1272
F1.9
aF3.3
aF2.8
aF6.9
asS'YDR404C'
p1273
(lp1274
F4.2
aF5.0
aF4.3
aF9.3
asS'YHR132C'
p1275
(lp1276
F6.3
aF19.4
aF15.3
aF24.3
asS'YOR026W'
p1277
(lp1278
F17.9
aF15.9
aF11.6
aF24.0
asS'YMR083W'
p1279
(lp1280
F4.8
aF12.8
aF9.2
aF17.8
asS'YGL073W'
p1281
(lp1282
F6.3
aF11.9
aF9.0
aF17.4
asS'YDR194C'
p1283
(lp1284
F4.1
aF4.4
aF3.4
aF7.9
asS'YOL049W'
p1285
(lp1286
F8.3
aF24.7
aF17.4
aF37.7
asS'YDR014W'
p1287
(lp1288
F2.2
aF3.7
aF3.3
aF6.4
asS'YMR244C-A'
p1289
(lp1290
F3.0
aF6.7
aF5.3
aF9.2
asS'YNR030W'
p1291
(lp1292
F4.0
aF10.3
aF8.5
aF14.1
asS'YIL093C'
p1293
(lp1294
F2.1
aF4.8
aF3.9
aF7.3
asS'YBR204C'
p1295
(lp1296
F6.8
aF12.4
aF10.3
aF16.4
asS'YDR466W'
p1297
(lp1298
F5.2
aF11.2
aF6.7
aF19.2
asS'YJL210W'
p1299
(lp1300
F2.7
aF5.3
aF4.3
aF9.0
asS'YIL104C'
p1301
(lp1302
F1.0
aF1.9
aF1.8
aF2.7
asS'YIL002C'
p1303
(lp1304
F4.8
aF14.5
aF9.7
aF24.0
asS'YGL086W'
p1305
(lp1306
F2.8
aF5.1
aF4.1
aF9.8
asS'YGR159C'
p1307
(lp1308
F0.9
aF2.8
aF2.6
aF4.5
asS'YJR155W'
p1309
(lp1310
F2.0
aF3.4
aF3.1
aF5.6
asS'YAL044C'
p1311
(lp1312
F8.2
aF28.0
aF22.0
aF42.0
asS'YBR213W'
p1313
(lp1314
F3.7
aF3.4
aF3.0
aF5.2
asS'YJL116C'
p1315
(lp1316
F11.3
aF24.1
aF13.6
aF36.3
asS'YLR369W'
p1317
(lp1318
F4.3
aF6.4
aF5.4
aF11.0
asS'YPR081C'
p1319
(lp1320
F5.2
aF14.5
aF9.1
aF23.6
asS'YNR023W'
p1321
(lp1322
F3.5
aF4.4
aF3.6
aF7.1
asS'YOL096C'
p1323
(lp1324
F6.5
aF11.5
aF8.8
aF15.4
asS'YGL228W'
p1325
(lp1326
F4.9
aF8.3
aF6.7
aF12.6
asS'YDR284C'
p1327
(lp1328
F3.8
aF6.9
aF5.7
aF9.7
asS'YJR117W'
p1329
(lp1330
F15.6
aF26.9
aF19.3
aF42.4
asS'YJL097W'
p1331
(lp1332
F3.9
aF7.6
aF6.5
aF11.5
asS'YLR113W'
p1333
(lp1334
F5.4
aF12.6
aF10.4
aF17.4
asS'YGL155W'
p1335
(lp1336
F2.5
aF5.2
aF4.4
aF7.5
asS'YCL032W'
p1337
(lp1338
F2.0
aF3.4
aF3.0
aF4.8
asS'YBR193C'
p1339
(lp1340
F4.1
aF11.2
aF7.8
aF19.9
asS'YJR101W'
p1341
(lp1342
F2.8
aF4.5
aF3.9
aF6.6
asS'YLR359W'
p1343
(lp1344
F2.1
aF4.9
aF4.2
aF7.1
asS'YPR163C'
p1345
(lp1346
F2.4
aF6.6
aF5.7
aF8.5
asS'YHR143W'
p1347
(lp1348
F2.1
aF7.2
aF5.2
aF12.4
asS'YBR222C'
p1349
(lp1350
F3.1
aF15.1
aF12.4
aF20.2
asS'YPR088C'
p1351
(lp1352
F4.7
aF12.3
aF9.6
aF18.1
asS'YLR131C'
p1353
(lp1354
F8.7
aF8.0
aF6.6
aF11.2
asS'YER127W'
p1355
(lp1356
F1.5
aF2.7
aF2.6
aF3.4
asS'YLR199C'
p1357
(lp1358
F3.8
aF7.4
aF6.0
aF13.8
asS'YEL005C'
p1359
(lp1360
F6.4
aF13.9
aF9.1
aF19.1
asS'YCL004W'
p1361
(lp1362
F4.6
aF12.0
aF8.2
aF18.9
asS'YGR133W'
p1363
(lp1364
F3.1
aF8.2
aF7.1
aF10.9
asS'YJR093C'
p1365
(lp1366
F4.1
aF5.4
aF4.3
aF10.5
asS'YEL027W'
p1367
(lp1368
F4.8
aF20.7
aF15.7
aF29.0
asS'YDL015C'
p1369
(lp1370
F6.3
aF21.9
aF17.2
aF28.1
asS'YOL086C'
p1371
(lp1372
F4.2
aF32.2
aF25.8
aF44.5
asS'YLR017W'
p1373
(lp1374
F3.7
aF7.5
aF6.8
aF8.8
asS'YHR110W'
p1375
(lp1376
F5.0
aF10.9
aF8.3
aF15.4
asS'YBR041W'
p1377
(lp1378
F6.1
aF6.8
aF5.4
aF11.3
asS'YDR430C'
p1379
(lp1380
F8.5
aF51.5
aF32.9
aF89.8
asS'YGR193C'
p1381
(lp1382
F6.9
aF17.9
aF14.8
aF22.4
asS'YDR487C'
p1383
(lp1384
F2.9
aF8.1
aF6.9
aF10.2
asS'YPR185W'
p1385
(lp1386
F8.0
aF14.5
aF9.1
aF26.6
asS'YPL273W'
p1387
(lp1388
F3.7
aF10.5
aF8.6
aF13.9
asS'YNL327W'
p1389
(lp1390
F1.9
aF5.2
aF4.2
aF7.7
asS'YNR035C'
p1391
(lp1392
F13.9
aF31.3
aF21.6
aF46.6
asS'YER065C'
p1393
(lp1394
F4.7
aF4.9
aF4.2
aF8.1
asS'YLR077W'
p1395
(lp1396
F2.4
aF4.9
aF4.0
aF7.7
asS'YCR044C'
p1397
(lp1398
F2.4
aF4.9
aF4.4
aF7.6
asS'YNL219C'
p1399
(lp1400
F3.4
aF4.6
aF4.1
aF6.4
asS'YDR037W'
p1401
(lp1402
F3.7
aF27.6
aF18.6
aF41.3
asS'YGR040W'
p1403
(lp1404
F3.4
aF3.8
aF3.2
aF7.0
asS'YLR057W'
p1405
(lp1406
F2.5
aF4.0
aF3.6
aF6.9
asS'YCR004C'
p1407
(lp1408
F10.1
aF52.3
aF36.8
aF79.7
asS'YJL091C'
p1409
(lp1410
F3.7
aF15.5
aF11.3
aF19.7
asS'YLR320W'
p1411
(lp1412
F2.3
aF3.8
aF3.5
aF6.2
asS'YHR005C'
p1413
(lp1414
F3.4
aF6.3
aF5.2
aF9.1
asS'YFR014C'
p1415
(lp1416
F5.3
aF8.4
aF6.7
aF13.2
asS'YHR121W'
p1417
(lp1418
F4.1
aF6.4
aF6.0
aF7.7
asS'YHR034C'
p1419
(lp1420
F3.5
aF5.8
aF5.1
aF8.7
asS'YBL019W'
p1421
(lp1422
F4.7
aF9.1
aF6.5
aF14.2
asS'YOR264W'
p1423
(lp1424
F3.6
aF5.2
aF4.1
aF9.4
asS'YOL070C'
p1425
(lp1426
F3.0
aF9.0
aF7.3
aF14.0
asS'YOR188W'
p1427
(lp1428
F1.7
aF3.8
aF3.6
aF5.0
asS'YJL085W'
p1429
(lp1430
F4.4
aF7.7
aF6.1
aF13.5
asS'YLR452C'
p1431
(lp1432
F2.4
aF5.6
aF4.4
aF9.9
asS'YNR054C'
p1433
(lp1434
F2.1
aF4.2
aF3.9
aF5.3
asS'YER147C'
p1435
(lp1436
F3.2
aF5.6
aF4.9
aF8.5
asS'YDR130C'
p1437
(lp1438
F4.8
aF12.8
aF8.9
aF21.4
asS'YIL015W'
p1439
(lp1440
F2.0
aF7.0
aF6.3
aF9.2
asS'YEL030W'
p1441
(lp1442
F3.8
aF17.5
aF13.1
aF25.5
asS'YPR082C'
p1443
(lp1444
F3.1
aF7.4
aF6.5
aF9.0
asS'YGL173C'
p1445
(lp1446
F4.3
aF24.0
aF15.0
aF39.9
asS'YOL038W'
p1447
(lp1448
F7.4
aF21.4
aF16.7
aF28.1
asS'YAR015W'
p1449
(lp1450
F2.9
aF5.2
aF4.7
aF7.4
asS'YOR384W'
p1451
(lp1452
F6.3
aF9.6
aF6.5
aF16.2
asS'YML114C'
p1453
(lp1454
F1.9
aF3.9
aF3.2
aF7.4
asS'YHR201C'
p1455
(lp1456
F3.3
aF5.2
aF4.9
aF7.4
asS'YJL093C'
p1457
(lp1458
F4.0
aF8.9
aF6.6
aF16.6
asS'YOR320C'
p1459
(lp1460
F2.6
aF5.7
aF5.0
aF8.0
asS'YNR001C'
p1461
(lp1462
F4.6
aF34.8
aF25.0
aF49.0
asS'YNL082W'
p1463
(lp1464
F2.2
aF6.2
aF5.2
aF9.9
asS'YNL299W'
p1465
(lp1466
F1.1
aF1.6
aF1.7
aF2.4
asS'YDR427W'
p1467
(lp1468
F6.9
aF44.8
aF25.9
aF94.5
asS'YOR279C'
p1469
(lp1470
F2.5
aF3.1
aF2.7
aF6.6
asS'YOR224C'
p1471
(lp1472
F3.7
aF6.8
aF6.2
aF9.2
asS'YKL211C'
p1473
(lp1474
F2.3
aF7.8
aF6.1
aF12.6
asS'YGL060W'
p1475
(lp1476
F4.2
aF8.2
aF6.5
aF12.2
asS'YNL311C'
p1477
(lp1478
F1.2
aF3.4
aF3.0
aF5.5
asS'YLL002W'
p1479
(lp1480
F2.6
aF3.6
aF3.0
aF5.7
asS'YJL030W'
p1481
(lp1482
F4.1
aF9.7
aF7.2
aF13.4
asS'YLR408C'
p1483
(lp1484
F6.0
aF5.8
aF4.3
aF8.3
asS'YGL123W'
p1485
(lp1486
F3.5
aF15.3
aF12.6
aF18.5
asS'YKR066C'
p1487
(lp1488
F10.3
aF41.6
aF28.2
aF85.9
asS'YDR079W'
p1489
(lp1490
F3.7
aF5.7
aF4.2
aF8.2
asS'YBR086C'
p1491
(lp1492
F7.2
aF8.1
aF6.9
aF11.0
asS'YBR074W'
p1493
(lp1494
F2.4
aF12.0
aF9.5
aF17.9
asS'YGR191W'
p1495
(lp1496
F2.1
aF3.5
aF3.2
aF5.2
asS'YOR150W'
p1497
(lp1498
F4.2
aF6.2
aF5.3
aF8.7
asS'YDR055W'
p1499
(lp1500
F2.6
aF6.3
aF5.7
aF8.5
asS'YBL061C'
p1501
(lp1502
F2.7
aF5.9
aF4.3
aF11.5
asS'YGL203C'
p1503
(lp1504
F4.0
aF9.0
aF7.4
aF13.6
asS'YPR054W'
p1505
(lp1506
F3.9
aF5.4
aF4.8
aF8.5
asS'YMR140W'
p1507
(lp1508
F7.7
aF15.7
aF10.0
aF27.4
asS'YLR095C'
p1509
(lp1510
F6.5
aF7.1
aF5.4
aF13.3
asS'YBR034C'
p1511
(lp1512
F0.8
aF1.2
aF1.3
aF1.9
asS'YML036W'
p1513
(lp1514
F2.9
aF5.9
aF4.5
aF10.4
asS'YLR040C'
p1515
(lp1516
F2.6
aF3.2
aF2.8
aF4.7
asS'YLR401C'
p1517
(lp1518
F1.7
aF3.5
aF3.2
aF5.0
asS'YDR244W'
p1519
(lp1520
F11.1
aF27.3
aF20.1
aF33.2
asS'YPL085W'
p1521
(lp1522
F4.7
aF33.9
aF22.9
aF48.7
asS'YKL018W'
p1523
(lp1524
F1.9
aF4.2
aF3.4
aF6.7
asS'YDL088C'
p1525
(lp1526
F4.9
aF13.4
aF8.2
aF25.9
asS'YDL137W'
p1527
(lp1528
F5.9
aF11.6
aF9.6
aF15.2
asS'YGR007W'
p1529
(lp1530
F2.7
aF4.7
aF4.2
aF7.0
asS'YJR063W'
p1531
(lp1532
F0.9
aF1.7
aF1.6
aF2.1
asS'YGR271W'
p1533
(lp1534
F5.3
aF43.7
aF24.3
aF70.6
asS'YDR233C'
p1535
(lp1536
F3.0
aF6.7
aF5.9
aF8.5
asS'YJL184W'
p1537
(lp1538
F4.0
aF8.2
aF6.4
aF11.9
asS'YER025W'
p1539
(lp1540
F1.8
aF5.3
aF4.5
aF7.8
asS'YDR527W'
p1541
(lp1542
F2.0
aF3.9
aF3.4
aF6.3
asS'YCR059C'
p1543
(lp1544
F3.4
aF7.7
aF6.5
aF10.0
asS'YML041C'
p1545
(lp1546
F7.1
aF5.0
aF4.0
aF10.2
asS'YDL197C'
p1547
(lp1548
F5.9
aF6.5
aF5.3
aF8.9
asS'YER078C'
p1549
(lp1550
F7.1
aF11.1
aF8.2
aF17.1
asS'YER130C'
p1551
(lp1552
F0.9
aF1.1
aF1.3
aF1.8
asS'YDR115W'
p1553
(lp1554
F3.9
aF4.8
aF4.1
aF8.1
asS'YDL192W'
p1555
(lp1556
F4.7
aF21.9
aF18.2
aF25.9
asS'YCR106W'
p1557
(lp1558
F2.9
aF3.1
aF2.9
aF4.3
asS'YER165W'
p1559
(lp1560
F3.3
aF41.7
aF30.8
aF52.9
asS'YMR106C'
p1561
(lp1562
F2.2
aF2.6
aF2.5
aF4.0
asS'YCL059C'
p1563
(lp1564
F3.7
aF8.6
aF7.7
aF10.0
asS'YML014W'
p1565
(lp1566
F3.1
aF7.8
aF6.3
aF11.0
asS'YER109C'
p1567
(lp1568
F1.2
aF3.4
aF3.0
aF6.3
asS'YKR071C'
p1569
(lp1570
F20.3
aF36.1
aF26.1
aF50.8
asS'YDR489W'
p1571
(lp1572
F3.8
aF14.6
aF8.3
aF20.2
asS'YGR196C'
p1573
(lp1574
F3.5
aF6.6
aF5.3
aF11.3
asS'YOR233W'
p1575
(lp1576
F1.0
aF1.9
aF1.9
aF2.8
asS'YLR011W'
p1577
(lp1578
F3.2
aF4.4
aF3.3
aF6.3
asS'YPR049C'
p1579
(lp1580
F3.6
aF7.1
aF5.7
aF14.5
asS'YPR103W'
p1581
(lp1582
F4.6
aF9.7
aF7.5
aF14.9
asS'YGR257C'
p1583
(lp1584
F2.2
aF4.8
aF3.5
aF10.7
asS'YHR150W'
p1585
(lp1586
F2.1
aF4.2
aF3.8
aF6.4
asS'YPL235W'
p1587
(lp1588
F4.0
aF7.1
aF5.9
aF12.9
asS'YJL136C'
p1589
(lp1590
F8.0
aF35.1
aF26.9
aF46.4
asS'YDL008W'
p1591
(lp1592
F2.5
aF4.4
aF3.9
aF5.9
asS'YBL050W'
p1593
(lp1594
F5.1
aF8.3
aF5.3
aF14.1
asS'YJR086W'
p1595
(lp1596
F10.6
aF13.2
aF9.8
aF19.4
asS'YGR280C'
p1597
(lp1598
F3.2
aF4.7
aF3.5
aF9.0
asS'YDL159W'
p1599
(lp1600
F4.6
aF6.4
aF5.3
aF9.9
asS'YBL087C'
p1601
(lp1602
F4.8
aF30.1
aF24.3
aF37.7
asS'YJR014W'
p1603
(lp1604
F7.3
aF16.9
aF13.4
aF23.5
asS'YGL190C'
p1605
(lp1606
F6.5
aF6.7
aF5.4
aF11.1
asS'YBR110W'
p1607
(lp1608
F2.3
aF4.8
aF4.3
aF7.5
asS'YDR144C'
p1609
(lp1610
F1.8
aF3.7
aF3.4
aF5.4
asS'YOR180C'
p1611
(lp1612
F4.2
aF10.0
aF6.0
aF19.8
asS'YPL018W'
p1613
(lp1614
F8.1
aF11.3
aF8.1
aF18.4
asS'YGL018C'
p1615
(lp1616
F3.7
aF8.8
aF7.0
aF12.9
asS'YMR075W'
p1617
(lp1618
F3.6
aF5.2
aF4.2
aF8.2
asS'YGR202C'
p1619
(lp1620
F2.8
aF4.9
aF4.4
aF6.5
asS'YKL120W'
p1621
(lp1622
F1.7
aF3.4
aF3.1
aF5.0
asS'YJR041C'
p1623
(lp1624
F2.0
aF9.1
aF6.8
aF13.9
asS'YDL248W'
p1625
(lp1626
F2.7
aF10.2
aF8.1
aF15.8
asS'YKR028W'
p1627
(lp1628
F3.6
aF5.1
aF4.3
aF9.1
asS'YDR379W'
p1629
(lp1630
F4.6
aF7.3
aF5.7
aF14.1
asS'YMR179W'
p1631
(lp1632
F7.1
aF9.4
aF6.5
aF18.8
asS'YLR381W'
p1633
(lp1634
F3.9
aF3.8
aF3.3
aF8.0
asS'YKL037W'
p1635
(lp1636
F3.4
aF8.5
aF5.7
aF18.3
asS'YHR169W'
p1637
(lp1638
F1.5
aF3.0
aF2.8
aF4.4
asS'YMR286W'
p1639
(lp1640
F3.7
aF5.5
aF4.3
aF8.6
asS'YDL175C'
p1641
(lp1642
F10.3
aF14.8
aF10.3
aF21.5
asS'YKL137W'
p1643
(lp1644
F3.8
aF4.8
aF4.4
aF6.6
asS'YDR447C'
p1645
(lp1646
F4.3
aF16.2
aF13.6
aF20.4
asS'YKL168C'
p1647
(lp1648
F7.0
aF11.6
aF8.0
aF16.4
asS'YDL200C'
p1649
(lp1650
F2.8
aF5.5
aF4.3
aF9.8
asS'YDL102W'
p1651
(lp1652
F2.4
aF30.5
aF18.9
aF45.4
asS'YLR237W'
p1653
(lp1654
F4.8
aF17.6
aF12.1
aF31.9
asS'YJR009C'
p1655
(lp1656
F2.9
aF30.6
aF23.8
aF38.2
asS'YER092W'
p1657
(lp1658
F3.1
aF6.9
aF6.0
aF9.3
asS'YIL121W'
p1659
(lp1660
F16.7
aF32.4
aF17.6
aF66.2
asS'YLR214W'
p1661
(lp1662
F3.4
aF6.6
aF5.5
aF11.1
asS'YEL002C'
p1663
(lp1664
F4.8
aF14.8
aF12.1
aF18.5
asS'YIR010W'
p1665
(lp1666
F4.4
aF6.3
aF5.3
aF8.9
asS'YDR331W'
p1667
(lp1668
F3.5
aF4.4
aF3.8
aF7.5
asS'YOR293W'
p1669
(lp1670
F4.2
aF13.4
aF10.3
aF16.5
asS'YML056C'
p1671
(lp1672
F2.4
aF18.9
aF11.6
aF30.0
asS'YKR044W'
p1673
(lp1674
F2.4
aF4.3
aF3.4
aF8.0
asS'YJL127C'
p1675
(lp1676
F3.5
aF4.7
aF4.1
aF7.9
asS'YGL029W'
p1677
(lp1678
F2.1
aF2.6
aF2.4
aF3.0
asS'YFL004W'
p1679
(lp1680
F3.3
aF14.1
aF10.2
aF20.8
asS'YKL149C'
p1681
(lp1682
F3.9
aF6.7
aF4.3
aF10.4
asS'YOR040W'
p1683
(lp1684
F15.2
aF36.8
aF24.2
aF50.3
asS'YER139C'
p1685
(lp1686
F7.7
aF34.1
aF18.4
aF72.0
asS'YDL128W'
p1687
(lp1688
F2.4
aF4.4
aF4.0
aF6.1
asS'YLR433C'
p1689
(lp1690
F2.8
aF8.6
aF6.2
aF14.4
asS'YMR068W'
p1691
(lp1692
F7.2
aF10.2
aF7.0
aF16.8
asS'YPL098C'
p1693
(lp1694
F4.6
aF14.0
aF11.1
aF18.3
asS'YMR153W'
p1695
(lp1696
F3.2
aF6.9
aF5.3
aF13.3
asS'YGR239C'
p1697
(lp1698
F2.0
aF3.0
aF2.4
aF5.7
asS'YIR015W'
p1699
(lp1700
F4.3
aF8.0
aF5.7
aF12.0
asS'YDL040C'
p1701
(lp1702
F3.4
aF11.3
aF9.7
aF16.4
asS'YER032W'
p1703
(lp1704
F3.3
aF3.6
aF3.5
aF5.1
asS'YJR070C'
p1705
(lp1706
F2.0
aF3.6
aF3.4
aF4.4
asS'YMR033W'
p1707
(lp1708
F3.5
aF3.8
aF3.4
aF6.2
asS'YDL097C'
p1709
(lp1710
F4.6
aF9.4
aF7.5
aF13.6
asS'YGL005C'
p1711
(lp1712
F3.9
aF5.4
aF4.6
aF8.9
asS'YGR262C'
p1713
(lp1714
F3.2
aF5.1
aF4.5
aF7.1
asS'YPL160W'
p1715
(lp1716
F2.6
aF48.0
aF34.8
aF68.7
asS'YHR043C'
p1717
(lp1718
F11.7
aF53.9
aF30.1
aF141.0
asS'YDL111C'
p1719
(lp1720
F2.1
aF4.4
aF3.8
aF6.9
asS'YDR202C'
p1721
(lp1722
F12.5
aF20.0
aF15.6
aF30.9
asS'YMR029C'
p1723
(lp1724
F7.9
aF17.8
aF13.1
aF25.0
asS'YLR203C'
p1725
(lp1726
F6.4
aF15.0
aF8.5
aF23.2
asS'YKL159C'
p1727
(lp1728
F4.9
aF14.2
aF10.4
aF18.5
asS'YGR215W'
p1729
(lp1730
F2.6
aF7.8
aF6.3
aF12.6
asS'YDR507C'
p1731
(lp1732
F2.1
aF4.9
aF4.1
aF9.7
asS'YOR335C'
p1733
(lp1734
F2.3
aF31.6
aF21.6
aF43.6
asS'YHR192W'
p1735
(lp1736
F3.7
aF5.7
aF5.0
aF9.3
asS'YCR082W'
p1737
(lp1738
F8.0
aF13.0
aF8.9
aF19.1
asS'YDR300C'
p1739
(lp1740
F1.6
aF3.2
aF3.0
aF4.3
asS'YGL087C'
p1741
(lp1742
F6.6
aF14.4
aF8.7
aF27.0
asS'YPL052W'
p1743
(lp1744
F1.1
aF2.4
aF2.3
aF3.7
asS'YIL003W'
p1745
(lp1746
F2.9
aF5.1
aF4.3
aF8.1
asS'YMR224C'
p1747
(lp1748
F2.0
aF4.3
aF3.7
aF7.8
asS'YBR245C'
p1749
(lp1750
F2.1
aF15.6
aF10.8
aF26.9
asS'YBR163W'
p1751
(lp1752
F4.5
aF13.5
aF7.3
aF25.1
asS'YDR465C'
p1753
(lp1754
F2.0
aF3.4
aF3.2
aF4.4
asS'YLR276C'
p1755
(lp1756
F2.1
aF4.2
aF3.9
aF5.4
asS'YOR245C'
p1757
(lp1758
F7.4
aF10.3
aF7.8
aF15.9
asS'YKL079W'
p1759
(lp1760
F2.6
aF5.0
aF4.1
aF8.8
asS'YFR044C'
p1761
(lp1762
F5.0
aF49.0
aF37.0
aF76.4
asS'YBR210W'
p1763
(lp1764
F4.8
aF5.9
aF5.2
aF8.6
asS'YIL103W'
p1765
(lp1766
F2.1
aF2.6
aF2.5
aF3.5
asS'YFR033C'
p1767
(lp1768
F3.3
aF6.7
aF5.7
aF8.9
asS'YJR096W'
p1769
(lp1770
F16.3
aF36.6
aF23.9
aF71.0
asS'YBR192W'
p1771
(lp1772
F2.1
aF3.3
aF2.8
aF5.6
asS'YNL188W'
p1773
(lp1774
F0.9
aF2.0
aF2.0
aF3.3
asS'YKL027W'
p1775
(lp1776
F2.6
aF5.2
aF4.5
aF10.0
asS'YGR143W'
p1777
(lp1778
F3.9
aF6.4
aF4.9
aF10.4
asS'YER007C-A'
p1779
(lp1780
F4.8
aF18.5
aF14.4
aF23.4
asS'YGR112W'
p1781
(lp1782
F3.6
aF6.3
aF5.5
aF8.8
asS'YNR022C'
p1783
(lp1784
F2.6
aF7.6
aF6.1
aF9.5
asS'YLR256W'
p1785
(lp1786
F2.8
aF10.1
aF8.0
aF14.3
asS'YGL229C'
p1787
(lp1788
F8.2
aF11.3
aF7.9
aF20.3
asS'YLR056W'
p1789
(lp1790
F1.8
aF3.8
aF3.5
aF5.2
asS'YBR125C'
p1791
(lp1792
F4.6
aF8.7
aF5.8
aF14.3
asS'YDR409W'
p1793
(lp1794
F12.5
aF19.7
aF11.4
aF35.7
asS'YBR221C'
p1795
(lp1796
F5.8
aF47.0
aF37.0
aF61.8
asS'YJL094C'
p1797
(lp1798
F3.7
aF5.3
aF4.5
aF9.6
asS'YGR074W'
p1799
(lp1800
F1.3
aF4.1
aF3.1
aF6.9
asS'YNL166C'
p1801
(lp1802
F3.4
aF9.0
aF7.2
aF13.7
asS'YJR056C'
p1803
(lp1804
F1.1
aF1.1
aF1.1
aF1.8
asS'YDR097C'
p1805
(lp1806
F2.6
aF14.6
aF11.3
aF20.3
asS'YJL121C'
p1807
(lp1808
F6.5
aF44.4
aF33.4
aF74.4
asS'YKL008C'
p1809
(lp1810
F2.2
aF4.2
aF3.7
aF5.9
asS'YIR001C'
p1811
(lp1812
F3.2
aF6.9
aF4.7
aF11.1
asS'YDL213C'
p1813
(lp1814
F4.1
aF8.0
aF6.8
aF9.8
asS'YIL145C'
p1815
(lp1816
F3.5
aF5.3
aF4.9
aF7.2
asS'YKL195W'
p1817
(lp1818
F4.3
aF6.8
aF5.8
aF9.7
asS'YGL216W'
p1819
(lp1820
F2.5
aF4.7
aF4.1
aF7.5
asS'YFL031W'
p1821
(lp1822
F5.1
aF6.6
aF6.0
aF8.8
asS'YPL032C'
p1823
(lp1824
F6.2
aF11.2
aF8.0
aF19.3
asS'YLR194C'
p1825
(lp1826
F2.0
aF4.0
aF3.4
aF6.3
asS'YKL015W'
p1827
(lp1828
F2.0
aF5.2
aF4.7
aF8.4
asS'YKL197C'
p1829
(lp1830
F3.8
aF30.9
aF18.3
aF48.5
asS'YMR020W'
p1831
(lp1832
F2.7
aF11.4
aF7.6
aF20.1
asS'YJL145W'
p1833
(lp1834
F6.4
aF21.9
aF16.1
aF39.5
asS'YDR377W'
p1835
(lp1836
F6.2
aF10.1
aF7.5
aF15.5
asS'YJL201W'
p1837
(lp1838
F8.1
aF13.9
aF7.5
aF23.5
asS'YLR314C'
p1839
(lp1840
F4.2
aF20.1
aF13.5
aF29.6
asS'YBR132C'
p1841
(lp1842
F4.8
aF9.0
aF6.1
aF14.5
asS'YKL040C'
p1843
(lp1844
F4.1
aF8.5
aF6.5
aF12.7
asS'YOR014W'
p1845
(lp1846
F4.4
aF12.3
aF8.9
aF22.1
asS'YNL004W'
p1847
(lp1848
F2.8
aF5.4
aF5.0
aF7.6
asS'YOR327C'
p1849
(lp1850
F4.2
aF9.3
aF8.2
aF11.7
asS'YDR320C'
p1851
(lp1852
F3.6
aF10.2
aF7.4
aF16.7
asS'YKL175W'
p1853
(lp1854
F2.1
aF4.6
aF4.1
aF6.8
asS'YMR230W'
p1855
(lp1856
F5.0
aF28.8
aF19.6
aF41.9
asS'YOL139C'
p1857
(lp1858
F2.9
aF7.7
aF6.6
aF10.7
asS'YBR207W'
p1859
(lp1860
F3.9
aF6.8
aF5.2
aF12.1
asS'YPR133C'
p1861
(lp1862
F4.5
aF7.1
aF5.7
aF13.0
asS'YOL073C'
p1863
(lp1864
F11.1
aF17.0
aF11.9
aF24.0
asS'YLR321C'
p1865
(lp1866
F2.3
aF3.8
aF3.5
aF5.3
asS'YPL203W'
p1867
(lp1868
F4.9
aF16.4
aF12.6
aF24.6
asS'YNR055C'
p1869
(lp1870
F4.9
aF15.9
aF11.3
aF24.0
asS'YDR532C'
p1871
(lp1872
F6.6
aF6.8
aF5.6
aF11.2
asS'YHL040C'
p1873
(lp1874
F3.6
aF6.8
aF4.9
aF13.6
asS'YHR200W'
p1875
(lp1876
F4.1
aF10.2
aF7.8
aF14.0
asS'YCL012C'
p1877
(lp1878
F2.6
aF9.1
aF6.6
aF16.9
asS'YNR011C'
p1879
(lp1880
F2.8
aF4.7
aF4.2
aF7.7
asS'YJR161C'
p1881
(lp1882
F2.5
aF19.6
aF11.5
aF35.0
asS'YNL167C'
p1883
(lp1884
F11.4
aF22.4
aF14.4
aF40.6
asS'YML115C'
p1885
(lp1886
F2.5
aF6.1
aF4.9
aF10.3
asS'YNL221C'
p1887
(lp1888
F1.8
aF3.6
aF3.1
aF6.7
asS'YOR278W'
p1889
(lp1890
F4.3
aF8.1
aF6.5
aF11.9
asS'YNL284C'
p1891
(lp1892
F3.9
aF4.9
aF4.2
aF7.6
asS'YER146W'
p1893
(lp1894
F3.5
aF5.1
aF4.2
aF6.9
asS'YGL061C'
p1895
(lp1896
F2.3
aF2.3
aF2.2
aF3.8
asS'YDR394W'
p1897
(lp1898
F5.0
aF13.6
aF9.2
aF24.0
asS'YKR102W'
p1899
(lp1900
F27.3
aF39.7
aF22.3
aF123.3
asS'YPL210C'
p1901
(lp1902
F3.4
aF6.7
aF4.8
aF14.5
asS'YPR145W'
p1903
(lp1904
F1.7
aF4.4
aF4.1
aF6.1
asS'YDR399W'
p1905
(lp1906
F1.1
aF1.6
aF1.6
aF2.2
asS'YAR014C'
p1907
(lp1908
F1.9
aF4.2
aF3.8
aF5.9
asS'YOR087W'
p1909
(lp1910
F2.6
aF4.2
aF3.7
aF5.4
asS'YKL127W'
p1911
(lp1912
F3.6
aF19.7
aF16.0
aF23.4
asS'YPL132W'
p1913
(lp1914
F3.9
aF4.2
aF3.7
aF6.0
asS'YIL114C'
p1915
(lp1916
F2.4
aF7.4
aF6.6
aF10.3
asS'YGL234W'
p1917
(lp1918
F3.1
aF49.9
aF33.0
aF76.3
asS'YOL055C'
p1919
(lp1920
F4.4
aF28.7
aF17.6
aF45.9
asS'YPR093C'
p1921
(lp1922
F8.1
aF23.3
aF13.1
aF42.3
asS'YNL302C'
p1923
(lp1924
F4.4
aF29.2
aF24.6
aF35.0
asS'YOL082W'
p1925
(lp1926
F11.1
aF17.0
aF10.8
aF26.0
asS'YAL029C'
p1927
(lp1928
F3.1
aF22.0
aF13.8
aF31.5
asS'YIL070C'
p1929
(lp1930
F3.6
aF8.2
aF6.6
aF12.6
asS'YKL013C'
p1931
(lp1932
F6.9
aF14.4
aF11.0
aF22.0
asS'YDR421W'
p1933
(lp1934
F4.3
aF21.7
aF14.7
aF30.6
asS'YLR226W'
p1935
(lp1936
F2.0
aF3.3
aF2.7
aF6.2
asS'YIL049W'
p1937
(lp1938
F6.5
aF8.4
aF6.5
aF15.7
asS'YGR186W'
p1939
(lp1940
F4.9
aF13.8
aF9.8
aF19.8
asS'YOR367W'
p1941
(lp1942
F8.0
aF13.3
aF9.9
aF16.8
asS'YBR267W'
p1943
(lp1944
F0.7
aF0.9
aF1.0
aF1.2
asS'YNL250W'
p1945
(lp1946
F6.5
aF29.1
aF20.7
aF40.1
asS'YMR011W'
p1947
(lp1948
F5.8
aF14.4
aF10.7
aF21.4
asS'YPR194C'
p1949
(lp1950
F2.5
aF3.6
aF2.9
aF6.8
asS'YGR089W'
p1951
(lp1952
F2.2
aF4.5
aF3.8
aF8.5
asS'YBR181C'
p1953
(lp1954
F3.7
aF21.3
aF15.9
aF28.3
asS'YFL033C'
p1955
(lp1956
F9.2
aF22.2
aF13.8
aF36.7
asS'YNL131W'
p1957
(lp1958
F4.3
aF9.9
aF8.2
aF14.5
asS'YEL020W-A'
p1959
(lp1960
F2.6
aF7.2
aF5.5
aF10.6
asS'YJL073W'
p1961
(lp1962
F2.1
aF4.5
aF3.7
aF8.4
asS'YBL005W'
p1963
(lp1964
F2.3
aF3.7
aF3.5
aF5.5
asS'YOR078W'
p1965
(lp1966
F1.3
aF2.5
aF2.4
aF3.2
asS'YOR322C'
p1967
(lp1968
F3.7
aF7.2
aF5.7
aF14.9
asS'YOR243C'
p1969
(lp1970
F1.2
aF3.4
aF3.1
aF4.9
asS'YLR130C'
p1971
(lp1972
F2.0
aF2.7
aF2.6
aF3.9
asS'YER022W'
p1973
(lp1974
F2.6
aF6.5
aF5.0
aF10.9
asS'YBR057C'
p1975
(lp1976
F5.1
aF9.3
aF7.1
aF14.6
asS'YNR059W'
p1977
(lp1978
F3.7
aF4.6
aF4.0
aF7.5
asS'YDR041W'
p1979
(lp1980
F3.7
aF5.6
aF4.6
aF7.9
asS'YMR165C'
p1981
(lp1982
F7.5
aF27.6
aF19.2
aF42.6
asS'YPR105C'
p1983
(lp1984
F2.6
aF5.7
aF4.9
aF9.2
asS'YMR205C'
p1985
(lp1986
F1.9
aF54.0
aF34.9
aF97.9
asS'YIL094C'
p1987
(lp1988
F3.7
aF11.2
aF9.0
aF15.0
asS'YCR005C'
p1989
(lp1990
F2.1
aF3.6
aF3.1
aF6.1
asS'YCR105W'
p1991
(lp1992
F4.0
aF9.5
aF6.1
aF15.4
asS'YJL185C'
p1993
(lp1994
F3.5
aF14.2
aF9.6
aF22.0
asS'YER164W'
p1995
(lp1996
F5.1
aF50.5
aF35.2
aF74.3
asS'YER131W'
p1997
(lp1998
F2.5
aF7.0
aF6.2
aF9.2
asS'YML017W'
p1999
(lp2000
F2.3
aF6.3
aF5.3
aF9.1
asS'YIL016W'
p2001
(lp2002
F1.9
aF3.3
aF3.1
aF4.4
asS'YLR032W'
p2003
(lp2004
F3.7
aF12.5
aF8.3
aF24.2
asS'YOR274W'
p2005
(lp2006
F3.5
aF5.8
aF4.6
aF10.9
asS'YCL058C'
p2007
(lp2008
F0.9
aF2.8
aF2.1
aF5.7
asS'YOR232W'
p2009
(lp2010
F2.5
aF3.7
aF3.5
aF5.1
asS'YLR089C'
p2011
(lp2012
F5.3
aF23.6
aF16.2
aF35.7
asS'YPL161C'
p2013
(lp2014
F2.4
aF5.1
aF4.5
aF7.1
asS'YMR298W'
p2015
(lp2016
F7.4
aF35.2
aF20.9
aF56.1
asS'YMR022W'
p2017
(lp2018
F10.5
aF24.8
aF19.2
aF32.9
asS'YDR488C'
p2019
(lp2020
F4.9
aF13.8
aF8.4
aF22.9
asS'YJL063C'
p2021
(lp2022
F2.6
aF4.9
aF4.6
aF6.5
asS'YOL021C'
p2023
(lp2024
F1.8
aF5.8
aF4.8
aF9.4
asS'YNL080C'
p2025
(lp2026
F2.6
aF3.8
aF3.4
aF5.9
asS'YEL042W'
p2027
(lp2028
F2.5
aF5.0
aF4.5
aF6.0
asS'YPR048W'
p2029
(lp2030
F2.0
aF3.6
aF3.2
aF5.8
asS'YBL027W'
p2031
(lp2032
F3.7
aF13.4
aF11.5
aF16.4
asS'YHL013C'
p2033
(lp2034
F1.3
aF2.7
aF2.5
aF3.6
asS'YOL060C'
p2035
(lp2036
F4.9
aF12.8
aF9.5
aF19.2
asS'YML129C'
p2037
(lp2038
F6.7
aF12.0
aF9.2
aF17.4
asS'YGR009C'
p2039
(lp2040
F4.9
aF8.2
aF6.4
aF13.6
asS'YNL208W'
p2041
(lp2042
F9.4
aF42.5
aF27.7
aF93.1
asS'YMR185W'
p2043
(lp2044
F2.6
aF5.2
aF4.6
aF9.0
asS'YCL005W'
p2045
(lp2046
F2.0
aF5.1
aF3.6
aF10.0
asS'YGL105W'
p2047
(lp2048
F7.0
aF37.6
aF27.5
aF57.9
asS'YOR329C'
p2049
(lp2050
F4.8
aF7.2
aF5.9
aF11.1
asS'YLR014C'
p2051
(lp2052
F2.3
aF4.0
aF3.6
aF7.0
asS'YDL076C'
p2053
(lp2054
F2.8
aF3.7
aF3.4
aF4.8
asS'YDR120C'
p2055
(lp2056
F1.4
aF3.1
aF2.9
aF4.0
asS'YER126C'
p2057
(lp2058
F2.2
aF8.1
aF7.2
aF9.9
asS'YMR227C'
p2059
(lp2060
F2.2
aF3.2
aF2.7
aF5.7
asS'YPR186C'
p2061
(lp2062
F1.2
aF1.4
aF1.6
aF2.6
asS'YOR113W'
p2063
(lp2064
F7.0
aF7.3
aF6.1
aF11.8
asS'YGR194C'
p2065
(lp2066
F12.2
aF21.4
aF14.8
aF33.8
asS'YDR486C'
p2067
(lp2068
F2.7
aF6.9
aF6.0
aF9.2
asS'YJL192C'
p2069
(lp2070
F4.2
aF8.8
aF7.4
aF12.0
asS'YHR117W'
p2071
(lp2072
F3.7
aF16.2
aF11.5
aF21.9
asS'YDR030C'
p2073
(lp2074
F6.8
aF6.2
aF4.5
aF10.6
asS'YPL221W'
p2075
(lp2076
F1.0
aF2.6
aF2.6
aF3.4
asS'YNL325C'
p2077
(lp2078
F1.4
aF3.9
aF3.6
aF5.5
asS'YPL274W'
p2079
(lp2080
F2.2
aF4.8
aF4.1
aF7.2
asS'YPL258C'
p2081
(lp2082
F7.4
aF21.2
aF13.9
aF34.9
asS'YNL293W'
p2083
(lp2084
F3.6
aF5.2
aF4.6
aF8.6
asS'YEL051W'
p2085
(lp2086
F5.1
aF18.1
aF13.8
aF22.4
asS'YCR045C'
p2087
(lp2088
F2.3
aF4.5
aF3.7
aF7.1
asS'YKL203C'
p2089
(lp2090
F4.5
aF18.7
aF10.8
aF36.1
asS'YPL209C'
p2091
(lp2092
F1.8
aF4.8
aF3.6
aF8.8
asS'YGR014W'
p2093
(lp2094
F1.4
aF3.6
aF3.4
aF5.0
asS'YGL050W'
p2095
(lp2096
F2.1
aF3.3
aF3.1
aF5.3
asS'YER179W'
p2097
(lp2098
F4.6
aF7.0
aF5.0
aF12.9
asS'YDL036C'
p2099
(lp2100
F6.2
aF15.0
aF11.4
aF26.9
asS'YMR032W'
p2101
(lp2102
F3.6
aF6.5
aF5.7
aF8.4
asS'YMR150C'
p2103
(lp2104
F6.2
aF15.7
aF10.9
aF22.3
asS'YML059C'
p2105
(lp2106
F4.5
aF41.1
aF20.3
aF102.7
asS'YDL129W'
p2107
(lp2108
F1.3
aF2.2
aF2.2
aF3.5
asS'YDR063W'
p2109
(lp2110
F6.5
aF11.4
aF8.3
aF16.9
asS'YOR352W'
p2111
(lp2112
F5.7
aF7.4
aF6.5
aF10.9
asS'YPL099C'
p2113
(lp2114
F3.2
aF6.0
aF4.7
aF9.6
asS'YGR238C'
p2115
(lp2116
F8.1
aF10.4
aF7.1
aF15.9
asS'YER035W'
p2117
(lp2118
F10.4
aF18.3
aF10.7
aF32.6
asS'YDR201W'
p2119
(lp2120
F4.0
aF5.9
aF4.7
aF10.9
asS'YPR128C'
p2121
(lp2122
F2.8
aF6.0
aF5.6
aF7.5
asS'YGR263C'
p2123
(lp2124
F3.7
aF11.0
aF8.5
aF19.4
asS'YKL156W'
p2125
(lp2126
F1.2
aF2.7
aF2.5
aF3.8
asS'YPL084W'
p2127
(lp2128
F6.3
aF35.4
aF18.5
aF61.2
asS'YPR060C'
p2129
(lp2130
F3.8
aF8.1
aF6.5
aF15.3
asS'YDR354W'
p2131
(lp2132
F2.1
aF4.4
aF3.9
aF6.5
asS'YDL098C'
p2133
(lp2134
F1.9
aF5.0
aF4.7
aF6.8
asS'YPL066W'
p2135
(lp2136
F2.1
aF3.3
aF3.1
aF5.5
asS'YJL053W'
p2137
(lp2138
F8.2
aF15.4
aF11.4
aF21.5
asS'YPR104C'
p2139
(lp2140
F2.0
aF3.7
aF3.3
aF5.6
asS'YMR069W'
p2141
(lp2142
F8.7
aF6.7
aF4.7
aF13.0
asS'YGR214W'
p2143
(lp2144
F4.9
aF28.8
aF22.4
aF35.9
asS'YPR002W'
p2145
(lp2146
F12.1
aF32.8
aF15.6
aF60.1
asS'YGL006W'
p2147
(lp2148
F4.5
aF8.8
aF7.3
aF11.8
asS'YPL006W'
p2149
(lp2150
F7.5
aF18.3
aF11.6
aF28.3
asS'YCR083W'
p2151
(lp2152
F7.7
aF21.5
aF16.0
aF35.3
asS'YKR067W'
p2153
(lp2154
F14.2
aF21.3
aF16.3
aF30.9
asS'YMR143W'
p2155
(lp2156
F5.0
aF20.9
aF16.8
aF25.3
asS'YLR297W'
p2157
(lp2158
F18.4
aF8.6
aF6.9
aF17.5
asS'YML028W'
p2159
(lp2160
F6.5
aF47.6
aF30.2
aF101.6
asS'YCR063W'
p2161
(lp2162
F1.2
aF3.0
aF2.4
aF4.7
asS'YLL001W'
p2163
(lp2164
F2.3
aF8.3
aF6.4
aF13.8
asS'YOR168W'
p2165
(lp2166
F3.7
aF34.5
aF18.8
aF74.4
asS'YDR052C'
p2167
(lp2168
F2.5
aF4.3
aF3.6
aF7.2
asS'YHL006C'
p2169
(lp2170
F2.9
aF2.4
aF2.1
aF3.4
asS'YMR043W'
p2171
(lp2172
F2.5
aF4.0
aF3.4
aF5.8
asS'YPR173C'
p2173
(lp2174
F7.5
aF21.2
aF15.5
aF28.1
asS'YCL047C'
p2175
(lp2176
F4.9
aF12.1
aF8.2
aF19.8
asS'YJL031C'
p2177
(lp2178
F4.0
aF7.9
aF6.2
aF12.6
asS'YML077W'
p2179
(lp2180
F4.2
aF6.5
aF5.3
aF10.5
asS'YER068W'
p2181
(lp2182
F4.8
aF11.3
aF7.5
aF21.9
asS'YER013W'
p2183
(lp2184
F2.4
aF6.5
aF5.2
aF12.0
asS'YKL053C-A'
p2185
(lp2186
F2.5
aF4.9
aF4.4
aF6.6
asS'YGL122C'
p2187
(lp2188
F1.9
aF5.9
aF4.6
aF9.3
asS'YLR143W'
p2189
(lp2190
F2.0
aF9.3
aF6.0
aF17.4
asS'YLR043C'
p2191
(lp2192
F5.4
aF25.2
aF17.3
aF38.8
asS'YJL008C'
p2193
(lp2194
F3.5
aF7.9
aF5.8
aF14.0
asS'YDL018C'
p2195
(lp2196
F4.8
aF12.9
aF8.1
aF21.0
asS'YML060W'
p2197
(lp2198
F2.3
aF5.3
aF4.3
aF7.0
asS'YJR062C'
p2199
(lp2200
F2.4
aF8.2
aF5.8
aF14.3
asS'YGR054W'
p2201
(lp2202
F2.5
aF9.7
aF7.1
aF16.1
asS'YDL156W'
p2203
(lp2204
F2.1
aF4.8
aF4.1
aF7.9
asS'YMR191W'
p2205
(lp2206
F5.2
aF15.9
aF12.0
aF22.4
asS'YBL060W'
p2207
(lp2208
F3.4
aF5.0
aF4.3
aF10.7
asS'YML035C'
p2209
(lp2210
F3.2
aF41.5
aF30.4
aF59.7
asS'YHL039W'
p2211
(lp2212
F2.3
aF5.2
aF4.7
aF7.3
asS'YDL136W'
p2213
(lp2214
F3.9
aF19.9
aF13.6
aF28.1
asS'YGR270W'
p2215
(lp2216
F7.6
aF28.5
aF15.8
aF46.9
asS'YKL056C'
p2217
(lp2218
F5.1
aF23.9
aF17.9
aF29.1
asS'YGL008C'
p2219
(lp2220
F4.4
aF27.9
aF19.7
aF39.1
asS'YFL025C'
p2221
(lp2222
F2.7
aF5.7
aF4.7
aF11.5
asS'YKL009W'
p2223
(lp2224
F1.1
aF1.8
aF1.8
aF2.9
asS'YIL144W'
p2225
(lp2226
F10.4
aF13.1
aF8.1
aF23.3
asS'YKR056W'
p2227
(lp2228
F1.2
aF2.2
aF2.0
aF3.3
asS'YJR057W'
p2229
(lp2230
F2.9
aF5.6
aF5.2
aF7.2
asS'YJL126W'
p2231
(lp2232
F5.9
aF18.4
aF12.0
aF24.8
asS'YKL150W'
p2233
(lp2234
F15.8
aF34.7
aF18.5
aF82.3
asS'YJL159W'
p2235
(lp2236
F2.0
aF7.7
aF6.2
aF13.2
asS'YIL133C'
p2237
(lp2238
F2.7
aF10.4
aF8.8
aF13.0
asS'YHR063C'
p2239
(lp2240
F5.3
aF15.7
aF11.9
aF22.1
asS'YJL200C'
p2241
(lp2242
F2.6
aF30.6
aF18.9
aF44.9
asS'YGL211W'
p2243
(lp2244
F2.5
aF4.3
aF3.8
aF6.6
asS'YDR316W'
p2245
(lp2246
F3.7
aF4.6
aF3.9
aF8.7
asS'YMR093W'
p2247
(lp2248
F0.9
aF1.8
aF1.7
aF2.8
asS'YPL113C'
p2249
(lp2250
F23.6
aF27.8
aF18.0
aF58.4
asS'YCR076C'
p2251
(lp2252
F6.5
aF19.4
aF14.9
aF27.1
asS'YLR377C'
p2253
(lp2254
F8.2
aF17.6
aF10.2
aF28.1
asS'YNL107W'
p2255
(lp2256
F2.4
aF6.0
aF5.1
aF9.7
asS'YNL067W'
p2257
(lp2258
F2.4
aF5.5
aF4.6
aF7.5
asS'YDL210W'
p2259
(lp2260
F2.4
aF9.3
aF6.7
aF17.6
asS'YDR479C'
p2261
(lp2262
F5.0
aF14.2
aF10.0
aF21.4
asS'YAL059W'
p2263
(lp2264
F1.1
aF2.1
aF1.9
aF2.6
asS'YKL194C'
p2265
(lp2266
F2.8
aF4.3
aF3.6
aF6.2
asS'YJR137C'
p2267
(lp2268
F4.1
aF28.6
aF17.0
aF47.1
asS'YKL014C'
p2269
(lp2270
F2.5
aF22.3
aF13.7
aF36.8
asS'YIL009C-A'
p2271
(lp2272
F3.9
aF7.1
aF6.2
aF9.6
asS'YMR123W'
p2273
(lp2274
F3.7
aF7.7
aF6.8
aF10.4
asS'YNR036C'
p2275
(lp2276
F3.6
aF5.5
aF4.9
aF7.4
asS'YJR040W'
p2277
(lp2278
F3.6
aF7.3
aF5.6
aF10.8
asS'YPR119W'
p2279
(lp2280
F2.6
aF1.9
aF2.0
aF3.2
asS'YMR074C'
p2281
(lp2282
F4.8
aF15.1
aF12.2
aF20.8
asS'YLR207W'
p2283
(lp2284
F3.5
aF8.2
aF6.1
aF12.4
asS'YDR378C'
p2285
(lp2286
F3.5
aF7.8
aF6.9
aF10.4
asS'YKL176C'
p2287
(lp2288
F1.2
aF3.7
aF3.0
aF6.9
asS'YGL191W'
p2289
(lp2290
F6.3
aF31.5
aF21.7
aF51.8
asS'YJL104W'
p2291
(lp2292
F3.8
aF7.9
aF6.6
aF12.3
asS'YPL019C'
p2293
(lp2294
F4.7
aF31.5
aF17.4
aF51.1
asS'YFL041W'
p2295
(lp2296
F2.0
aF4.4
aF3.9
aF7.0
asS'YDR145W'
p2297
(lp2298
F5.0
aF8.9
aF6.3
aF13.5
asS'YFL009W'
p2299
(lp2300
F3.9
aF7.5
aF6.4
aF11.8
asS'YDL174C'
p2301
(lp2302
F2.5
aF5.4
aF4.7
aF7.0
asS'YJL062W'
p2303
(lp2304
F2.8
aF7.5
aF6.5
aF11.0
asS'YIR024C'
p2305
(lp2306
F2.8
aF6.1
aF4.1
aF9.8
asS'YDL103C'
p2307
(lp2308
F4.1
aF19.9
aF14.5
aF28.7
asS'YJR008W'
p2309
(lp2310
F16.0
aF26.5
aF16.3
aF45.8
asS'YDL203C'
p2311
(lp2312
F1.9
aF3.4
aF3.1
aF5.4
asS'YPL020C'
p2313
(lp2314
F2.0
aF5.1
aF4.3
aF8.2
asS'YML031W'
p2315
(lp2316
F1.8
aF3.6
aF3.2
aF5.6
asS'YLR215C'
p2317
(lp2318
F2.2
aF3.0
aF2.8
aF4.5
asS'YLR363W-A'
p2319
(lp2320
F1.2
aF2.1
aF2.0
aF2.7
asS'YMR287C'
p2321
(lp2322
F2.4
aF5.2
aF4.0
aF8.4
asS'YIL120W'
p2323
(lp2324
F6.1
aF18.0
aF10.6
aF36.8
asS'YKL130C'
p2325
(lp2326
F4.0
aF6.8
aF5.9
aF9.1
asS'YOR106W'
p2327
(lp2328
F7.2
aF6.1
aF4.7
aF12.4
asS'YNL021W'
p2329
(lp2330
F1.3
aF6.3
aF5.3
aF10.9
asS'YOL054W'
p2331
(lp2332
F1.7
aF2.5
aF2.4
aF3.3
asS'YFR001W'
p2333
(lp2334
F2.0
aF2.9
aF2.8
aF3.7
asS'YAR031W'
p2335
(lp2336
F5.4
aF9.5
aF6.1
aF17.2
asS'YPL131W'
p2337
(lp2338
F3.7
aF16.8
aF13.6
aF19.7
asS'YIL115C'
p2339
(lp2340
F4.8
aF26.9
aF18.8
aF38.6
asS'YGR095C'
p2341
(lp2342
F2.7
aF4.2
aF3.6
aF5.8
asS'YJL088W'
p2343
(lp2344
F2.0
aF4.4
aF3.8
aF5.7
asS'YGR113W'
p2345
(lp2346
F4.8
aF7.0
aF5.7
aF10.5
asS'YLR319C'
p2347
(lp2348
F2.0
aF3.3
aF3.0
aF4.7
asS'YMR036C'
p2349
(lp2350
F3.7
aF3.6
aF3.3
aF6.5
asS'YOL053W'
p2351
(lp2352
F8.9
aF9.8
aF8.1
aF13.5
asS'YOR066W'
p2353
(lp2354
F4.2
aF4.7
aF4.3
aF7.2
asS'YPR164W'
p2355
(lp2356
F4.4
aF22.0
aF12.7
aF35.4
asS'YIL031W'
p2357
(lp2358
F4.0
aF6.4
aF4.4
aF13.0
asS'YDR295C'
p2359
(lp2360
F5.1
aF7.3
aF6.0
aF11.4
asS'YAL033W'
p2361
(lp2362
F2.0
aF4.2
aF3.5
aF5.2
asS'YGR155W'
p2363
(lp2364
F2.7
aF24.2
aF16.9
aF33.4
asS'YMR300C'
p2365
(lp2366
F1.2
aF2.7
aF2.6
aF4.2
asS'YFR049W'
p2367
(lp2368
F7.0
aF11.1
aF7.0
aF18.8
asS'YNL130C'
p2369
(lp2370
F8.2
aF28.8
aF20.5
aF39.1
asS'YMR195W'
p2371
(lp2372
F3.5
aF5.8
aF4.4
aF8.1
asS'YDR108W'
p2373
(lp2374
F2.5
aF3.4
aF3.1
aF5.2
asS'YNR049C'
p2375
(lp2376
F4.7
aF5.6
aF4.7
aF10.2
asS'YDR192C'
p2377
(lp2378
F2.2
aF4.8
aF4.1
aF8.1
asS'YOL112W'
p2379
(lp2380
F2.7
aF3.4
aF3.1
aF6.1
asS'YKR004C'
p2381
(lp2382
F5.0
aF13.3
aF8.0
aF20.9
asS'YML109W'
p2383
(lp2384
F3.6
aF6.5
aF4.6
aF13.3
asS'YLR342W'
p2385
(lp2386
F2.9
aF24.5
aF15.9
aF37.4
asS'YOL083W'
p2387
(lp2388
F9.6
aF20.3
aF16.7
aF25.1
asS'YLR335W'
p2389
(lp2390
F3.4
aF35.0
aF25.7
aF52.4
asS'YJR102C'
p2391
(lp2392
F4.9
aF9.2
aF5.5
aF14.4
asS'YPL089C'
p2393
(lp2394
F1.1
aF2.3
aF2.2
aF3.5
asS'YHR134W'
p2395
(lp2396
F2.1
aF5.2
aF3.6
aF9.9
asS'YBL028C'
p2397
(lp2398
F1.0
aF2.0
aF1.9
aF2.5
asS'YBL004W'
p2399
(lp2400
F2.6
aF10.6
aF8.5
aF16.3
asS'YBR186W'
p2401
(lp2402
F1.9
aF4.0
aF3.2
aF5.5
asS'YBR164C'
p2403
(lp2404
F3.1
aF6.4
aF5.8
aF9.0
asS'YIL153W'
p2405
(lp2406
F5.3
aF7.4
aF5.9
aF12.9
asS'YIL164C'
p2407
(lp2408
F3.4
aF5.4
aF4.7
aF8.9
asS'YJR088C'
p2409
(lp2410
F4.2
aF10.8
aF8.8
aF15.2
asS'YHR074W'
p2411
(lp2412
F4.6
aF22.4
aF13.2
aF39.4
asS'YDR464W'
p2413
(lp2414
F2.7
aF5.5
aF4.7
aF9.1
asS'YLR368W'
p2415
(lp2416
F4.1
aF5.9
aF4.8
aF10.1
asS'YBR268W'
p2417
(lp2418
F2.2
aF4.8
aF4.2
aF6.1
asS'YFR030W'
p2419
(lp2420
F4.0
aF41.5
aF20.1
aF89.5
asS'YJL146W'
p2421
(lp2422
F10.3
aF12.9
aF8.3
aF19.2
asS'YLR277C'
p2423
(lp2424
F2.0
aF3.5
aF3.0
aF6.4
asS'YAL011W'
p2425
(lp2426
F1.9
aF4.8
aF3.6
aF9.8
asS'YDL155W'
p2427
(lp2428
F2.4
aF6.4
aF5.1
aF11.2
asS'YBR244W'
p2429
(lp2430
F3.8
aF10.3
aF7.5
aF13.0
asS'YPL053C'
p2431
(lp2432
F2.9
aF6.4
aF5.4
aF9.3
asS'YBR179C'
p2433
(lp2434
F2.4
aF5.0
aF4.3
aF8.4
asS'YDR009W'
p2435
(lp2436
F7.5
aF7.7
aF6.1
aF12.3
asS'YOR080W'
p2437
(lp2438
F2.2
aF4.8
aF4.2
aF8.1
asS'YOL009C'
p2439
(lp2440
F4.1
aF6.0
aF5.1
aF9.7
asS'YLR351C'
p2441
(lp2442
F6.3
aF22.4
aF16.8
aF29.5
asS'YOL094C'
p2443
(lp2444
F2.0
aF4.4
aF4.0
aF6.5
asS'YPR031W'
p2445
(lp2446
F1.2
aF2.3
aF2.2
aF3.1
asS'YJL095W'
p2447
(lp2448
F2.3
aF6.0
aF5.1
aF10.1
asS'YHR018C'
p2449
(lp2450
F3.9
aF7.3
aF6.2
aF9.6
asS'YDR408C'
p2451
(lp2452
F3.2
aF7.0
aF6.1
aF8.9
asS'YPL100W'
p2453
(lp2454
F11.7
aF20.0
aF15.5
aF27.2
asS'YLR287C-A'
p2455
(lp2456
F5.3
aF28.6
aF21.2
aF41.5
asS'YLR257W'
p2457
(lp2458
F5.1
aF6.6
aF5.3
aF11.1
asS'YOR046C'
p2459
(lp2460
F3.5
aF20.4
aF16.9
aF27.3
asS'YNL141W'
p2461
(lp2462
F4.1
aF4.7
aF3.7
aF8.9
asS'YBL026W'
p2463
(lp2464
F2.2
aF4.4
aF3.8
aF6.0
asS'YMR220W'
p2465
(lp2466
F4.9
aF11.0
aF8.4
aF18.2
asS'YPR187W'
p2467
(lp2468
F1.9
aF3.7
aF3.3
aF5.6
asS'YKL032C'
p2469
(lp2470
F1.9
aF3.3
aF3.2
aF4.4
asS'YEL018W'
p2471
(lp2472
F2.4
aF4.2
aF3.2
aF7.1
asS'YDR121W'
p2473
(lp2474
F2.7
aF5.7
aF5.0
aF7.4
asS'YER125W'
p2475
(lp2476
F4.6
aF20.6
aF13.1
aF32.0
asS'YDR432W'
p2477
(lp2478
F3.5
aF40.2
aF25.2
aF66.2
asS'YGR195W'
p2479
(lp2480
F2.6
aF4.9
aF4.3
aF8.1
asS'YPL211W'
p2481
(lp2482
F1.6
aF3.1
aF2.8
aF4.3
asS'YMR115W'
p2483
(lp2484
F4.9
aF8.0
aF6.4
aF12.5
asS'YDL077C'
p2485
(lp2486
F5.1
aF14.5
aF10.6
aF22.3
asS'YOR222W'
p2487
(lp2488
F2.8
aF5.7
aF4.8
aF7.7
asS'YEL021W'
p2489
(lp2490
F4.7
aF31.8
aF20.9
aF57.5
asS'YOL061W'
p2491
(lp2492
F2.3
aF6.8
aF5.8
aF9.9
asS'YOR206W'
p2493
(lp2494
F1.9
aF4.8
aF4.1
aF7.3
asS'YGL104C'
p2495
(lp2496
F15.3
aF25.0
aF15.7
aF44.8
asS'YER152C'
p2497
(lp2498
F4.5
aF23.3
aF17.1
aF34.2
asS'YLR015W'
p2499
(lp2500
F2.0
aF4.3
aF3.8
aF6.2
asS'YHR116W'
p2501
(lp2502
F3.9
aF8.8
aF6.5
aF12.4
asS'YPL259C'
p2503
(lp2504
F4.0
aF5.3
aF4.4
aF10.4
asS'YPL220W'
p2505
(lp2506
F3.5
aF31.7
aF18.4
aF63.9
asS'YNL283C'
p2507
(lp2508
F3.8
aF4.3
aF3.9
aF6.5
asS'YLR008C'
p2509
(lp2510
F2.3
aF2.6
aF2.4
aF4.3
asS'YMR114C'
p2511
(lp2512
F11.7
aF20.4
aF13.1
aF32.9
asS'YPR133W-A'
p2513
(lp2514
F3.2
aF9.6
aF6.9
aF15.6
asS'YPR066W'
p2515
(lp2516
F3.6
aF2.6
aF2.5
aF4.6
asS'YMR219W'
p2517
(lp2518
F11.2
aF45.3
aF33.8
aF68.6
asS'YIL026C'
p2519
(lp2520
F3.9
aF26.4
aF16.6
aF40.6
asS'YDR031W'
p2521
(lp2522
F5.4
aF8.6
aF6.4
aF13.1
asS'YOR198C'
p2523
(lp2524
F4.0
aF38.0
aF26.1
aF58.2
asS'YOL005C'
p2525
(lp2526
F4.9
aF12.4
aF9.5
aF16.2
asS'YOR213C'
p2527
(lp2528
F1.2
aF2.6
aF2.6
aF4.2
asS'YEL050C'
p2529
(lp2530
F3.6
aF5.6
aF4.8
aF8.5
asS'YFR016C'
p2531
(lp2532
F6.5
aF59.7
aF37.8
aF116.0
asS'YHR016C'
p2533
(lp2534
F16.0
aF39.0
aF19.4
aF90.0
asS'YOL072W'
p2535
(lp2536
F4.6
aF10.1
aF5.6
aF18.9
asS'YLR450W'
p2537
(lp2538
F4.9
aF14.0
aF10.4
aF20.7
asS'YGR172C'
p2539
(lp2540
F2.4
aF4.6
aF4.2
aF6.4
asS'YOR155C'
p2541
(lp2542
F7.4
aF8.7
aF6.7
aF14.4
asS'YNL133C'
p2543
(lp2544
F3.8
aF4.6
aF3.8
aF6.4
asS'YGL224C'
p2545
(lp2546
F4.4
aF7.3
aF6.1
aF13.0
asS'YIL017C'
p2547
(lp2548
F10.4
aF52.4
aF25.8
aF126.9
asS'YNL268W'
p2549
(lp2550
F2.6
aF4.8
aF4.4
aF7.0
asS'YOR307C'
p2551
(lp2552
F4.1
aF14.9
aF9.3
aF28.0
asS'YNR009W'
p2553
(lp2554
F4.9
aF7.5
aF6.3
aF11.5
asS'YHR147C'
p2555
(lp2556
F3.7
aF5.5
aF4.7
aF7.9
asS'YOL123W'
p2557
(lp2558
F16.0
aF58.6
aF32.7
aF234.2
asS'YDR132C'
p2559
(lp2560
F6.5
aF6.4
aF5.2
aF12.8
asS'YML116W'
p2561
(lp2562
F2.0
aF2.8
aF2.7
aF5.5
asS'YNL084C'
p2563
(lp2564
F8.8
aF15.9
aF12.8
aF20.3
asS'YGL066W'
p2565
(lp2566
F4.1
aF7.4
aF5.9
aF14.4
asS'YGR156W'
p2567
(lp2568
F11.4
aF22.1
aF14.7
aF34.0
asS'YHL043W'
p2569
(lp2570
F6.8
aF8.9
aF5.9
aF17.3
asS'YPR070W'
p2571
(lp2572
F2.3
aF4.6
aF4.0
aF7.8
asS'YBR084C-A'
p2573
(lp2574
F4.6
aF30.8
aF24.7
aF36.8
asS'YCL011C'
p2575
(lp2576
F5.2
aF17.4
aF11.6
aF26.1
asS'YOR166C'
p2577
(lp2578
F2.0
aF5.9
aF4.6
aF11.5
asS'YHR207C'
p2579
(lp2580
F5.4
aF12.7
aF7.3
aF23.6
asS'YPR198W'
p2581
(lp2582
F3.4
aF8.1
aF6.8
aF11.8
asS'YER141W'
p2583
(lp2584
F6.8
aF20.3
aF13.7
aF32.8
asS'YMR313C'
p2585
(lp2586
F2.4
aF3.7
aF3.2
aF5.5
asS'YDR425W'
p2587
(lp2588
F24.6
aF38.6
aF20.1
aF97.9
asS'YNL220W'
p2589
(lp2590
F2.8
aF8.7
aF6.9
aF13.0
asS'YGL169W'
p2591
(lp2592
F2.1
aF4.0
aF3.5
aF5.3
asS'YGR060W'
p2593
(lp2594
F2.7
aF17.9
aF14.3
aF24.6
asS'YNL210W'
p2595
(lp2596
F2.6
aF1.9
aF1.9
aF3.1
asS'YML076C'
p2597
(lp2598
F2.5
aF3.9
aF3.2
aF7.1
asS'YER174C'
p2599
(lp2600
F3.7
aF7.1
aF5.6
aF11.2
asS'YML029W'
p2601
(lp2602
F8.8
aF14.1
aF11.2
aF21.0
asS'YPR073C'
p2603
(lp2604
F7.5
aF34.0
aF21.9
aF67.1
asS'YHR094C'
p2605
(lp2606
F1.9
aF3.6
aF3.3
aF5.4
asS'YDL234C'
p2607
(lp2608
F8.0
aF25.6
aF15.5
aF39.5
asS'YLR127C'
p2609
(lp2610
F2.1
aF3.6
aF3.2
aF6.0
asS'YGL031C'
p2611
(lp2612
F3.7
aF13.0
aF11.4
aF15.8
asS'YCR048W'
p2613
(lp2614
F3.1
aF5.5
aF4.8
aF8.7
asS'YKL006C-A'
p2615
(lp2616
F2.6
aF4.9
aF4.4
aF8.2
asS'YCR033W'
p2617
(lp2618
F10.2
aF15.5
aF9.0
aF24.3
asS'YER069W'
p2619
(lp2620
F1.9
aF13.4
aF8.1
aF23.5
asS'YER012W'
p2621
(lp2622
F4.6
aF8.5
aF7.1
aF13.7
asS'YDR104C'
p2623
(lp2624
F2.4
aF3.4
aF3.1
aF5.5
asS'YGR105W'
p2625
(lp2626
F3.1
aF7.5
aF6.4
aF10.3
asS'YBL067C'
p2627
(lp2628
F2.6
aF7.4
aF5.7
aF14.3
asS'YMR208W'
p2629
(lp2630
F3.6
aF12.8
aF9.1
aF18.8
asS'YHR098C'
p2631
(lp2632
F3.5
aF13.8
aF8.5
aF27.7
asS'YDL019C'
p2633
(lp2634
F6.8
aF18.1
aF13.8
aF27.3
asS'YLR196W'
p2635
(lp2636
F1.2
aF3.1
aF2.9
aF4.1
asS'YML034W'
p2637
(lp2638
F3.9
aF4.6
aF4.3
aF5.8
asS'YDL135C'
p2639
(lp2640
F4.6
aF18.0
aF11.8
aF34.3
asS'YPR023C'
p2641
(lp2642
F3.3
aF6.8
aF5.7
aF9.4
asS'YOR035C'
p2643
(lp2644
F2.7
aF9.4
aF6.7
aF19.5
asS'YCR093W'
p2645
(lp2646
F8.9
aF46.7
aF28.4
aF81.5
asS'YLR144C'
p2647
(lp2648
F4.3
aF23.7
aF15.8
aF35.1
asS'YEL072W'
p2649
(lp2650
F18.8
aF22.1
aF12.1
aF41.8
asS'YMR273C'
p2651
(lp2652
F3.8
aF5.9
aF5.0
aF9.7
asS'YDR168W'
p2653
(lp2654
F7.6
aF53.7
aF29.5
aF113.9
asS'YML061C'
p2655
(lp2656
F2.1
aF3.8
aF3.5
aF5.8
asS'YAL019W'
p2657
(lp2658
F2.6
aF10.4
aF8.2
aF16.8
asS'YNL202W'
p2659
(lp2660
F5.3
aF15.4
aF10.7
aF22.4
asS'YJL186W'
p2661
(lp2662
F2.6
aF7.2
aF6.1
aF10.4
asS'YER023W'
p2663
(lp2664
F6.7
aF57.6
aF38.3
aF121.0
asS'YER163C'
p2665
(lp2666
F14.1
aF27.7
aF21.4
aF42.3
asS'YPL268W'
p2667
(lp2668
F2.2
aF3.8
aF3.5
aF6.4
asS'YPL116W'
p2669
(lp2670
F8.8
aF17.4
aF11.2
aF25.7
asS'YPL140C'
p2671
(lp2672
F4.2
aF6.5
aF5.4
aF10.5
asS'YGR295C'
p2673
(lp2674
F6.9
aF14.9
aF11.0
aF21.3
asS'YBR069C'
p2675
(lp2676
F3.7
aF5.5
aF4.6
aF9.7
asS'YMR164C'
p2677
(lp2678
F4.4
aF9.4
aF6.1
aF15.6
asS'YGL040C'
p2679
(lp2680
F2.9
aF6.6
aF5.6
aF8.9
asS'YKR084C'
p2681
(lp2682
F4.1
aF14.1
aF10.5
aF19.6
asS'YDL017W'
p2683
(lp2684
F3.2
aF8.1
aF5.8
aF14.4
asS'YDR512C'
p2685
(lp2686
F4.8
aF10.3
aF8.3
aF14.2
asS'YDR113C'
p2687
(lp2688
F3.5
aF3.4
aF3.2
aF4.9
asS'YLL031C'
p2689
(lp2690
F3.8
aF5.6
aF4.9
aF7.6
asS'YDR058C'
p2691
(lp2692
F6.8
aF11.4
aF9.0
aF16.1
asS'YLR088W'
p2693
(lp2694
F3.3
aF10.2
aF8.8
aF12.5
asS'YLR438C-A'
p2695
(lp2696
F3.9
aF8.0
aF5.0
aF15.0
asS'YGR255C'
p2697
(lp2698
F7.8
aF16.8
aF12.8
aF23.1
asS'YNL156C'
p2699
(lp2700
F4.9
aF7.2
aF5.7
aF13.7
asS'YNL138W'
p2701
(lp2702
F7.0
aF55.6
aF41.8
aF81.4
asS'YGL110C'
p2703
(lp2704
F4.6
aF6.5
aF5.0
aF12.8
asS'YDL051W'
p2705
(lp2706
F3.3
aF10.4
aF8.5
aF12.9
asS'YGL263W'
p2707
(lp2708
F2.2
aF4.8
aF3.7
aF6.8
asS'YBL102W'
p2709
(lp2710
F4.3
aF8.5
aF6.7
aF12.6
asS'YMR242C'
p2711
(lp2712
F2.8
aF10.8
aF9.3
aF13.5
asS'YIL038C'
p2713
(lp2714
F2.6
aF5.7
aF4.5
aF11.4
asS'YGR282C'
p2715
(lp2716
F4.4
aF36.6
aF26.8
aF50.0
asS'YNL183C'
p2717
(lp2718
F3.7
aF4.7
aF4.0
aF8.0
asS'YCR030C'
p2719
(lp2720
F6.6
aF13.5
aF9.9
aF22.0
asS'YMR077C'
p2721
(lp2722
F7.9
aF9.0
aF5.1
aF16.9
asS'YPL183C'
p2723
(lp2724
F1.5
aF5.1
aF4.3
aF7.4
asS'YKR088C'
p2725
(lp2726
F5.0
aF13.1
aF9.2
aF19.8
asS'YNL068C'
p2727
(lp2728
F2.0
aF5.5
aF4.7
aF8.1
asS'YGR204W'
p2729
(lp2730
F3.4
aF40.7
aF25.5
aF68.3
asS'YMR198W'
p2731
(lp2732
F4.6
aF5.5
aF4.5
aF9.3
asS'YJR080C'
p2733
(lp2734
F2.6
aF4.4
aF3.9
aF5.8
asS'YJL005W'
p2735
(lp2736
F14.0
aF32.7
aF19.6
aF56.4
asS'YJL050W'
p2737
(lp2738
F1.6
aF7.4
aF6.6
aF9.8
asS'YOL095C'
p2739
(lp2740
F2.3
aF4.8
aF3.7
aF8.9
asS'YDR146C'
p2741
(lp2742
F3.7
aF3.9
aF3.7
aF4.8
asS'YKR063C'
p2743
(lp2744
F2.2
aF4.5
aF3.7
aF8.6
asS'YHR056C'
p2745
(lp2746
F4.6
aF8.2
aF6.7
aF13.0
asS'YBR112C'
p2747
(lp2748
F2.5
aF8.2
aF5.9
aF13.8
asS'YPL158C'
p2749
(lp2750
F2.5
aF3.6
aF3.3
aF5.4
asS'YMR099C'
p2751
(lp2752
F6.7
aF28.2
aF23.0
aF34.3
asS'YNL199C'
p2753
(lp2754
F2.3
aF4.3
aF3.7
aF6.9
asS'YJR016C'
p2755
(lp2756
F3.2
aF24.6
aF21.0
aF28.1
asS'YDL202W'
p2757
(lp2758
F3.5
aF5.2
aF4.6
aF7.7
asS'YNL326C'
p2759
(lp2760
F2.0
aF2.7
aF2.6
aF4.0
asS'YFL008W'
p2761
(lp2762
F4.8
aF18.6
aF10.4
aF36.1
asS'YDR337W'
p2763
(lp2764
F3.4
aF4.7
aF4.0
aF8.0
asS'YOR251C'
p2765
(lp2766
F3.8
aF9.3
aF8.3
aF11.1
asS'YJL061W'
p2767
(lp2768
F2.3
aF5.6
aF4.9
aF10.2
asS'YOR049C'
p2769
(lp2770
F3.2
aF5.3
aF4.1
aF8.4
asS'YMR284W'
p2771
(lp2772
F7.0
aF9.5
aF7.1
aF13.5
asS'YDR217C'
p2773
(lp2774
F2.3
aF8.1
aF6.4
aF14.6
asS'YGR063C'
p2775
(lp2776
F2.3
aF4.9
aF4.3
aF7.4
asS'YDR441C'
p2777
(lp2778
F2.2
aF4.1
aF3.5
aF6.0
asS'YLR432W'
p2779
(lp2780
F3.4
aF29.6
aF23.2
aF38.1
asS'YNL020C'
p2781
(lp2782
F1.9
aF5.2
aF4.6
aF8.0
asS'YOR101W'
p2783
(lp2784
F1.4
aF2.4
aF2.2
aF3.8
asS'YER090W'
p2785
(lp2786
F6.0
aF29.3
aF21.2
aF42.2
asS'YMR246W'
p2787
(lp2788
F3.4
aF51.2
aF34.9
aF77.8
asS'YMR035W'
p2789
(lp2790
F4.6
aF12.1
aF9.1
aF18.4
asS'YDR231C'
p2791
(lp2792
F4.1
aF6.9
aF5.1
aF10.5
asS'YOR291W'
p2793
(lp2794
F4.4
aF9.0
aF7.1
aF13.4
asS'YJL112W'
p2795
(lp2796
F4.3
aF6.4
aF5.5
aF11.2
asS'YKR011C'
p2797
(lp2798
F15.2
aF26.3
aF18.3
aF38.1
asS'YDR159W'
p2799
(lp2800
F4.1
aF6.6
aF5.4
aF11.8
asS'YMR059W'
p2801
(lp2802
F1.1
aF2.2
aF2.0
aF4.4
asS'YDR062W'
p2803
(lp2804
F2.4
aF5.8
aF5.1
aF8.5
asS'YPL163C'
p2805
(lp2806
F2.7
aF7.3
aF6.1
aF10.4
asS'YML058W'
p2807
(lp2808
F4.7
aF10.3
aF8.9
aF12.7
asS'YML123C'
p2809
(lp2810
F0.9
aF3.2
aF2.9
aF4.9
asS'YDR107C'
p2811
(lp2812
F2.4
aF6.3
aF5.8
aF7.8
asS'YJR076C'
p2813
(lp2814
F3.7
aF7.9
aF6.4
aF11.7
asS'YHR190W'
p2815
(lp2816
F6.1
aF27.8
aF23.2
aF35.1
asS'YLR106C'
p2817
(lp2818
F8.3
aF18.2
aF13.8
aF26.5
asS'YPR005C'
p2819
(lp2820
F6.4
aF8.1
aF5.9
aF15.4
asS'YNL044W'
p2821
(lp2822
F3.7
aF7.7
aF6.6
aF11.3
asS'YKR002W'
p2823
(lp2824
F6.9
aF22.0
aF14.3
aF31.2
asS'YBR003W'
p2825
(lp2826
F6.6
aF7.9
aF6.3
aF11.5
asS'YDR200C'
p2827
(lp2828
F7.7
aF13.1
aF8.8
aF21.8
asS'YPL050C'
p2829
(lp2830
F2.3
aF3.6
aF3.4
aF4.9
asS'YBR068C'
p2831
(lp2832
F2.0
aF3.5
aF3.1
aF5.2
asS'YOL140W'
p2833
(lp2834
F1.2
aF3.6
aF3.4
aF4.4
asS'YDR279W'
p2835
(lp2836
F2.1
aF4.0
aF3.8
aF5.2
asS'YDL113C'
p2837
(lp2838
F7.9
aF25.1
aF15.9
aF39.2
asS'YDR357C'
p2839
(lp2840
F6.7
aF14.7
aF12.2
aF19.6
asS'YDL099W'
p2841
(lp2842
F6.4
aF15.5
aF10.6
aF24.4
asS'YGL226C-A'
p2843
(lp2844
F5.1
aF18.9
aF14.1
aF26.3
asS'YBR130C'
p2845
(lp2846
F4.9
aF5.9
aF4.8
aF9.4
asS'YJR021C'
p2847
(lp2848
F7.2
aF10.2
aF6.0
aF21.0
asS'YBR247C'
p2849
(lp2850
F1.6
aF3.4
aF3.1
aF5.2
asS'YBL040C'
p2851
(lp2852
F6.6
aF10.6
aF7.9
aF16.8
asS'YDR463W'
p2853
(lp2854
F4.5
aF6.5
aF5.1
aF11.4
asS'YAL010C'
p2855
(lp2856
F2.3
aF5.8
aF4.9
aF10.4
asS'YPL149W'
p2857
(lp2858
F2.5
aF5.5
aF4.5
aF10.6
asS'YIL047C'
p2859
(lp2860
F2.2
aF4.9
aF4.3
aF8.1
asS'YBR165W'
p2861
(lp2862
F4.9
aF4.7
aF4.1
aF7.7
asS'YDL220C'
p2863
(lp2864
F6.1
aF16.7
aF12.3
aF29.8
asS'YGR170W'
p2865
(lp2866
F4.2
aF8.0
aF6.2
aF15.9
asS'YHR075C'
p2867
(lp2868
F22.0
aF52.7
aF27.2
aF116.6
asS'YKL004W'
p2869
(lp2870
F1.3
aF3.7
aF3.3
aF5.0
asS'YOR208W'
p2871
(lp2872
F2.5
aF4.6
aF3.6
aF8.4
asS'YNL142W'
p2873
(lp2874
F2.4
aF4.6
aF3.8
aF9.1
asS'YOL148C'
p2875
(lp2876
F4.9
aF9.1
aF7.2
aF16.1
asS'YFR031C'
p2877
(lp2878
F1.7
aF4.4
aF3.7
aF7.7
asS'YOR148C'
p2879
(lp2880
F3.4
aF7.7
aF5.9
aF13.4
asS'YHR019C'
p2881
(lp2882
F4.4
aF46.4
aF34.2
aF62.0
asS'YAL003W'
p2883
(lp2884
F7.1
aF43.4
aF31.8
aF55.6
asS'YNL053W'
p2885
(lp2886
F1.2
aF1.7
aF1.7
aF3.3
asS'YLR200W'
p2887
(lp2888
F2.8
aF7.4
aF6.4
aF9.9
asS'YGR138C'
p2889
(lp2890
F4.0
aF11.5
aF8.1
aF19.2
asS'YPL075W'
p2891
(lp2892
F3.4
aF3.8
aF3.4
aF6.9
asS'YNL200C'
p2893
(lp2894
F10.2
aF25.3
aF17.7
aF40.9
asS'YNR015W'
p2895
(lp2896
F1.8
aF3.2
aF3.0
aF4.2
asS'YIL078W'
p2897
(lp2898
F3.3
aF33.1
aF23.0
aF51.6
asS'YLR350W'
p2899
(lp2900
F8.9
aF13.8
aF9.2
aF19.8
asS'YFL024C'
p2901
(lp2902
F2.3
aF2.5
aF2.4
aF4.4
asS'YGL009C'
p2903
(lp2904
F3.1
aF45.8
aF32.5
aF65.8
asS'YGR163W'
p2905
(lp2906
F4.3
aF7.7
aF5.1
aF12.2
asS'YGL126W'
p2907
(lp2908
F4.7
aF12.8
aF9.9
aF18.0
asS'YKL022C'
p2909
(lp2910
F3.9
aF4.9
aF4.0
aF8.6
asS'YLR018C'
p2911
(lp2912
F1.8
aF3.1
aF2.8
aF4.3
asS'YIL130W'
p2913
(lp2914
F3.5
aF5.8
aF4.7
aF11.4
asS'YBL092W'
p2915
(lp2916
F4.5
aF28.7
aF21.9
aF40.2
asS'YDR368W'
p2917
(lp2918
F6.4
aF57.9
aF39.5
aF98.2
asS'YJL158C'
p2919
(lp2920
F2.4
aF9.5
aF7.0
aF16.7
asS'YLR147C'
p2921
(lp2922
F2.4
aF5.2
aF4.4
aF7.7
asS'YDL164C'
p2923
(lp2924
F2.5
aF12.9
aF9.2
aF20.5
asS'YJR050W'
p2925
(lp2926
F2.3
aF4.7
aF3.7
aF6.7
asS'YDR177W'
p2927
(lp2928
F9.1
aF20.4
aF16.1
aF26.0
asS'YHR132W-A'
p2929
(lp2930
F4.9
aF5.9
aF4.6
aF11.2
asS'YDR375C'
p2931
(lp2932
F3.5
aF4.6
aF4.2
aF6.9
asS'YHR062C'
p2933
(lp2934
F1.7
aF3.5
aF3.0
aF4.8
asS'YIL014W'
p2935
(lp2936
F2.5
aF7.8
aF6.5
aF11.3
asS'YBR149W'
p2937
(lp2938
F9.0
aF22.9
aF15.3
aF35.9
asS'YGL210W'
p2939
(lp2940
F2.6
aF5.4
aF4.6
aF6.8
asS'YPR110C'
p2941
(lp2942
F2.4
aF6.6
aF5.7
aF8.9
asS'YDR088C'
p2943
(lp2944
F2.9
aF3.9
aF3.6
aF5.5
asS'YCR020C-A'
p2945
(lp2946
F5.5
aF40.0
aF23.7
aF75.9
asS'YOL149W'
p2947
(lp2948
F1.8
aF3.4
aF3.0
aF5.2
asS'YKL042W'
p2949
(lp2950
F4.2
aF5.3
aF4.3
aF10.6
asS'YLR376C'
p2951
(lp2952
F3.2
aF4.3
aF3.6
aF7.1
asS'YNL066W'
p2953
(lp2954
F1.9
aF3.8
aF3.5
aF5.5
asS'YLR453C'
p2955
(lp2956
F2.5
aF6.1
aF5.2
aF11.7
asS'YPL112C'
p2957
(lp2958
F4.0
aF6.8
aF5.4
aF11.5
asS'YPL030W'
p2959
(lp2960
F2.0
aF2.6
aF2.5
aF3.7
asS'YAL058W'
p2961
(lp2962
F3.6
aF9.9
aF7.3
aF14.1
asS'YDR452W'
p2963
(lp2964
F6.1
aF8.1
aF6.8
aF12.0
asS'YLR316C'
p2965
(lp2966
F3.6
aF5.0
aF4.0
aF7.6
asS'YFR022W'
p2967
(lp2968
F4.2
aF8.1
aF6.2
aF15.6
asS'YKL095W'
p2969
(lp2970
F3.4
aF5.2
aF4.4
aF7.8
asS'YJR136C'
p2971
(lp2972
F1.0
aF2.6
aF2.5
aF4.0
asS'YGL225W'
p2973
(lp2974
F2.0
aF10.2
aF7.8
aF13.2
asS'YHR037W'
p2975
(lp2976
F4.6
aF16.4
aF11.0
aF26.5
asS'YLR451W'
p2977
(lp2978
F2.5
aF5.2
aF4.0
aF10.8
asS'YIR021W'
p2979
(lp2980
F2.3
aF3.4
aF3.1
aF5.4
asS'YML108W'
p2981
(lp2982
F2.0
aF3.4
aF3.2
aF4.8
asS'YHR017W'
p2983
(lp2984
F8.3
aF10.1
aF8.1
aF14.0
asS'YOL044W'
p2985
(lp2986
F1.2
aF2.0
aF2.0
aF3.2
asS'YDR534C'
p2987
(lp2988
F20.7
aF32.3
aF20.4
aF59.6
asS'YHR148W'
p2989
(lp2990
F1.2
aF2.7
aF2.4
aF3.2
asS'YLR323C'
p2991
(lp2992
F1.4
aF2.5
aF2.3
aF3.4
asS'YDR186C'
p2993
(lp2994
F3.5
aF5.8
aF4.3
aF10.8
asS'YBR103W'
p2995
(lp2996
F9.8
aF15.1
aF12.0
aF20.5
asS'YBL038W'
p2997
(lp2998
F4.4
aF6.7
aF5.2
aF11.0
asS'YML117W'
p2999
(lp3000
F9.4
aF49.7
aF30.9
aF90.1
asS'YGL067W'
p3001
(lp3002
F4.8
aF10.7
aF8.8
aF16.9
asS'YCL010C'
p3003
(lp3004
F4.4
aF9.7
aF7.5
aF15.7
asS'YGR189C'
p3005
(lp3006
F2.4
aF7.5
aF6.5
aF9.7
asS'YNL278W'
p3007
(lp3008
F2.1
aF3.8
aF3.2
aF7.4
asS'YIR003W'
p3009
(lp3010
F7.5
aF16.6
aF12.6
aF25.0
asS'YOR069W'
p3011
(lp3012
F4.0
aF8.4
aF5.5
aF17.6
asS'YGR038W'
p3013
(lp3014
F2.5
aF5.0
aF4.3
aF7.8
asS'YOL122C'
p3015
(lp3016
F2.0
aF3.9
aF3.6
aF5.7
asS'YOR363C'
p3017
(lp3018
F7.8
aF8.4
aF6.9
aF13.3
asS'YNL087W'
p3019
(lp3020
F2.4
aF5.7
aF5.1
aF7.5
asS'YFL029C'
p3021
(lp3022
F4.6
aF6.7
aF5.8
aF11.2
asS'YNL223W'
p3023
(lp3024
F4.8
aF8.8
aF6.7
aF14.1
asS'YBR227C'
p3025
(lp3026
F3.9
aF10.2
aF7.4
aF18.0
asS'YBR278W'
p3027
(lp3028
F6.4
aF8.4
aF6.4
aF12.8
asS'YLR378C'
p3029
(lp3030
F4.6
aF9.4
aF7.6
aF14.1
asS'YOR067C'
p3031
(lp3032
F2.0
aF4.9
aF4.4
aF6.2
asS'YOL158C'
p3033
(lp3034
F2.4
aF3.8
aF3.5
aF6.0
asS'YNL024C-A'
p3035
(lp3036
F4.3
aF17.9
aF10.2
aF32.7
asS'YDR296W'
p3037
(lp3038
F4.0
aF5.8
aF4.9
aF8.1
asS'YGL232W'
p3039
(lp3040
F4.2
aF12.8
aF9.7
aF19.3
asS'YPR091C'
p3041
(lp3042
F3.9
aF25.4
aF15.1
aF42.6
asS'YOR109W'
p3043
(lp3044
F6.1
aF28.6
aF16.1
aF50.3
asS'YIL030C'
p3045
(lp3046
F2.7
aF7.5
aF5.5
aF13.7
asS'YIL116W'
p3047
(lp3048
F5.9
aF28.7
aF21.2
aF38.9
asS'YGR094W'
p3049
(lp3050
F3.0
aF35.1
aF27.6
aF45.4
asS'YNR048W'
p3051
(lp3052
F0.9
aF2.4
aF2.3
aF3.5
asS'YDR191W'
p3053
(lp3054
F2.3
aF4.6
aF3.4
aF7.7
asS'YOR234C'
p3055
(lp3056
F3.1
aF11.8
aF9.9
aF16.4
asS'YHR028C'
p3057
(lp3058
F7.5
aF15.9
aF12.6
aF22.6
asS'YBR265W'
p3059
(lp3060
F2.1
aF2.9
aF2.8
aF3.8
asS'YFR048W'
p3061
(lp3062
F2.3
aF3.6
aF3.3
aF5.0
asS'YBL007C'
p3063
(lp3064
F7.0
aF32.3
aF25.1
aF45.4
asS'YNR037C'
p3065
(lp3066
F3.2
aF5.4
aF4.6
aF7.2
asS'YDL044C'
p3067
(lp3068
F3.7
aF4.4
aF4.0
aF8.1
asS'YCL024W'
p3069
(lp3070
F2.6
aF3.6
aF3.4
aF5.7
asS'YMR307W'
p3071
(lp3072
F2.2
aF8.2
aF7.3
aF10.5
asS'YPL271W'
p3073
(lp3074
F3.6
aF5.7
aF4.2
aF8.5
asS'YAL032C'
p3075
(lp3076
F4.2
aF10.9
aF7.0
aF15.9
asS'YGL145W'
p3077
(lp3078
F2.0
aF4.2
aF3.6
aF6.3
asS'YGL112C'
p3079
(lp3080
F2.5
aF4.9
aF4.4
aF7.3
asS'YOR021C'
p3081
(lp3082
F3.2
aF7.2
aF6.2
aF9.5
asS'YBR230C'
p3083
(lp3084
F9.1
aF17.4
aF12.5
aF24.5
asS'YNL252C'
p3085
(lp3086
F3.7
aF4.1
aF3.8
aF6.8
asS'YBR187W'
p3087
(lp3088
F2.1
aF4.1
aF3.8
aF5.2
asS'YER133W'
p3089
(lp3090
F4.4
aF11.7
aF9.0
aF16.2
asS'YGL248W'
p3091
(lp3092
F3.8
aF7.3
aF6.0
aF12.0
asS'YMR201C'
p3093
(lp3094
F5.4
aF8.3
aF7.0
aF12.2
asS'YOL006C'
p3095
(lp3096
F2.1
aF6.8
aF5.5
aF10.7
asS'YCR003W'
p3097
(lp3098
F3.5
aF4.5
aF3.6
aF8.4
asS'YOR342C'
p3099
(lp3100
F2.0
aF3.2
aF2.8
aF6.1
asS'YLR132C'
p3101
(lp3102
F4.3
aF8.1
aF6.6
aF13.2
asS'YER020W'
p3103
(lp3104
F3.7
aF6.5
aF5.3
aF11.3
asS'YER162C'
p3105
(lp3106
F6.6
aF7.8
aF6.2
aF13.0
asS'YMR038C'
p3107
(lp3108
F4.3
aF13.1
aF9.6
aF16.6
asS'YDR511W'
p3109
(lp3110
F4.9
aF7.6
aF6.0
aF11.3
asS'YML011C'
p3111
(lp3112
F3.7
aF6.0
aF4.2
aF11.8
asS'YNL201C'
p3113
(lp3114
F1.8
aF5.0
aF4.4
aF7.3
asS'YDL190C'
p3115
(lp3116
F6.1
aF45.7
aF25.6
aF76.1
asS'YCR028C-A'
p3117
(lp3118
F4.5
aF12.5
aF10.5
aF16.0
asS'YHR030C'
p3119
(lp3120
F2.6
aF4.6
aF4.1
aF7.6
asS'YDR043C'
p3121
(lp3122
F16.4
aF34.2
aF19.2
aF83.0
asS'YGR076C'
p3123
(lp3124
F3.4
aF3.4
aF3.1
aF5.3
asS'YER075C'
p3125
(lp3126
F3.9
aF4.5
aF3.8
aF8.6
asS'YJL187C'
p3127
(lp3128
F4.5
aF5.3
aF4.7
aF9.3
asS'YOR250C'
p3129
(lp3130
F2.6
aF5.4
aF4.5
aF8.1
asS'YEL015W'
p3131
(lp3132
F3.4
aF7.8
aF5.7
aF13.2
asS'YBL103C'
p3133
(lp3134
F3.9
aF5.0
aF4.0
aF8.6
asS'YEL040W'
p3135
(lp3136
F2.3
aF4.8
aF4.4
aF6.1
asS'YKR085C'
p3137
(lp3138
F2.1
aF4.8
aF4.1
aF6.3
asS'YPR131C'
p3139
(lp3140
F2.3
aF4.6
aF3.9
aF6.5
asS'YPL045W'
p3141
(lp3142
F2.8
aF5.4
aF4.8
aF8.5
asS'YLR418C'
p3143
(lp3144
F2.7
aF5.0
aF4.4
aF7.8
asS'YER059W'
p3145
(lp3146
F6.0
aF5.9
aF4.7
aF10.1
asS'YMR243C'
p3147
(lp3148
F2.9
aF5.8
aF5.3
aF7.7
asS'YGL111W'
p3149
(lp3150
F3.7
aF7.0
aF6.5
aF9.0
asS'YNL110C'
p3151
(lp3152
F1.7
aF3.0
aF2.8
aF3.7
asS'YOR132W'
p3153
(lp3154
F9.9
aF18.1
aF13.8
aF27.2
asS'YBL025W'
p3155
(lp3156
F4.4
aF3.7
aF2.9
aF7.6
asS'YLR102C'
p3157
(lp3158
F7.3
aF15.1
aF10.7
aF22.7
asS'YOL066C'
p3159
(lp3160
F6.8
aF11.3
aF6.7
aF21.5
asS'YDR126W'
p3161
(lp3162
F3.5
aF4.6
aF4.2
aF7.2
asS'YLR388W'
p3163
(lp3164
F4.2
aF11.9
aF8.7
aF17.2
asS'YLR414C'
p3165
(lp3166
F3.7
aF7.4
aF6.6
aF10.4
asS'YKL212W'
p3167
(lp3168
F4.3
aF17.7
aF11.7
aF31.5
asS'YGL167C'
p3169
(lp3170
F3.6
aF7.5
aF6.6
aF11.1
asS'YHR115C'
p3171
(lp3172
F6.6
aF13.1
aF9.2
aF18.8
asS'YOR223W'
p3173
(lp3174
F6.3
aF15.9
aF9.8
aF24.0
asS'YER124C'
p3175
(lp3176
F2.4
aF4.4
aF3.9
aF7.5
asS'YEL022W'
p3177
(lp3178
F4.6
aF28.0
aF14.7
aF48.8
asS'YPL188W'
p3179
(lp3180
F7.1
aF23.8
aF12.7
aF41.6
asS'YPR188C'
p3181
(lp3182
F4.7
aF17.2
aF12.8
aF23.3
asS'YIL053W'
p3183
(lp3184
F1.5
aF4.5
aF4.1
aF5.7
asS'YDL074C'
p3185
(lp3186
F2.4
aF3.5
aF3.1
aF5.7
asS'YNL073W'
p3187
(lp3188
F3.6
aF7.0
aF5.6
aF11.4
asS'YJL190C'
p3189
(lp3190
F3.7
aF24.0
aF18.4
aF31.4
asS'YMR218C'
p3191
(lp3192
F3.8
aF5.5
aF4.7
aF10.8
asS'YNL265C'
p3193
(lp3194
F4.2
aF8.4
aF6.8
aF13.5
asS'YGL107C'
p3195
(lp3196
F2.4
aF3.7
aF3.3
aF6.4
asS'YOR269W'
p3197
(lp3198
F9.3
aF7.4
aF6.3
aF11.1
asS'YOR212W'
p3199
(lp3200
F1.8
aF2.5
aF2.5
aF3.7
asS'YKL201C'
p3201
(lp3202
F7.3
aF16.0
aF9.1
aF25.3
asS'YLL049W'
p3203
(lp3204
F8.8
aF30.1
aF18.8
aF50.2
asS'YMR037C'
p3205
(lp3206
F3.9
aF6.4
aF5.2
aF11.7
asS'YNR032W'
p3207
(lp3208
F3.8
aF3.3
aF2.9
aF6.0
asS'YEL053C'
p3209
(lp3210
F2.1
aF4.9
aF4.0
aF6.4
asS'YDR236C'
p3211
(lp3212
F4.8
aF10.2
aF7.0
aF22.4
asS'YPL037C'
p3213
(lp3214
F5.7
aF27.5
aF22.6
aF32.8
asS'YER057C'
p3215
(lp3216
F10.1
aF36.9
aF27.6
aF56.4
asS'YCR092C'
p3217
(lp3218
F4.8
aF29.7
aF13.5
aF83.0
asS'YOL119C'
p3219
(lp3220
F2.5
aF4.5
aF3.9
aF8.3
asS'YKL145W'
p3221
(lp3222
F3.5
aF8.0
aF6.6
aF12.0
asS'YJL111W'
p3223
(lp3224
F2.2
aF5.3
aF4.3
aF9.8
asS'YIL066C'
p3225
(lp3226
F12.4
aF57.1
aF25.4
aF571.2
asS'YKR010C'
p3227
(lp3228
F2.4
aF3.4
aF3.3
aF4.9
asS'YNL192W'
p3229
(lp3230
F2.3
aF5.5
aF4.5
aF9.9
asS'YLL010C'
p3231
(lp3232
F4.1
aF5.3
aF4.7
aF7.9
asS'YMR058W'
p3233
(lp3234
F2.3
aF6.3
aF5.5
aF8.4
asS'YLR436C'
p3235
(lp3236
F4.9
aF10.0
aF8.6
aF14.8
asS'YNL113W'
p3237
(lp3238
F1.7
aF2.8
aF2.3
aF4.0
asS'YOR290C'
p3239
(lp3240
F10.8
aF38.5
aF27.3
aF59.0
asS'YKL114C'
p3241
(lp3242
F3.4
aF4.5
aF4.0
aF6.5
asS'YML024W'
p3243
(lp3244
F4.0
aF30.3
aF21.3
aF51.7
asS'YML093W'
p3245
(lp3246
F1.5
aF4.2
aF3.9
aF5.5
asS'YJR077C'
p3247
(lp3248
F2.9
aF10.5
aF8.7
aF14.3
asS'YHR197W'
p3249
(lp3250
F1.5
aF4.8
aF4.0
aF8.9
asS'YDL112W'
p3251
(lp3252
F2.2
aF18.7
aF11.4
aF31.1
asS'YBR002C'
p3253
(lp3254
F2.3
aF3.6
aF3.1
aF5.4
asS'YDR423C'
p3255
(lp3256
F4.6
aF12.5
aF9.5
aF18.4
asS'YPR106W'
p3257
(lp3258
F6.6
aF9.6
aF7.0
aF17.1
asS'YPR004C'
p3259
(lp3260
F3.6
aF8.4
aF7.3
aF11.5
asS'YDR276C'
p3261
(lp3262
F3.4
aF10.0
aF8.1
aF13.2
asS'YGR261C'
p3263
(lp3264
F2.7
aF6.9
aF5.7
aF10.0
asS'YKL154W'
p3265
(lp3266
F1.2
aF2.5
aF2.4
aF3.4
asS'YKR003W'
p3267
(lp3268
F3.9
aF7.4
aF6.6
aF9.8
asS'YDR158W'
p3269
(lp3270
F4.8
aF42.1
aF32.9
aF56.1
asS'YMR116C'
p3271
(lp3272
F4.9
aF41.3
aF29.5
aF61.1
asS'YPL004C'
p3273
(lp3274
F6.0
aF11.6
aF9.3
aF16.3
asS'YOR164C'
p3275
(lp3276
F5.8
aF17.2
aF12.9
aF28.4
asS'YLR107W'
p3277
(lp3278
F3.6
aF5.1
aF4.3
aF10.7
asS'YMR073C'
p3279
(lp3280
F3.5
aF5.4
aF4.8
aF7.1
asS'YPL082C'
p3281
(lp3282
F2.0
aF3.1
aF2.9
aF4.7
asS'YDR451C'
p3283
(lp3284
F1.1
aF2.5
aF2.4
aF3.8
asS'YGL030W'
p3285
(lp3286
F5.0
aF16.2
aF13.0
aF21.7
asS'YGR283C'
p3287
(lp3288
F2.0
aF4.9
aF3.9
aF9.8
asS'YDL052C'
p3289
(lp3290
F3.9
aF5.4
aF4.7
aF8.9
asS'YER175C'
p3291
(lp3292
F4.9
aF12.3
aF10.1
aF16.5
asS'YJL178C'
p3293
(lp3294
F3.4
aF7.9
aF6.8
aF10.3
asS'YIL084C'
p3295
(lp3296
F4.2
aF7.2
aF5.3
aF14.1
asS'YLR429W'
p3297
(lp3298
F4.0
aF9.0
aF7.8
aF13.4
asS'YMR308C'
p3299
(lp3300
F2.4
aF17.4
aF10.0
aF37.9
asS'YDR050C'
p3301
(lp3302
F4.6
aF24.7
aF19.7
aF30.1
asS'YGR061C'
p3303
(lp3304
F3.0
aF32.0
aF17.9
aF70.3
asS'YCR032W'
p3305
(lp3306
F14.0
aF36.4
aF25.0
aF52.6
asS'YNL312W'
p3307
(lp3308
F3.2
aF5.5
aF5.0
aF8.3
asS'YDR105C'
p3309
(lp3310
F5.0
aF6.8
aF5.9
aF9.8
asS'YGL120C'
p3311
(lp3312
F3.5
aF12.7
aF9.9
aF18.0
asS'YLR145W'
p3313
(lp3314
F3.4
aF5.0
aF4.1
aF9.3
asS'YGR271C-A'
p3315
(lp3316
F1.4
aF2.0
aF2.0
aF2.5
asS'YLR098C'
p3317
(lp3318
F4.4
aF7.4
aF6.0
aF11.8
asS'YNR041C'
p3319
(lp3320
F3.7
aF9.3
aF5.9
aF18.2
asS'YLR110C'
p3321
(lp3322
F3.7
aF22.1
aF13.9
aF37.7
asS'YDL134C'
p3323
(lp3324
F3.9
aF7.7
aF5.9
aF12.4
asS'YEL071W'
p3325
(lp3326
F2.9
aF10.1
aF7.9
aF14.9
asS'YKR058W'
p3327
(lp3328
F14.0
aF16.9
aF11.6
aF26.4
asS'YPR108W'
p3329
(lp3330
F6.9
aF20.7
aF15.2
aF27.9
asS'YFL050C'
p3331
(lp3332
F8.2
aF14.2
aF8.8
aF24.2
asS'YDR369C'
p3333
(lp3334
F2.4
aF3.7
aF3.2
aF6.9
asS'YBR106W'
p3335
(lp3336
F3.5
aF9.5
aF8.0
aF12.7
asS'YKL132C'
p3337
(lp3338
F4.5
aF6.6
aF5.4
aF11.7
asS'YBL093C'
p3339
(lp3340
F2.7
aF3.7
aF3.3
aF6.2
asS'YLR390W-A'
p3341
(lp3342
F4.4
aF26.1
aF17.6
aF42.3
asS'YHR171W'
p3343
(lp3344
F8.6
aF14.6
aF10.3
aF23.2
asS'YGR162W'
p3345
(lp3346
F1.4
aF4.7
aF4.1
aF6.9
asS'YDL165W'
p3347
(lp3348
F2.9
aF7.6
aF5.1
aF11.1
asS'YGR227W'
p3349
(lp3350
F1.9
aF4.0
aF3.6
aF5.4
asS'YCL054W'
p3351
(lp3352
F1.2
aF3.1
aF2.8
aF5.1
asS'YJL124C'
p3353
(lp3354
F2.8
aF4.9
aF4.3
aF7.1
asS'YOR076C'
p3355
(lp3356
F11.8
aF27.7
aF13.9
aF57.3
asS'YLR253W'
p3357
(lp3358
F2.6
aF3.6
aF3.2
aF5.9
asS'YOR215C'
p3359
(lp3360
F4.0
aF8.3
aF7.1
aF12.4
asS'YPR199C'
p3361
(lp3362
F3.2
aF5.4
aF4.7
aF6.8
asS'YJR051W'
p3363
(lp3364
F3.1
aF9.0
aF7.1
aF12.1
asS'YKL094W'
p3365
(lp3366
F5.1
aF12.7
aF9.9
aF19.3
asS'YNL022C'
p3367
(lp3368
F1.8
aF3.3
aF3.1
aF4.4
asS'YDR261C'
p3369
(lp3370
F8.1
aF26.6
aF19.2
aF36.5
asS'YIL131C'
p3371
(lp3372
F2.7
aF3.9
aF3.6
aF6.4
asS'YKL143W'
p3373
(lp3374
F2.9
aF6.1
aF5.0
aF13.0
asS'YBR146W'
p3375
(lp3376
F3.5
aF4.9
aF4.4
aF7.5
asS'YDR318W'
p3377
(lp3378
F7.6
aF27.0
aF13.8
aF46.7
asS'YPL031C'
p3379
(lp3380
F4.8
aF8.5
aF7.6
aF11.1
asS'YHR061C'
p3381
(lp3382
F2.6
aF4.4
aF3.9
aF7.4
asS'YDR453C'
p3383
(lp3384
F12.7
aF50.6
aF30.4
aF117.2
asS'YER080W'
p3385
(lp3386
F7.0
aF37.1
aF27.9
aF51.7
asS'YJL164C'
p3387
(lp3388
F7.4
aF10.3
aF7.9
aF17.1
asS'YJR019C'
p3389
(lp3390
F5.9
aF14.5
aF10.7
aF21.0
asS'YNL030W'
p3391
(lp3392
F1.3
aF2.7
aF2.5
aF3.7
asS'YOL026C'
p3393
(lp3394
F6.9
aF32.1
aF18.7
aF63.2
asS'YJR135C'
p3395
(lp3396
F2.3
aF3.6
aF3.3
aF5.9
asS'YDR321W'
p3397
(lp3398
F3.3
aF15.5
aF13.2
aF21.1
asS'YFR032C-A'
p3399
(lp3400
F4.1
aF26.9
aF18.1
aF41.5
asS'YGL213C'
p3401
(lp3402
F2.4
aF5.0
aF4.1
aF7.8
asS'YNL178W'
p3403
(lp3404
F4.4
aF18.2
aF15.5
aF21.6
asS'YPL036W'
p3405
(lp3406
F7.7
aF14.1
aF9.7
aF26.4
asS'YDR147W'
p3407
(lp3408
F2.3
aF4.4
aF4.0
aF6.2
asS'YJL004C'
p3409
(lp3410
F3.9
aF8.4
aF6.2
aF11.8
asS'YBL080C'
p3411
(lp3412
F4.1
aF6.0
aF4.8
aF8.6
asS'YMR076C'
p3413
(lp3414
F4.5
aF41.2
aF26.7
aF73.8
asS'YDR356W'
p3415
(lp3416
F2.4
aF3.7
aF3.3
aF6.5
asS'YMR136W'
p3417
(lp3418
F14.2
aF18.7
aF11.2
aF31.2
asS'YDR167W'
p3419
(lp3420
F2.8
aF4.8
aF4.3
aF6.6
asS'YDL083C'
p3421
(lp3422
F2.9
aF9.3
aF7.6
aF11.4
asS'YJL051W'
p3423
(lp3424
F3.7
aF7.2
aF5.8
aF12.0
asS'YJR017C'
p3425
(lp3426
F5.2
aF21.5
aF12.1
aF37.5
asS'YPL180W'
p3427
(lp3428
F4.0
aF7.2
aF6.0
aF11.4
asS'YHR057C'
p3429
(lp3430
F5.8
aF14.6
aF10.4
aF23.1
asS'YJL106W'
p3431
(lp3432
F1.9
aF2.3
aF2.1
aF3.6
asS'YNL027W'
p3433
(lp3434
F4.0
aF5.5
aF4.8
aF9.5
asS'YPL022W'
p3435
(lp3436
F2.5
aF5.0
aF4.4
aF8.3
asS'YDR440W'
p3437
(lp3438
F1.9
aF2.8
aF2.5
aF4.5
asS'YDL101C'
p3439
(lp3440
F7.2
aF14.4
aF9.3
aF22.8
asS'YDL205C'
p3441
(lp3442
F2.4
aF4.0
aF3.4
aF6.7
asS'YML080W'
p3443
(lp3444
F0.8
aF1.1
aF1.1
aF1.5
asS'YNL099C'
p3445
(lp3446
F4.3
aF5.5
aF4.9
aF9.5
asS'YMR285C'
p3447
(lp3448
F2.6
aF3.7
aF3.5
aF5.7
asS'YLR291C'
p3449
(lp3450
F2.1
aF4.7
aF4.0
aF6.9
asS'YPR140W'
p3451
(lp3452
F4.5
aF5.0
aF4.2
aF7.5
asS'YGR048W'
p3453
(lp3454
F4.6
aF6.4
aF5.1
aF10.9
asS'YOR259C'
p3455
(lp3456
F6.4
aF12.5
aF8.3
aF22.0
asS'YJR113C'
p3457
(lp3458
F4.1
aF5.2
aF4.6
aF8.5
asS'YBR279W'
p3459
(lp3460
F7.9
aF18.5
aF10.2
aF35.4
asS'YGR024C'
p3461
(lp3462
F3.9
aF6.2
aF5.3
aF9.2
asS'YAR033W'
p3463
(lp3464
F3.6
aF4.5
aF3.6
aF6.4
asS'YOR281C'
p3465
(lp3466
F1.9
aF3.6
aF3.1
aF4.8
asS'YIL117C'
p3467
(lp3468
F8.6
aF15.9
aF11.6
aF28.2
asS'YAL055W'
p3469
(lp3470
F4.5
aF6.8
aF4.9
aF10.8
asS'YHR041C'
p3471
(lp3472
F1.9
aF7.0
aF6.2
aF9.4
asS'YOL052C'
p3473
(lp3474
F4.2
aF9.7
aF7.9
aF14.7
asS'YGR140W'
p3475
(lp3476
F12.4
aF15.6
aF7.3
aF24.3
asS'YDR475C'
p3477
(lp3478
F7.1
aF12.3
aF10.0
aF17.6
asS'YPL137C'
p3479
(lp3480
F4.3
aF13.7
aF8.8
aF22.4
asS'YNL116W'
p3481
(lp3482
F13.2
aF28.9
aF17.2
aF52.6
asS'YGR097W'
p3483
(lp3484
F2.5
aF9.8
aF6.5
aF19.7
asS'YNL301C'
p3485
(lp3486
F3.7
aF6.3
aF5.3
aF8.5
asS'YBR151W'
p3487
(lp3488
F3.7
aF5.2
aF4.5
aF8.3
asS'YCL025C'
p3489
(lp3490
F1.0
aF2.8
aF2.7
aF4.5
asS'YNR034W'
p3491
(lp3492
F10.5
aF19.0
aF13.1
aF33.2
asS'YGL231C'
p3493
(lp3494
F2.9
aF5.6
aF4.7
aF7.9
asS'YOR241W'
p3495
(lp3496
F2.2
aF4.7
aF4.0
aF10.0
asS'YGR157W'
p3497
(lp3498
F4.8
aF15.8
aF11.2
aF24.0
asS'YNL282W'
p3499
(lp3500
F3.4
aF10.6
aF7.5
aF15.9
asS'YGL168W'
p3501
(lp3502
F3.7
aF10.2
aF6.9
aF16.5
asS'YGL144C'
p3503
(lp3504
F1.9
aF3.1
aF2.8
aF5.3
asS'YDR297W'
p3505
(lp3506
F2.0
aF4.0
aF3.7
aF5.5
asS'YAL031C'
p3507
(lp3508
F3.3
aF6.9
aF5.8
aF11.6
asS'YBL006C'
p3509
(lp3510
F2.5
aF4.5
aF3.9
aF6.7
asS'YLR340W'
p3511
(lp3512
F4.8
aF45.4
aF35.4
aF55.0
asS'YMR306W'
p3513
(lp3514
F8.1
aF14.4
aF10.3
aF22.5
asS'YGR108W'
p3515
(lp3516
F1.0
aF1.9
aF1.9
aF2.5
asS'YMR070W'
p3517
(lp3518
F3.7
aF6.0
aF4.8
aF9.2
asS'YBR264C'
p3519
(lp3520
F3.5
aF4.9
aF4.2
aF8.2
asS'YKR096W'
p3521
(lp3522
F8.8
aF13.2
aF9.0
aF23.4
asS'YHR162W'
p3523
(lp3524
F3.8
aF6.3
aF5.2
aF8.7
asS'YBR246W'
p3525
(lp3526
F2.7
aF7.1
aF5.8
aF11.9
asS'YPL110C'
p3527
(lp3528
F8.0
aF49.0
aF34.3
aF82.3
asS'YGR207C'
p3529
(lp3530
F4.7
aF11.0
aF8.4
aF17.4
asS'YLR275W'
p3531
(lp3532
F2.4
aF3.5
aF3.1
aF7.3
asS'YOR004W'
p3533
(lp3534
F1.2
aF2.2
aF2.2
aF3.1
asS'YOR073W'
p3535
(lp3536
F2.3
aF3.2
aF2.8
aF5.4
asS'YDR212W'
p3537
(lp3538
F3.1
aF11.2
aF8.7
aF15.2
asS'YBR166C'
p3539
(lp3540
F2.3
aF4.9
aF4.0
aF8.0
asS'YDR462W'
p3541
(lp3542
F6.5
aF11.7
aF8.7
aF16.8
asS'YMR149W'
p3543
(lp3544
F4.1
aF6.9
aF6.0
aF10.0
asS'YJL148W'
p3545
(lp3546
F1.1
aF1.5
aF1.5
aF2.3
asS'YPL065W'
p3547
(lp3548
F5.0
aF9.2
aF7.6
aF12.4
asS'YAL048C'
p3549
(lp3550
F3.4
aF4.8
aF4.1
aF8.4
asS'YPL055C'
p3551
(lp3552
F2.5
aF5.5
aF5.1
aF7.4
asS'YAL013W'
p3553
(lp3554
F3.7
aF4.3
aF3.6
aF8.6
asS'YGL093W'
p3555
(lp3556
F6.2
aF13.1
aF8.7
aF21.6
asS'YDR098C'
p3557
(lp3558
F4.4
aF13.3
aF10.9
aF16.5
asS'YPL095C'
p3559
(lp3560
F4.3
aF9.5
aF6.3
aF19.3
asS'YIL148W'
p3561
(lp3562
F4.8
aF20.9
aF15.9
aF27.8
asS'YGL200C'
p3563
(lp3564
F8.0
aF20.4
aF17.2
aF25.3
asS'YJR099W'
p3565
(lp3566
F3.5
aF6.6
aF5.9
aF8.8
asS'YOR019W'
p3567
(lp3568
F8.0
aF31.1
aF19.4
aF46.4
asS'YOR177C'
p3569
(lp3570
F5.3
aF14.2
aF9.6
aF22.9
asS'YNL052W'
p3571
(lp3572
F4.5
aF10.0
aF7.2
aF16.6
asS'YFR036W'
p3573
(lp3574
F2.0
aF4.0
aF3.5
aF5.8
asS'YPL157W'
p3575
(lp3576
F1.8
aF3.0
aF2.8
aF4.8
asS'YKL005C'
p3577
(lp3578
F7.1
aF13.6
aF9.6
aF22.4
asS'YBR120C'
p3579
(lp3580
F4.8
aF5.8
aF4.8
aF10.4
asS'YLR085C'
p3581
(lp3582
F2.5
aF5.8
aF4.2
aF10.0
asS'YDR280W'
p3583
(lp3584
F2.0
aF2.4
aF2.4
aF4.2
asS'YOR179C'
p3585
(lp3586
F3.1
aF4.7
aF3.9
aF6.0
asS'YDR418W'
p3587
(lp3588
F3.7
aF18.3
aF14.1
aF22.6
asS'YGL166W'
p3589
(lp3590
F3.6
aF7.4
aF5.6
aF10.7
asS'YHR114W'
p3591
(lp3592
F5.0
aF18.9
aF12.8
aF27.3
asS'YHR138C'
p3593
(lp3594
F9.9
aF22.2
aF15.3
aF31.6
asS'YBL024W'
p3595
(lp3596
F1.3
aF4.7
aF4.2
aF7.5
asS'YMR241W'
p3597
(lp3598
F2.3
aF6.3
aF5.6
aF9.1
asS'YGR123C'
p3599
(lp3600
F1.4
aF4.6
aF4.4
aF5.6
asS'YGR028W'
p3601
(lp3602
F2.5
aF4.5
aF4.0
aF6.2
asS'YPL213W'
p3603
(lp3604
F4.0
aF6.7
aF5.1
aF12.9
asS'YDR127W'
p3605
(lp3606
F3.4
aF40.6
aF32.3
aF52.0
asS'YNL279W'
p3607
(lp3608
F7.1
aF37.3
aF18.9
aF90.5
asS'YCL034W'
p3609
(lp3610
F8.2
aF21.1
aF16.1
aF27.9
asS'YOL018C'
p3611
(lp3612
F2.2
aF3.8
aF3.5
aF5.4
asS'YBR288C'
p3613
(lp3614
F4.3
aF11.2
aF7.3
aF21.5
asS'YOR220W'
p3615
(lp3616
F6.9
aF13.5
aF9.6
aF23.3
asS'YKR092C'
p3617
(lp3618
F1.7
aF3.0
aF2.8
aF4.3
asS'YMR222C'
p3619
(lp3620
F3.4
aF7.2
aF6.0
aF10.8
asS'YLL048C'
p3621
(lp3622
F5.4
aF23.3
aF15.3
aF32.5
asS'YNL264C'
p3623
(lp3624
F3.3
aF5.2
aF4.6
aF7.0
asS'YNL155W'
p3625
(lp3626
F11.3
aF10.6
aF7.9
aF17.5
asS'YOR142W'
p3627
(lp3628
F6.5
aF8.6
aF7.1
aF13.8
asS'YDR434W'
p3629
(lp3630
F4.6
aF9.4
aF7.6
aF14.7
asS'YGL106W'
p3631
(lp3632
F5.5
aF22.3
aF17.8
aF27.5
asS'YOR211C'
p3633
(lp3634
F4.8
aF9.9
aF7.0
aF18.7
asS'YPL135W'
p3635
(lp3636
F3.7
aF5.0
aF4.5
aF8.5
asS'YDR033W'
p3637
(lp3638
F2.5
aF10.9
aF9.3
aF14.3
asS'YPL120W'
p3639
(lp3640
F7.4
aF15.3
aF9.6
aF30.7
asS'YPL117C'
p3641
(lp3642
F3.8
aF8.6
aF7.2
aF11.6
asS'YGL226W'
p3643
(lp3644
F2.7
aF5.9
aF5.0
aF7.4
asS'YHR038W'
p3645
(lp3646
F4.5
aF4.7
aF3.8
aF9.1
asS'YOR324C'
p3647
(lp3648
F3.8
aF4.5
aF3.8
aF6.9
asS'YHR149C'
p3649
(lp3650
F1.4
aF5.2
aF4.5
aF8.6
asS'YIL020C'
p3651
(lp3652
F2.3
aF4.6
aF4.0
aF7.8
asS'YBR208C'
p3653
(lp3654
F3.7
aF40.3
aF28.1
aF55.4
asS'YNR074C'
p3655
(lp3656
F4.4
aF9.5
aF7.1
aF14.5
asS'YDR005C'
p3657
(lp3658
F3.5
aF5.1
aF4.1
aF9.2
asS'YOL045W'
p3659
(lp3660
F6.2
aF20.2
aF14.1
aF30.9
asS'YFR010W'
p3661
(lp3662
F13.4
aF39.3
aF23.9
aF71.3
asS'YHL009C'
p3663
(lp3664
F1.9
aF3.1
aF2.8
aF5.3
asS'YMR311C'
p3665
(lp3666
F4.4
aF8.3
aF6.9
aF13.3
asS'YNL222W'
p3667
(lp3668
F6.3
aF8.5
aF5.9
aF14.4
asS'YJL109C'
p3669
(lp3670
F2.4
aF16.2
aF11.6
aF22.2
asS'YOL155C'
p3671
(lp3672
F6.2
aF6.5
aF5.4
aF11.4
asS'YML118W'
p3673
(lp3674
F6.9
aF17.4
aF12.2
aF28.5
asS'YHR205W'
p3675
(lp3676
F2.5
aF6.8
aF5.2
aF15.1
asS'YGR037C'
p3677
(lp3678
F3.3
aF10.2
aF8.4
aF12.3
asS'YIL008W'
p3679
(lp3680
F4.7
aF13.8
aF10.4
aF19.2
asS'YOR236W'
p3681
(lp3682
F1.3
aF2.9
aF2.6
aF3.7
asS'YOL121C'
p3683
(lp3684
F4.8
aF21.9
aF19.3
aF25.9
asS'YBL039C'
p3685
(lp3686
F1.6
aF9.3
aF7.0
aF13.5
asS'YER143W'
p3687
(lp3688
F11.5
aF25.1
aF18.3
aF37.3
asS'YNL048W'
p3689
(lp3690
F2.4
aF6.7
aF5.3
aF11.5
asS'YNL086W'
p3691
(lp3692
F3.5
aF6.4
aF5.2
aF9.1
asS'YGL064C'
p3693
(lp3694
F0.9
aF2.7
aF2.6
aF4.8
asS'YOR030W'
p3695
(lp3696
F4.9
aF10.6
aF6.6
aF20.0
asS'YLR126C'
p3697
(lp3698
F4.3
aF12.2
aF9.3
aF17.2
asS'YDL053C'
p3699
(lp3700
F4.2
aF11.1
aF8.5
aF18.1
asS'YOR122C'
p3701
(lp3702
F6.5
aF26.2
aF20.9
aF33.4
asS'YIL071C'
p3703
(lp3704
F4.3
aF14.8
aF9.4
aF23.7
asS'YMR240C'
p3705
(lp3706
F1.9
aF2.9
aF2.7
aF4.5
asS'YKL109W'
p3707
(lp3708
F5.0
aF5.7
aF4.6
aF11.3
asS'YCR031C'
p3709
(lp3710
F5.6
aF23.1
aF17.0
aF31.4
asS'YOR065W'
p3711
(lp3712
F5.3
aF9.1
aF7.1
aF14.4
asS'YLL006W'
p3713
(lp3714
F4.8
aF13.6
aF10.6
aF19.2
asS'YMR215W'
p3715
(lp3716
F5.6
aF33.5
aF25.6
aF47.5
asS'YDR051C'
p3717
(lp3718
F4.0
aF7.1
aF5.5
aF11.3
asS'YGR062C'
p3719
(lp3720
F4.6
aF4.6
aF3.4
aF9.7
asS'YER010C'
p3721
(lp3722
F3.6
aF11.1
aF7.9
aF15.8
asS'YBR078W'
p3723
(lp3724
F3.6
aF32.8
aF24.7
aF40.9
asS'YGL127C'
p3725
(lp3726
F4.1
aF5.5
aF4.5
aF9.0
asS'YBR030W'
p3727
(lp3728
F1.8
aF3.3
aF3.1
aF4.6
asS'YLR440C'
p3729
(lp3730
F4.4
aF8.6
aF6.5
aF17.9
asS'YDL133W'
p3731
(lp3732
F4.0
aF5.1
aF4.5
aF9.5
asS'YJL019W'
p3733
(lp3734
F3.6
aF6.6
aF5.2
aF9.5
asS'YPR021C'
p3735
(lp3736
F4.5
aF8.8
aF6.1
aF17.9
asS'YGR244C'
p3737
(lp3738
F11.9
aF53.1
aF33.6
aF101.7
asS'YOR286W'
p3739
(lp3740
F4.1
aF7.6
aF5.8
aF10.6
asS'YKR037C'
p3741
(lp3742
F3.2
aF4.3
aF3.7
aF6.4
asS'YDR496C'
p3743
(lp3744
F1.0
aF2.9
aF2.7
aF4.1
asS'YLR099C'
p3745
(lp3746
F2.2
aF3.5
aF3.3
aF4.7
asS'YOR149C'
p3747
(lp3748
F1.9
aF3.5
aF3.2
aF5.1
asS'YOR074C'
p3749
(lp3750
F4.3
aF12.8
aF10.8
aF16.0
asS'YOR298C-A'
p3751
(lp3752
F8.6
aF28.4
aF15.9
aF51.4
asS'YML032C'
p3753
(lp3754
F7.3
aF9.0
aF6.0
aF18.0
asS'YLR146C'
p3755
(lp3756
F1.2
aF2.1
aF2.0
aF2.7
asS'YDR240C'
p3757
(lp3758
F1.3
aF3.4
aF3.1
aF4.9
asS'YHR135C'
p3759
(lp3760
F3.4
aF5.7
aF5.1
aF8.7
asS'YDR429C'
p3761
(lp3762
F2.3
aF4.9
aF4.3
aF6.7
asS'YHR079C'
p3763
(lp3764
F4.9
aF7.8
aF6.8
aF12.9
asS'YDL035C'
p3765
(lp3766
F4.8
aF8.0
aF6.0
aF16.2
asS'YML010W'
p3767
(lp3768
F2.5
aF30.6
aF16.2
aF67.1
asS'YDL193W'
p3769
(lp3770
F29.9
aF41.0
aF19.9
aF102.7
asS'YER074W'
p3771
(lp3772
F4.8
aF30.1
aF23.9
aF40.5
asS'YER021W'
p3773
(lp3774
F6.6
aF12.6
aF8.5
aF22.1
asS'YBR052C'
p3775
(lp3776
F9.3
aF20.6
aF13.7
aF35.2
asS'YER134C'
p3777
(lp3778
F4.8
aF9.2
aF6.7
aF17.1
asS'YEL052W'
p3779
(lp3780
F3.4
aF6.2
aF5.4
aF8.3
asS'YMR162C'
p3781
(lp3782
F8.3
aF22.0
aF14.3
aF30.9
asS'YEL009C'
p3783
(lp3784
F2.6
aF11.2
aF9.0
aF16.0
asS'YER161C'
p3785
(lp3786
F4.0
aF6.8
aF5.6
aF11.7
asS'YBR083W'
p3787
(lp3788
F10.3
aF13.1
aF8.5
aF21.5
asS'YHR103W'
p3789
(lp3790
F3.7
aF7.3
aF5.8
aF12.7
asS'YOR001W'
p3791
(lp3792
F1.9
aF4.2
aF3.9
aF5.6
asS'YNL047C'
p3793
(lp3794
F4.0
aF6.4
aF4.7
aF10.3
asS'YDR498C'
p3795
(lp3796
F5.4
aF6.7
aF5.7
aF9.5
asS'YNL240C'
p3797
(lp3798
F4.3
aF6.9
aF6.3
aF8.8
asS'YOR257W'
p3799
(lp3800
F10.4
aF14.0
aF7.9
aF22.8
asS'YGR002C'
p3801
(lp3802
F6.9
aF8.6
aF6.4
aF13.4
asS'YEL041W'
p3803
(lp3804
F8.1
aF13.2
aF9.7
aF20.2
asS'YER129W'
p3805
(lp3806
F4.4
aF4.7
aF4.1
aF7.9
asS'YBR058C-A'
p3807
(lp3808
F5.2
aF11.3
aF9.0
aF16.5
asS'YOL113W'
p3809
(lp3810
F4.0
aF4.9
aF4.3
aF8.5
asS'YGR253C'
p3811
(lp3812
F4.6
aF12.5
aF9.0
aF17.1
asS'YDR510W'
p3813
(lp3814
F5.3
aF11.3
aF9.6
aF16.1
asS'YKR082W'
p3815
(lp3816
F2.4
aF24.6
aF13.8
aF46.5
asS'YLR228C'
p3817
(lp3818
F3.9
aF6.8
aF5.9
aF10.7
asS'YHR129C'
p3819
(lp3820
F2.0
aF5.4
aF4.3
aF10.5
asS'YLR019W'
p3821
(lp3822
F4.6
aF5.3
aF4.6
aF8.2
asS'YCR079W'
p3823
(lp3824
F3.9
aF5.3
aF4.3
aF8.1
asS'YPR045C'
p3825
(lp3826
F7.9
aF21.5
aF13.7
aF31.6
asS'YER058W'
p3827
(lp3828
F4.6
aF6.6
aF5.1
aF10.2
asS'YPR010C'
p3829
(lp3830
F1.7
aF8.9
aF7.1
aF12.0
asS'YLR148W'
p3831
(lp3832
F4.1
aF32.5
aF17.0
aF63.0
asS'YMR137C'
p3833
(lp3834
F3.9
aF7.5
aF5.3
aF14.8
asS'YDR164C'
p3835
(lp3836
F2.5
aF7.3
aF5.6
aF12.1
asS'YDL082W'
p3837
(lp3838
F2.6
aF8.1
aF7.1
aF10.6
asS'YKL155C'
p3839
(lp3840
F1.0
aF3.2
aF3.0
aF4.9
asS'YJR069C'
p3841
(lp3842
F1.9
aF4.4
aF4.0
aF6.4
asS'YBR162W-A'
p3843
(lp3844
F4.5
aF13.0
aF10.1
aF16.9
asS'YGR145W'
p3845
(lp3846
F2.3
aF6.2
aF5.6
aF8.1
asS'YKR055W'
p3847
(lp3848
F2.6
aF4.2
aF3.9
aF5.3
asS'YPL081W'
p3849
(lp3850
F1.2
aF2.3
aF2.1
aF3.0
asS'YOR280C'
p3851
(lp3852
F5.9
aF14.9
aF11.5
aF20.3
asS'YGR085C'
p3853
(lp3854
F3.1
aF12.5
aF10.4
aF16.3
asS'YHL028W'
p3855
(lp3856
F5.0
aF9.1
aF6.1
aF15.0
asS'YDR148C'
p3857
(lp3858
F4.4
aF17.1
aF12.2
aF25.1
asS'YPL181W'
p3859
(lp3860
F4.4
aF6.9
aF5.4
aF11.5
asS'YJR034W'
p3861
(lp3862
F2.7
aF5.3
aF4.3
aF7.9
asS'YLR121C'
p3863
(lp3864
F3.3
aF6.7
aF5.7
aF9.5
asS'YDL045W-A'
p3865
(lp3866
F4.2
aF6.0
aF5.1
aF9.4
asS'YOR003W'
p3867
(lp3868
F10.7
aF31.2
aF20.9
aF49.6
asS'YLR210W'
p3869
(lp3870
F4.1
aF6.7
aF5.4
aF11.9
asS'YPL096W'
p3871
(lp3872
F3.8
aF6.6
aF4.8
aF9.8
asS'YNL026W'
p3873
(lp3874
F4.0
aF7.3
aF5.7
aF11.8
asS'YIL042C'
p3875
(lp3876
F4.2
aF7.8
aF5.9
aF11.5
asS'YPR141C'
p3877
(lp3878
F2.4
aF2.7
aF2.6
aF4.6
asS'YHR081W'
p3879
(lp3880
F2.7
aF4.4
aF4.0
aF6.0
asS'YER105C'
p3881
(lp3882
F4.9
aF56.8
aF28.0
aF121.4
asS'YGR206W'
p3883
(lp3884
F4.5
aF11.5
aF7.4
aF21.0
asS'YMR039C'
p3885
(lp3886
F3.2
aF4.9
aF4.3
aF6.8
asS'YPR036W-A'
p3887
(lp3888
F4.6
aF5.6
aF5.2
aF8.2
asS'YGR154C'
p3889
(lp3890
F4.9
aF7.2
aF5.5
aF13.2
asS'YHR181W'
p3891
(lp3892
F3.6
aF7.1
aF5.4
aF10.4
asS'YOR107W'
p3893
(lp3894
F4.4
aF4.4
aF3.9
aF7.6
asS'YDL179W'
p3895
(lp3896
F2.6
aF4.8
aF3.6
aF7.8
asS'YDR211W'
p3897
(lp3898
F2.5
aF8.2
aF6.7
aF15.0
asS'YOR125C'
p3899
(lp3900
F5.3
aF10.6
aF8.1
aF15.2
asS'YMR128W'
p3901
(lp3902
F2.9
aF19.2
aF15.3
aF24.1
asS'YLL011W'
p3903
(lp3904
F0.7
aF1.4
aF1.4
aF1.9
asS'YCR077C'
p3905
(lp3906
F2.7
aF6.4
aF5.6
aF11.4
asS'YOR047C'
p3907
(lp3908
F4.5
aF7.4
aF5.8
aF13.3
asS'YJL029C'
p3909
(lp3910
F4.8
aF6.5
aF5.5
aF12.0
asS'YER056C'
p3911
(lp3912
F0.7
aF1.4
aF1.4
aF1.9
asS'YMR157C'
p3913
(lp3914
F3.9
aF5.7
aF4.9
aF9.0
asS'YJL033W'
p3915
(lp3916
F2.1
aF6.9
aF5.3
aF9.9
asS'YER036C'
p3917
(lp3918
F3.2
aF10.1
aF8.0
aF16.3
asS'YLR417W'
p3919
(lp3920
F3.4
aF7.8
aF6.4
aF13.9
asS'YNL306W'
p3921
(lp3922
F4.0
aF6.8
aF5.4
aF10.2
asS'YML075C'
p3923
(lp3924
F2.7
aF6.0
aF5.2
aF8.1
asS'YCR017C'
p3925
(lp3926
F4.0
aF10.1
aF8.0
aF14.7
asS'YDR237W'
p3927
(lp3928
F3.6
aF5.3
aF4.7
aF8.6
asS'YDR060W'
p3929
(lp3930
F1.9
aF7.6
aF6.3
aF11.9
asS'YBL072C'
p3931
(lp3932
F4.7
aF20.5
aF15.9
aF26.3
asS'YOR182C'
p3933
(lp3934
F4.5
aF23.4
aF15.9
aF40.9
asS'YMR080C'
p3935
(lp3936
F2.4
aF5.6
aF4.6
aF11.4
asS'YPR144C'
p3937
(lp3938
F1.9
aF3.6
aF3.5
aF4.7
asS'YGL187C'
p3939
(lp3940
F3.5
aF7.0
aF5.5
aF9.8
asS'YMR193W'
p3941
(lp3942
F4.9
aF4.8
aF4.2
aF8.6
asS'YBR001C'
p3943
(lp3944
F17.8
aF40.1
aF21.6
aF141.8
asS'YNL246W'
p3945
(lp3946
F3.7
aF8.5
aF7.5
aF11.4
asS'YOR315W'
p3947
(lp3948
F1.3
aF2.4
aF2.1
aF3.7
asS'YGL025C'
p3949
(lp3950
F3.5
aF3.9
aF3.3
aF6.2
asS'YHR196W'
p3951
(lp3952
F1.1
aF2.4
aF2.2
aF3.7
asS'YHR040W'
p3953
(lp3954
F1.7
aF2.9
aF2.8
aF3.9
asS'YMR048W'
p3955
(lp3956
F3.8
aF5.5
aF4.8
aF7.1
asS'YDR277C'
p3957
(lp3958
F9.8
aF8.2
aF6.5
aF14.4
asS'YPR067W'
p3959
(lp3960
F3.9
aF4.7
aF3.9
aF9.8
asS'YML092C'
p3961
(lp3962
F3.8
aF5.6
aF4.9
aF8.2
asS'YOR167C'
p3963
(lp3964
F6.2
aF36.8
aF26.5
aF54.9
asS'YPR007C'
p3965
(lp3966
F3.5
aF5.4
aF3.5
aF9.8
asS'YML025C'
p3967
(lp3968
F4.1
aF5.1
aF4.4
aF9.5
asS'YDL124W'
p3969
(lp3970
F9.6
aF22.3
aF15.6
aF31.8
asS'YPR107C'
p3971
(lp3972
F8.7
aF19.7
aF10.8
aF35.5
asS'YJR074W'
p3973
(lp3974
F3.7
aF11.0
aF9.1
aF14.9
asS'YPR127W'
p3975
(lp3976
F4.4
aF11.7
aF8.9
aF16.0
asS'YGR266W'
p3977
(lp3978
F8.5
aF34.8
aF25.4
aF46.6
asS'YDL148C'
p3979
(lp3980
F1.8
aF4.5
aF4.1
aF6.1
asS'YJL167W'
p3981
(lp3982
F8.4
aF48.1
aF35.2
aF67.9
asS'YPL076W'
p3983
(lp3984
F6.7
aF12.2
aF8.1
aF20.6
asS'YAL012W'
p3985
(lp3986
F5.5
aF55.9
aF37.9
aF85.2
asS'YHR163W'
p3987
(lp3988
F6.2
aF17.5
aF12.9
aF24.7
asS'YJR134C'
p3989
(lp3990
F2.3
aF5.2
aF4.5
aF7.4
asS'YMR288W'
p3991
(lp3992
F1.9
aF4.6
aF4.2
aF6.0
asS'YNR061C'
p3993
(lp3994
F2.4
aF5.4
aF4.7
aF7.5
asS'YIL156W'
p3995
(lp3996
F3.6
aF7.4
aF5.2
aF13.5
asS'YPL196W'
p3997
(lp3998
F11.4
aF19.9
aF12.6
aF32.4
asS'YHR100C'
p3999
(lp4000
F2.7
aF7.3
aF6.0
aF11.7
asS'YDL226C'
p4001
(lp4002
F2.7
aF6.3
aF5.1
aF9.1
asS'YNR017W'
p4003
(lp4004
F2.7
aF3.3
aF3.1
aF4.5
asS'YKL059C'
p4005
(lp4006
F3.7
aF5.1
aF4.1
aF8.8
asS'YGL092W'
p4007
(lp4008
F2.3
aF13.1
aF8.0
aF23.8
asS'YAL049C'
p4009
(lp4010
F6.6
aF25.2
aF18.5
aF40.6
asS'YKL006W'
p4011
(lp4012
F2.8
aF12.4
aF10.1
aF15.5
asS'YNL097C'
p4013
(lp4014
F5.0
aF8.0
aF6.8
aF11.1
asS'YOR008C'
p4015
(lp4016
F6.5
aF10.7
aF8.4
aF14.2
asS'YOR153W'
p4017
(lp4018
F2.9
aF42.4
aF26.8
aF65.8
asS'YDR513W'
p4019
(lp4020
F12.0
aF20.5
aF14.6
aF34.0
asS'YKL084W'
p4021
(lp4022
F6.0
aF11.1
aF7.2
aF18.1
asS'YDR099W'
p4023
(lp4024
F6.1
aF29.4
aF21.8
aF37.7
asS'YBR121C'
p4025
(lp4026
F3.8
aF33.5
aF25.1
aF43.6
asS'YLR229C'
p4027
(lp4028
F3.9
aF9.3
aF7.5
aF11.5
asS'YJR052W'
p4029
(lp4030
F2.5
aF4.8
aF4.3
aF7.0
asS'YKL188C'
p4031
(lp4032
F11.5
aF46.2
aF29.8
aF91.9
asS'YMR062C'
p4033
(lp4034
F3.5
aF8.1
aF7.4
aF9.6
asS'YLR292C'
p4035
(lp4036
F4.5
aF10.5
aF7.9
aF15.6
asS'YKL020C'
p4037
(lp4038
F10.5
aF17.8
aF10.7
aF31.2
asS'YAL007C'
p4039
(lp4040
F4.0
aF10.1
aF8.2
aF13.8
asS'YHR170W'
p4041
(lp4042
F1.7
aF3.6
aF3.4
aF4.6
asS'YJL125C'
p4043
(lp4044
F1.0
aF1.8
aF1.8
aF2.5
asS'YLR312W-A'
p4045
(lp4046
F2.5
aF3.6
aF3.4
aF5.0
asS'YBL090W'
p4047
(lp4048
F2.7
aF3.7
aF3.3
aF5.3
asS'YAL063C'
p4049
(lp4050
F4.1
aF11.0
aF8.0
aF16.3
asS'YKL068W'
p4051
(lp4052
F2.0
aF3.8
aF3.3
aF7.2
asS'YDL166C'
p4053
(lp4054
F1.8
aF2.8
aF2.6
aF3.6
asS'YDR260C'
p4055
(lp4056
F3.5
aF7.6
aF6.0
aF12.8
asS'YKL142W'
p4057
(lp4058
F15.2
aF36.3
aF22.4
aF72.5
asS'YPL049C'
p4059
(lp4060
F2.7
aF4.5
aF4.1
aF6.3
asS'YNL031C'
p4061
(lp4062
F2.3
aF5.3
aF4.7
aF6.8
asS'YOR110W'
p4063
(lp4064
F3.9
aF6.5
aF5.4
aF9.8
asS'YLR045C'
p4065
(lp4066
F3.9
aF8.6
aF6.5
aF13.2
asS'YER081W'
p4067
(lp4068
F3.6
aF52.8
aF29.8
aF107.1
asS'YNL241C'
p4069
(lp4070
F3.3
aF8.2
aF6.7
aF11.9
asS'YPR041W'
p4071
(lp4072
F2.1
aF3.9
aF3.4
aF6.8
asS'YDR373W'
p4073
(lp4074
F4.7
aF14.3
aF10.3
aF22.1
asS'YGR233C'
p4075
(lp4076
F2.1
aF5.1
aF4.4
aF8.1
asS'YDR322W'
p4077
(lp4078
F2.2
aF3.6
aF3.4
aF4.9
asS'YOL111C'
p4079
(lp4080
F10.4
aF16.5
aF10.9
aF25.2
asS'YDR004W'
p4081
(lp4082
F6.5
aF22.7
aF13.9
aF52.1
asS'YGL227W'
p4083
(lp4084
F8.4
aF20.5
aF13.8
aF32.7
asS'YOR350C'
p4085
(lp4086
F2.3
aF4.7
aF3.9
aF8.6
asS'YFR011C'
p4087
(lp4088
F2.4
aF4.1
aF3.6
aF5.8
asS'YIL074C'
p4089
(lp4090
F2.5
aF6.0
aF5.1
aF9.0
asS'YMR312W'
p4091
(lp4092
F2.6
aF8.6
aF6.9
aF12.5
asS'YOL144W'
p4093
(lp4094
F3.0
aF5.2
aF4.9
aF6.7
asS'YMR297W'
p4095
(lp4096
F12.2
aF53.9
aF34.0
aF166.0
asS'YIL021W'
p4097
(lp4098
F2.3
aF3.9
aF3.3
aF7.7
asS'YCL016C'
p4099
(lp4100
F1.9
aF2.9
aF2.7
aF4.4
asS'YHR039C'
p4101
(lp4102
F2.8
aF7.6
aF6.2
aF12.2
asS'YBR274W'
p4103
(lp4104
F2.2
aF4.4
aF3.7
aF6.2
asS'YGL178W'
p4105
(lp4106
F20.4
aF51.4
aF27.7
aF121.1
asS'YBR070C'
p4107
(lp4108
F4.5
aF5.7
aF4.9
aF7.7
asS'YGR036C'
p4109
(lp4110
F2.6
aF5.7
aF4.7
aF8.0
asS'YGR118W'
p4111
(lp4112
F3.7
aF16.6
aF13.8
aF19.9
asS'YGR121C'
p4113
(lp4114
F2.8
aF5.7
aF4.8
aF8.5
asS'YDR536W'
p4115
(lp4116
F2.6
aF7.7
aF5.9
aF12.7
asS'YGL065C'
p4117
(lp4118
F3.3
aF8.1
aF6.3
aF11.4
asS'YKR087C'
p4119
(lp4120
F6.4
aF14.5
aF8.8
aF23.5
asS'YDR180W'
p4121
(lp4122
F2.8
aF7.9
aF6.0
aF11.8
asS'YOL120C'
p4123
(lp4124
F4.6
aF27.6
aF21.7
aF38.1
asS'YHR099W'
p4125
(lp4126
F15.4
aF22.0
aF14.8
aF35.6
asS'YLR243W'
p4127
(lp4128
F2.5
aF5.2
aF4.5
aF8.4
asS'YAL001C'
p4129
(lp4130
F2.7
aF10.8
aF7.8
aF19.0
asS'YIR005W'
p4131
(lp4132
F3.9
aF5.3
aF4.4
aF9.7
asS'YIL036W'
p4133
(lp4134
F7.5
aF12.3
aF7.1
aF21.0
asS'YPL047W'
p4135
(lp4136
F2.8
aF3.5
aF3.0
aF5.2
asS'YOL051W'
p4137
(lp4138
F4.1
aF12.3
aF8.1
aF21.8
asS'YMR135C'
p4139
(lp4140
F6.4
aF10.3
aF6.0
aF17.4
asS'YPL236C'
p4141
(lp4142
F7.4
aF10.1
aF6.9
aF15.3
asS'YHR155W'
p4143
(lp4144
F13.8
aF33.3
aF18.8
aF57.4
asS'YOR045W'
p4145
(lp4146
F2.6
aF5.8
aF5.2
aF7.9
asS'YEL003W'
p4147
(lp4148
F3.6
aF9.6
aF7.4
aF14.3
asS'YJR112W'
p4149
(lp4150
F2.3
aF2.2
aF2.0
aF3.7
asS'YBR252W'
p4151
(lp4152
F3.3
aF6.9
aF5.7
aF8.9
asS'YGR116W'
p4153
(lp4154
F4.4
aF38.4
aF23.5
aF62.2
asS'YPL012W'
p4155
(lp4156
F1.6
aF17.4
aF10.3
aF27.8
asS'YMR086W'
p4157
(lp4158
F2.8
aF6.1
aF5.1
aF11.2
asS'YPL183W-A'
p4159
(lp4160
F2.5
aF3.3
aF3.1
aF5.4
asS'YIL158W'
p4161
(lp4162
F2.1
aF2.1
aF2.1
aF2.7
asS'YJR054W'
p4163
(lp4164
F2.4
aF5.1
aF4.3
aF8.0
asS'YIL069C'
p4165
(lp4166
F1.9
aF6.3
aF5.2
aF8.8
asS'YJR083C'
p4167
(lp4168
F4.3
aF5.9
aF5.0
aF9.3
asS'YOL159C'
p4169
(lp4170
F3.9
aF6.8
aF5.0
aF12.8
asS'YAL030W'
p4171
(lp4172
F12.4
aF28.5
aF15.9
aF53.9
asS'YGL147C'
p4173
(lp4174
F2.9
aF22.0
aF16.6
aF26.0
asS'YBR263W'
p4175
(lp4176
F5.5
aF54.3
aF37.1
aF98.0
asS'YMR305C'
p4177
(lp4178
F1.9
aF4.5
aF3.9
aF5.9
asS'YBL001C'
p4179
(lp4180
F7.1
aF37.0
aF25.7
aF60.5
asS'YBR185C'
p4181
(lp4182
F2.6
aF3.9
aF3.4
aF5.4
asS'YGR177C'
p4183
(lp4184
F1.2
aF3.6
aF3.2
aF5.6
asS'YDR019C'
p4185
(lp4186
F2.2
aF6.3
aF4.9
aF11.5
asS'YGR150C'
p4187
(lp4188
F1.8
aF2.7
aF2.6
aF4.4
asS'YJR133W'
p4189
(lp4190
F4.4
aF10.4
aF6.4
aF18.2
asS'YDR224C'
p4191
(lp4192
F1.9
aF3.8
aF3.4
aF5.4
asS'YEL055C'
p4193
(lp4194
F3.0
aF34.0
aF19.0
aF64.5
asS'YER119C'
p4195
(lp4196
F7.5
aF27.4
aF20.8
aF40.7
asS'YGR058W'
p4197
(lp4198
F2.2
aF3.8
aF3.4
aF6.6
asS'YDR381C-A'
p4199
(lp4200
F4.2
aF4.6
aF4.0
aF6.9
asS'YML013W'
p4201
(lp4202
F3.8
aF16.0
aF13.2
aF22.6
asS'YNL207W'
p4203
(lp4204
F2.3
aF4.9
aF4.5
aF6.6
asS'YDR499W'
p4205
(lp4206
F4.9
aF6.6
aF5.1
aF14.4
asS'YLR029C'
p4207
(lp4208
F3.9
aF28.5
aF22.0
aF36.3
asS'YKL141W'
p4209
(lp4210
F6.3
aF11.3
aF9.1
aF15.1
asS'YOR210W'
p4211
(lp4212
F3.0
aF8.5
aF6.7
aF14.7
asS'YJR022W'
p4213
(lp4214
F2.2
aF4.3
aF3.1
aF7.1
asS'YOL008W'
p4215
(lp4216
F3.7
aF6.7
aF5.0
aF9.9
asS'YNL224C'
p4217
(lp4218
F3.5
aF6.9
aF5.3
aF12.3
asS'YGL246C'
p4219
(lp4220
F1.8
aF3.7
aF3.2
aF7.5
asS'YBR089C-A'
p4221
(lp4222
F2.2
aF4.1
aF3.8
aF5.2
asS'YCR054C'
p4223
(lp4224
F1.9
aF3.7
aF3.3
aF6.7
asS'YDR045C'
p4225
(lp4226
F2.3
aF3.2
aF3.0
aF4.3
asS'YPL232W'
p4227
(lp4228
F3.2
aF7.1
aF6.1
aF9.8
asS'YKR083C'
p4229
(lp4230
F2.6
aF4.4
aF3.9
aF7.6
asS'YEL017W'
p4231
(lp4232
F4.0
aF5.6
aF5.1
aF7.3
asS'YDL003W'
p4233
(lp4234
F2.4
aF3.7
aF3.1
aF6.8
asS'YER128W'
p4235
(lp4236
F2.7
aF3.2
aF3.0
aF4.6
asS'YJR123W'
p4237
(lp4238
F3.3
aF16.1
aF13.0
aF19.3
asS'YDL078C'
p4239
(lp4240
F4.1
aF8.6
aF7.6
aF10.6
asS'YGR003W'
p4241
(lp4242
F3.4
aF6.4
aF4.8
aF10.5
asS'YDR517W'
p4243
(lp4244
F6.2
aF13.9
aF11.3
aF18.0
asS'YGL043W'
p4245
(lp4246
F4.0
aF8.1
aF6.3
aF14.3
asS'YOR256C'
p4247
(lp4248
F7.0
aF12.1
aF8.4
aF19.2
asS'YPR011C'
p4249
(lp4250
F4.2
aF5.7
aF5.2
aF8.3
asS'YDR110W'
p4251
(lp4252
F3.9
aF6.7
aF4.9
aF13.5
asS'YLR061W'
p4253
(lp4254
F4.5
aF26.8
aF19.2
aF38.7
asS'YKL214C'
p4255
(lp4256
F2.1
aF4.2
aF3.9
aF5.8
asS'YOL088C'
p4257
(lp4258
F11.5
aF13.5
aF9.8
aF21.7
asS'YDR419W'
p4259
(lp4260
F1.3
aF2.2
aF2.1
aF3.2
asS'YOR361C'
p4261
(lp4262
F3.6
aF30.0
aF18.5
aF48.9
asS'YGL113W'
p4263
(lp4264
F1.0
aF2.8
aF2.4
aF4.7
asS'YKR095W'
p4265
(lp4266
F4.6
aF26.4
aF16.2
aF38.8
asS'YMR223W'
p4267
(lp4268
F2.2
aF3.9
aF3.4
aF6.8
asS'YPL214C'
p4269
(lp4270
F4.4
aF17.5
aF10.3
aF29.3
asS'YGR029W'
p4271
(lp4272
F3.5
aF9.1
aF7.0
aF13.1
asS'YFL034C-A'
p4273
(lp4274
F1.4
aF3.0
aF2.8
aF4.0
asS'YOL064C'
p4275
(lp4276
F2.4
aF5.5
aF4.4
aF8.2
asS'YLR154C'
p4277
(lp4278
F4.9
aF8.0
aF6.5
aF10.9
asS'YBL023C'
p4279
(lp4280
F2.6
aF6.5
aF5.4
aF11.0
asS'YNR010W'
p4281
(lp4282
F15.0
aF21.3
aF13.5
aF35.6
asS'YML067C'
p4283
(lp4284
F4.5
aF11.0
aF9.7
aF14.0
asS'YGL078C'
p4285
(lp4286
F1.6
aF4.0
aF3.6
aF5.4
asS'YNL079C'
p4287
(lp4288
F8.0
aF30.8
aF21.9
aF50.9
asS'YDR435C'
p4289
(lp4290
F4.1
aF6.8
aF5.9
aF8.3
asS'YIL098C'
p4291
(lp4292
F4.8
aF8.2
aF6.8
aF10.9
asS'YLR005W'
p4293
(lp4294
F3.3
aF6.3
aF5.3
aF10.5
asS'YLL027W'
p4295
(lp4296
F3.9
aF5.2
aF4.2
aF7.8
asS'YMR188C'
p4297
(lp4298
F4.5
aF4.0
aF3.5
aF8.5
asS'YOR253W'
p4299
(lp4300
F3.5
aF29.9
aF22.7
aF46.6
asS'YCL001W'
p4301
(lp4302
F3.4
aF6.8
aF6.1
aF8.5
asS'YGR198W'
p4303
(lp4304
F5.3
aF18.7
aF12.7
aF27.7
asS'YKL189W'
p4305
(lp4306
F4.2
aF9.7
aF6.8
aF15.3
asS'YAR007C'
p4307
(lp4308
F6.9
aF10.2
aF7.1
aF19.8
asS'YPL254W'
p4309
(lp4310
F1.1
aF3.6
aF3.3
aF6.3
asS'YGR010W'
p4311
(lp4312
F3.8
aF9.2
aF8.1
aF12.3
asS'YML064C'
p4313
(lp4314
F3.5
aF3.0
aF2.8
aF4.9
asS'YKR091W'
p4315
(lp4316
F2.7
aF3.3
aF3.1
aF5.4
asS'YER055C'
p4317
(lp4318
F3.2
aF5.5
aF5.0
aF7.0
asS'YNL307C'
p4319
(lp4320
F4.5
aF7.8
aF6.3
aF12.3
asS'YLL012W'
p4321
(lp4322
F1.4
aF2.8
aF2.7
aF4.0
asS'YCL052C'
p4323
(lp4324
F8.9
aF14.1
aF10.3
aF21.7
asS'YLR438W'
p4325
(lp4326
F10.5
aF47.3
aF32.4
aF139.9
asS'YMR056C'
p4327
(lp4328
F2.2
aF3.7
aF3.1
aF6.8
asS'YLR087C'
p4329
(lp4330
F6.6
aF10.2
aF7.9
aF15.8
asS'YJL044C'
p4331
(lp4332
F3.7
aF5.4
aF4.6
aF8.5
asS'YMR154C'
p4333
(lp4334
F7.0
aF56.3
aF26.9
aF181.6
asS'YCR094W'
p4335
(lp4336
F3.8
aF5.4
aF4.6
aF8.7
asS'YGL186C'
p4337
(lp4338
F2.6
aF5.9
aF4.7
aF10.0
asS'YDR234W'
p4339
(lp4340
F2.3
aF12.2
aF9.7
aF16.3
asS'YER039C'
p4341
(lp4342
F6.8
aF5.3
aF4.6
aF9.3
asS'YMR081C'
p4343
(lp4344
F10.5
aF16.5
aF11.8
aF24.0
asS'YIR029W'
p4345
(lp4346
F4.4
aF10.1
aF5.9
aF17.7
asS'YKR049C'
p4347
(lp4348
F9.2
aF32.3
aF22.6
aF60.4
asS'YHR195W'
p4349
(lp4350
F6.7
aF10.1
aF7.7
aF14.2
asS'YGR267C'
p4351
(lp4352
F7.6
aF15.7
aF11.6
aF23.1
asS'YDL149W'
p4353
(lp4354
F9.0
aF15.0
aF9.2
aF26.8
asS'YDL125C'
p4355
(lp4356
F4.2
aF15.0
aF11.9
aF20.0
asS'YPR006C'
p4357
(lp4358
F7.2
aF21.5
aF14.5
aF34.6
asS'YML026C'
p4359
(lp4360
F3.0
aF8.8
aF7.4
aF11.7
asS'YPL002C'
p4361
(lp4362
F5.1
aF13.4
aF9.0
aF21.6
asS'YGL022W'
p4363
(lp4364
F4.6
aF12.0
aF9.8
aF15.9
asS'YKL017C'
p4365
(lp4366
F2.1
aF3.8
aF3.5
aF5.2
asS'YMR049C'
p4367
(lp4368
F2.1
aF9.3
aF7.9
aF13.3
asS'YDR229W'
p4369
(lp4370
F4.7
aF6.7
aF5.8
aF9.5
asS'YJR075W'
p4371
(lp4372
F3.6
aF7.8
aF6.7
aF10.8
asS'YPR124W'
p4373
(lp4374
F2.5
aF5.3
aF4.5
aF9.9
asS'YLL029W'
p4375
(lp4376
F6.2
aF13.3
aF9.4
aF21.5
asS'YOR344C'
p4377
(lp4378
F8.3
aF25.3
aF14.9
aF45.8
asS'YGR285C'
p4379
(lp4380
F6.6
aF56.4
aF33.7
aF101.2
asS'YNL232W'
p4381
(lp4382
F2.2
aF4.2
aF3.5
aF6.4
asS'YDR374W-A'
p4383
(lp4384
F4.3
aF9.0
aF6.9
aF11.4
asS'YER017C'
p4385
(lp4386
F4.1
aF6.1
aF4.6
aF10.3
asS'YMR214W'
p4387
(lp4388
F4.3
aF16.6
aF9.4
aF31.9
asS'YBR079C'
p4389
(lp4390
F3.0
aF31.3
aF19.7
aF46.7
asS'YER177W'
p4391
(lp4392
F7.8
aF15.5
aF12.3
aF18.2
asS'YDR500C'
p4393
(lp4394
F5.7
aF29.2
aF22.8
aF38.4
asS'YGL032C'
p4395
(lp4396
F3.8
aF6.8
aF5.1
aF10.1
asS'YMR176W'
p4397
(lp4398
F3.7
aF10.6
aF7.3
aF21.7
asS'YCL063W'
p4399
(lp4400
F2.3
aF2.3
aF2.1
aF3.9
asS'YER048C'
p4401
(lp4402
F5.3
aF16.9
aF12.8
aF21.9
asS'YEL019C'
p4403
(lp4404
F1.7
aF1.4
aF1.3
aF2.2
asS'YML048W'
p4405
(lp4406
F3.3
aF6.4
aF5.8
aF8.1
asS'YNL112W'
p4407
(lp4408
F2.1
aF5.4
aF4.8
aF9.2
asS'YLR027C'
p4409
(lp4410
F3.6
aF12.3
aF9.8
aF16.5
asS'YBR031W'
p4411
(lp4412
F3.1
aF12.8
aF10.1
aF16.9
asS'YLL005C'
p4413
(lp4414
F11.3
aF37.8
aF21.1
aF127.8
asS'YGR245C'
p4415
(lp4416
F2.2
aF6.9
aF6.1
aF8.7
asS'YNL162W'
p4417
(lp4418
F4.2
aF22.0
aF16.1
aF31.1
asS'YPL243W'
p4419
(lp4420
F2.3
aF3.8
aF3.4
aF5.9
asS'YDR497C'
p4421
(lp4422
F2.8
aF6.1
aF5.6
aF7.9
asS'YDL025C'
p4423
(lp4424
F11.2
aF20.5
aF12.4
aF37.7
asS'YGR229C'
p4425
(lp4426
F2.1
aF5.0
aF4.6
aF6.4
asS'YLR167W'
p4427
(lp4428
F5.1
aF16.0
aF12.6
aF19.5
asS'YMR270C'
p4429
(lp4430
F3.8
aF4.8
aF4.1
aF9.0
asS'YLR293C'
p4431
(lp4432
F4.8
aF22.0
aF17.4
aF30.1
asS'YDL147W'
p4433
(lp4434
F6.6
aF14.8
aF10.0
aF23.1
asS'YJR053W'
p4435
(lp4436
F3.9
aF4.0
aF3.1
aF7.5
asS'YOR360C'
p4437
(lp4438
F3.6
aF4.7
aF4.2
aF8.0
asS'YFL056C'
p4439
(lp4440
F6.6
aF6.7
aF5.4
aF12.9
asS'YBR104W'
p4441
(lp4442
F1.0
aF2.2
aF2.2
aF3.1
asS'YJL171C'
p4443
(lp4444
F3.9
aF13.0
aF9.6
aF18.6
asS'YBL091C'
p4445
(lp4446
F6.1
aF15.7
aF11.1
aF21.5
asS'YOR262W'
p4447
(lp4448
F2.7
aF4.9
aF4.2
aF8.7
asS'YMR063W'
p4449
(lp4450
F1.2
aF3.4
aF3.1
aF5.6
asS'YIR002C'
p4451
(lp4452
F6.6
aF15.2
aF9.7
aF22.5
asS'YKL012W'
p4453
(lp4454
F3.5
aF5.2
aF4.3
aF8.7
asS'YDL167C'
p4455
(lp4456
F1.2
aF2.8
aF2.6
aF4.1
asS'YER082C'
p4457
(lp4458
F3.6
aF10.4
aF8.2
aF16.5
asS'YJL071W'
p4459
(lp4460
F2.5
aF5.0
aF3.8
aF8.9
asS'YKL069W'
p4461
(lp4462
F3.4
aF13.4
aF9.6
aF17.9
asS'YNL310C'
p4463
(lp4464
F3.8
aF8.1
aF6.6
aF11.4
asS'YNL123W'
p4465
(lp4466
F3.6
aF52.2
aF28.5
aF97.3
asS'YMR003W'
p4467
(lp4468
F2.1
aF1.6
aF1.5
aF2.4
asS'YDR372C'
p4469
(lp4470
F6.3
aF19.0
aF13.9
aF27.8
asS'YBR119W'
p4471
(lp4472
F3.6
aF7.1
aF4.8
aF14.0
asS'YLR373C'
p4473
(lp4474
F4.1
aF7.9
aF5.3
aF16.3
asS'YKL092C'
p4475
(lp4476
F6.4
aF9.0
aF6.2
aF15.7
asS'YDR323C'
p4477
(lp4478
F3.5
aF5.0
aF4.0
aF8.1
asS'YDR322C-A'
p4479
(lp4480
F4.0
aF10.5
aF7.8
aF16.8
asS'YJL162C'
p4481
(lp4482
F1.2
aF2.7
aF2.6
aF3.5
asS'YKL198C'
p4483
(lp4484
F4.4
aF8.5
aF6.0
aF18.4
asS'YLR260W'
p4485
(lp4486
F22.3
aF35.7
aF20.4
aF67.7
asS'YDR085C'
p4487
(lp4488
F4.3
aF6.4
aF4.8
aF11.3
asS'YNL032W'
p4489
(lp4490
F2.6
aF4.7
aF4.1
aF7.7
asS'YKL152C'
p4491
(lp4492
F8.7
aF42.6
aF31.9
aF63.8
asS'YJR035W'
p4493
(lp4494
F3.8
aF6.6
aF4.6
aF13.7
asS'YDR350C'
p4495
(lp4496
F4.3
aF5.8
aF4.6
aF10.8
asS'YJL100W'
p4497
(lp4498
F5.0
aF14.0
aF8.6
aF22.1
asS'YPL126W'
p4499
(lp4500
F2.6
aF14.6
aF10.3
aF22.5
asS'YMR129W'
p4501
(lp4502
F1.8
aF4.0
aF3.6
aF6.2
asS'YKR054C'
p4503
(lp4504
F10.0
aF24.0
aF16.8
aF36.5
asS'YMR001C'
p4505
(lp4506
F2.4
aF4.2
aF3.6
aF6.4
asS'YJL006C'
p4507
(lp4508
F1.2
aF1.7
aF1.7
aF2.5
asS'YBL082C'
p4509
(lp4510
F2.5
aF7.5
aF6.9
aF8.6
asS'YDL081C'
p4511
(lp4512
F6.7
aF26.7
aF21.2
aF34.3
asS'YIR034C'
p4513
(lp4514
F4.0
aF21.9
aF17.6
aF27.8
asS'YMR138W'
p4515
(lp4516
F2.3
aF4.2
aF3.7
aF5.5
asS'YDR165W'
p4517
(lp4518
F2.1
aF4.3
aF3.8
aF6.4
asS'YGL013C'
p4519
(lp4520
F3.9
aF10.2
aF6.8
aF18.0
asS'YLR191W'
p4521
(lp4522
F2.2
aF2.7
aF2.6
aF4.9
asS'YJR068W'
p4523
(lp4524
F3.6
aF7.0
aF5.9
aF9.1
asS'YDL178W'
p4525
(lp4526
F2.5
aF5.7
aF5.0
aF8.7
asS'YER095W'
p4527
(lp4528
F6.1
aF19.8
aF12.8
aF36.3
asS'YHR080C'
p4529
(lp4530
F2.9
aF4.8
aF4.3
aF7.2
asS'YML086C'
p4531
(lp4532
F4.1
aF15.0
aF12.5
aF19.8
asS'YKR030W'
p4533
(lp4534
F4.0
aF6.9
aF5.4
aF11.9
asS'YDL207W'
p4535
(lp4536
F2.1
aF3.3
aF3.0
aF4.5
asS'YDR334W'
p4537
(lp4538
F6.5
aF6.9
aF5.6
aF12.0
asS'YPL015C'
p4539
(lp4540
F2.9
aF5.9
aF5.0
aF8.1
asS'YLR211C'
p4541
(lp4542
F3.4
aF5.2
aF4.3
aF7.7
asS'YLR375W'
p4543
(lp4544
F2.3
aF4.9
aF4.2
aF7.8
asS'YDR514C'
p4545
(lp4546
F1.2
aF1.9
aF1.8
aF3.2
asS'YJL066C'
p4547
(lp4548
F11.2
aF21.1
aF12.0
aF38.9
asS'YHR182W'
p4549
(lp4550
F2.2
aF4.9
aF3.8
aF7.0
asS'YNL321W'
p4551
(lp4552
F4.9
aF8.6
aF7.1
aF12.7
asS'YGR091W'
p4553
(lp4554
F3.5
aF5.3
aF3.8
aF9.3
asS'YBR122C'
p4555
(lp4556
F4.3
aF4.6
aF4.1
aF7.0
asS'YHR001W'
p4557
(lp4558
F6.2
aF14.4
aF9.6
aF20.8
asS'YDR477W'
p4559
(lp4560
F3.9
aF6.4
aF5.2
aF12.0
asS'YOL105C'
p4561
(lp4562
F3.7
aF8.4
aF6.6
aF13.2
asS'YBR199W'
p4563
(lp4564
F7.7
aF18.7
aF12.4
aF27.4
asS'YMR088C'
p4565
(lp4566
F3.5
aF7.1
aF6.2
aF10.9
asS'YJR148W'
p4567
(lp4568
F7.2
aF53.0
aF35.8
aF94.0
asS'YBR253W'
p4569
(lp4570
F4.2
aF9.8
aF7.0
aF13.2
asS'YFR029W'
p4571
(lp4572
F2.4
aF4.5
aF3.8
aF6.9
asS'YIL035C'
p4573
(lp4574
F6.1
aF10.5
aF6.5
aF20.8
asS'YIL111W'
p4575
(lp4576
F7.1
aF17.3
aF12.0
aF25.3
asS'YKR094C'
p4577
(lp4578
F2.3
aF7.0
aF5.7
aF9.6
asS'YBR153W'
p4579
(lp4580
F1.1
aF3.5
aF3.1
aF7.0
asS'YJR082C'
p4581
(lp4582
F4.6
aF12.3
aF10.3
aF16.5
asS'YML121W'
p4583
(lp4584
F3.4
aF6.4
aF5.1
aF10.5
asS'YOL087C'
p4585
(lp4586
F5.9
aF10.8
aF8.3
aF16.3
asS'YNL134C'
p4587
(lp4588
F8.2
aF32.2
aF24.6
aF49.8
asS'YJR106W'
p4589
(lp4590
F11.7
aF24.1
aF15.1
aF40.5
asS'YJL084C'
p4591
(lp4592
F9.2
aF18.8
aF12.5
aF28.1
asS'YHR154W'
p4593
(lp4594
F3.2
aF20.9
aF13.3
aF30.6
asS'YOL007C'
p4595
(lp4596
F2.5
aF7.1
aF4.9
aF14.9
asS'YPR134W'
p4597
(lp4598
F2.9
aF3.7
aF3.2
aF5.9
asS'YDR291W'
p4599
(lp4600
F2.1
aF4.4
aF3.8
aF7.1
asS'YBR262C'
p4601
(lp4602
F2.0
aF4.1
aF3.1
aF6.3
asS'YGR041W'
p4603
(lp4604
F2.2
aF4.7
aF3.8
aF7.7
asS'YOL039W'
p4605
(lp4606
F3.9
aF16.7
aF13.3
aF20.6
asS'YLR174W'
p4607
(lp4608
F13.4
aF29.0
aF19.1
aF44.0
asS'YMR289W'
p4609
(lp4610
F2.3
aF4.9
aF4.2
aF6.8
asS'YOL012C'
p4611
(lp4612
F3.3
aF3.7
aF3.5
aF4.9
asS'YAL015C'
p4613
(lp4614
F4.7
aF7.1
aF5.5
aF11.3
asS'YBR240C'
p4615
(lp4616
F3.4
aF6.3
aF5.2
aF9.3
asS'YDL209C'
p4617
(lp4618
F0.9
aF1.8
aF1.7
aF2.4
asS'YKL045W'
p4619
(lp4620
F3.6
aF6.7
aF5.5
aF9.5
asS'YMR239C'
p4621
(lp4622
F1.4
aF3.0
aF2.9
aF4.1
asS'YIL157C'
p4623
(lp4624
F5.9
aF13.5
aF10.9
aF16.6
asS'YLR273C'
p4625
(lp4626
F7.1
aF10.2
aF6.4
aF18.2
asS'YIL051C'
p4627
(lp4628
F8.5
aF27.3
aF21.1
aF35.7
asS'YPL057C'
p4629
(lp4630
F2.7
aF3.6
aF3.1
aF5.2
asS'YNL074C'
p4631
(lp4632
F5.3
aF14.4
aF10.0
aF23.8
asS'YDR365C'
p4633
(lp4634
F2.0
aF4.8
aF4.4
aF6.2
asS'YPL151C'
p4635
(lp4636
F14.1
aF13.8
aF10.0
aF20.1
asS'YKL007W'
p4637
(lp4638
F5.0
aF7.0
aF5.8
aF10.9
asS'YNL169C'
p4639
(lp4640
F2.5
aF3.9
aF3.6
aF5.3
asS'YFR034C'
p4641
(lp4642
F2.0
aF3.4
aF3.1
aF4.5
asS'YKL185W'
p4643
(lp4644
F1.8
aF4.0
aF3.7
aF5.8
asS'YDL225W'
p4645
(lp4646
F2.5
aF5.4
aF4.9
aF8.1
asS'YCL038C'
p4647
(lp4648
F2.8
aF7.4
aF5.1
aF12.9
asS'YHR070W'
p4649
(lp4650
F3.1
aF7.7
aF5.8
aF10.8
asS'YDR460W'
p4651
(lp4652
F4.0
aF5.2
aF4.1
aF9.3
asS'YMR028W'
p4653
(lp4654
F4.3
aF6.7
aF4.9
aF13.5
asS'YOR377W'
p4655
(lp4656
F9.6
aF14.6
aF10.8
aF22.4
asS'YLR364W'
p4657
(lp4658
F4.5
aF9.2
aF6.8
aF16.8
asS'YKL058W'
p4659
(lp4660
F3.9
aF5.1
aF4.5
aF7.6
asS'YKL085W'
p4661
(lp4662
F3.9
aF5.2
aF4.4
aF8.7
asS'YHL047C'
p4663
(lp4664
F4.3
aF8.6
aF7.2
aF13.0
asS'YLR406C'
p4665
(lp4666
F3.2
aF7.4
aF6.3
aF9.6
asS'YOR227W'
p4667
(lp4668
F8.3
aF16.2
aF10.6
aF25.8
asS'YOL089C'
p4669
(lp4670
F7.8
aF12.4
aF8.7
aF20.6
asS'YDR416W'
p4671
(lp4672
F2.1
aF4.8
aF4.1
aF8.8
asS'YPR116W'
p4673
(lp4674
F8.0
aF6.0
aF4.1
aF10.0
asS'YGL129C'
p4675
(lp4676
F3.5
aF5.4
aF4.6
aF7.8
asS'YLR193C'
p4677
(lp4678
F8.3
aF10.8
aF9.0
aF14.5
asS'YHR023W'
p4679
(lp4680
F3.6
aF15.3
aF9.9
aF26.6
asS'YOL065C'
p4681
(lp4682
F3.3
aF6.9
aF5.9
aF10.6
asS'YGL251C'
p4683
(lp4684
F3.9
aF7.1
aF5.8
aF12.4
asS'YBL022C'
p4685
(lp4686
F4.6
aF54.2
aF32.0
aF102.8
asS'YPL215W'
p4687
(lp4688
F3.6
aF4.9
aF4.3
aF8.5
asS'YOL130W'
p4689
(lp4690
F4.0
aF8.8
aF6.0
aF14.5
asS'YDR125C'
p4691
(lp4692
F6.6
aF8.8
aF6.4
aF16.3
asS'YGR013W'
p4693
(lp4694
F3.5
aF6.8
aF5.4
aF9.6
asS'YML103C'
p4695
(lp4696
F5.1
aF42.0
aF26.5
aF66.3
asS'YEL038W'
p4697
(lp4698
F4.6
aF9.5
aF6.2
aF13.7
asS'YCL014W'
p4699
(lp4700
F3.6
aF15.0
aF9.1
aF27.0
asS'YOL025W'
p4701
(lp4702
F4.1
aF7.1
aF5.5
aF10.9
asS'YGL172W'
p4703
(lp4704
F4.4
aF9.9
aF6.8
aF17.2
asS'YGL108C'
p4705
(lp4706
F2.7
aF4.0
aF3.8
aF5.7
asS'YPL040C'
p4707
(lp4708
F2.4
aF4.5
aF4.1
aF6.9
asS'YPL090C'
p4709
(lp4710
F3.7
aF10.8
aF9.3
aF14.3
asS'YLR051C'
p4711
(lp4712
F2.1
aF4.6
aF3.9
aF7.0
asS'YDR388W'
p4713
(lp4714
F10.7
aF44.6
aF31.7
aF78.8
asS'YLR289W'
p4715
(lp4716
F2.4
aF4.4
aF3.4
aF6.8
asS'YLR004C'
p4717
(lp4718
F1.9
aF4.8
aF3.9
aF8.9
asS'YLR306W'
p4719
(lp4720
F5.2
aF6.8
aF5.7
aF11.2
asS'YOL147C'
p4721
(lp4722
F3.4
aF5.8
aF5.2
aF8.0
asS'YNL280C'
p4723
(lp4724
F3.6
aF8.7
aF7.3
aF11.7
asS'YDR007W'
p4725
(lp4726
F5.3
aF12.8
aF10.0
aF16.8
asS'YIL073C'
p4727
(lp4728
F4.2
aF20.8
aF12.0
aF32.3
asS'YOR284W'
p4729
(lp4730
F2.6
aF5.7
aF4.6
aF9.3
asS'YGL220W'
p4731
(lp4732
F4.1
aF9.4
aF7.7
aF12.6
asS'YBR233W'
p4733
(lp4734
F4.6
aF7.6
aF5.6
aF14.0
asS'YPL122C'
p4735
(lp4736
F2.2
aF5.3
aF4.7
aF8.1
asS'YMR295C'
p4737
(lp4738
F3.8
aF11.3
aF8.5
aF15.8
asS'YOR328W'
p4739
(lp4740
F4.0
aF7.7
aF5.3
aF15.0
asS'YGR082W'
p4741
(lp4742
F1.9
aF2.9
aF2.8
aF3.8
asS'YMR291W'
p4743
(lp4744
F3.7
aF5.3
aF4.5
aF10.1
asS'YKL113C'
p4745
(lp4746
F2.0
aF3.2
aF2.9
aF4.9
asS'YHR012W'
p4747
(lp4748
F3.4
aF7.4
aF6.4
aF10.9
asS'YDR436W'
p4749
(lp4750
F4.6
aF8.3
aF6.2
aF12.9
asS'YHL027W'
p4751
(lp4752
F3.7
aF6.6
aF5.1
aF12.3
asS'YKL116C'
p4753
(lp4754
F1.9
aF2.8
aF2.7
aF4.2
asS'YHL011C'
p4755
(lp4756
F2.9
aF5.5
aF4.7
aF7.9
asS'YLR285W'
p4757
(lp4758
F2.8
aF6.7
aF5.9
aF8.7
asS'YDR181C'
p4759
(lp4760
F2.5
aF3.2
aF3.0
aF5.2
asS'YOL127W'
p4761
(lp4762
F5.0
aF35.9
aF27.0
aF53.6
asS'YHR039C-A'
p4763
(lp4764
F4.1
aF17.2
aF14.1
aF22.3
asS'YGL179C'
p4765
(lp4766
F7.4
aF10.2
aF8.1
aF13.9
asS'YAL020C'
p4767
(lp4768
F2.5
aF8.0
aF6.1
aF11.8
asS'YPL048W'
p4769
(lp4770
F6.5
aF59.9
aF41.8
aF99.6
asS'YBR275C'
p4771
(lp4772
F3.7
aF8.2
aF6.2
aF14.5
asS'YDR539W'
p4773
(lp4774
F4.8
aF22.9
aF19.0
aF29.1
asS'YNL218W'
p4775
(lp4776
F1.2
aF2.6
aF2.6
aF3.8
asS'YPL208W'
p4777
(lp4778
F3.4
aF7.4
aF6.7
aF8.7
asS'YBR025C'
p4779
(lp4780
F8.1
aF32.4
aF23.0
aF49.7
asS'YML001W'
p4781
(lp4782
F4.6
aF8.3
aF7.2
aF11.1
asS'YOR187W'
p4783
(lp4784
F4.5
aF13.7
aF11.5
aF17.2
asS'YER016W'
p4785
(lp4786
F2.4
aF6.6
aF5.3
aF9.0
asS'YGR286C'
p4787
(lp4788
F3.8
aF12.9
aF10.5
aF17.0
asS'YDR438W'
p4789
(lp4790
F2.5
aF4.7
aF3.4
aF8.0
asS'YMR044W'
p4791
(lp4792
F2.7
aF3.3
aF3.1
aF5.0
asS'YMR217W'
p4793
(lp4794
F3.9
aF33.6
aF24.8
aF42.8
asS'YJL103C'
p4795
(lp4796
F12.0
aF46.5
aF25.1
aF167.3
asS'YGL035C'
p4797
(lp4798
F4.3
aF5.1
aF4.6
aF7.4
asS'YER170W'
p4799
(lp4800
F4.2
aF4.1
aF3.5
aF6.2
asS'YPL096C-A'
p4801
(lp4802
F2.6
aF3.6
aF3.0
aF6.3
asS'YOR136W'
p4803
(lp4804
F5.2
aF17.5
aF13.3
aF24.5
asS'YKL222C'
p4805
(lp4806
F3.7
aF6.0
aF4.2
aF11.6
asS'YPR201W'
p4807
(lp4808
F4.5
aF6.7
aF5.3
aF11.3
asS'YDR494W'
p4809
(lp4810
F4.3
aF4.7
aF4.3
aF7.6
asS'YLR026C'
p4811
(lp4812
F2.3
aF3.9
aF3.4
aF7.8
asS'YKR086W'
p4813
(lp4814
F1.6
aF4.2
aF3.5
aF7.3
asS'YDL131W'
p4815
(lp4816
F2.9
aF8.4
aF7.6
aF11.0
asS'YMR277W'
p4817
(lp4818
F2.3
aF4.6
aF3.9
aF8.6
asS'YMR095C'
p4819
(lp4820
F3.3
aF8.0
aF7.3
aF9.7
asS'YML049C'
p4821
(lp4822
F3.5
aF5.2
aF4.5
aF10.2
asS'YOL092W'
p4823
(lp4824
F2.3
aF6.7
aF6.1
aF9.0
asS'YPL172C'
p4825
(lp4826
F2.6
aF2.8
aF2.7
aF4.6
asS'YCR068W'
p4827
(lp4828
F8.0
aF21.5
aF13.1
aF30.0
asS'YLL004W'
p4829
(lp4830
F1.3
aF2.0
aF2.0
aF2.7
asS'YER049W'
p4831
(lp4832
F2.2
aF4.5
aF4.1
aF6.1
asS'YGL125W'
p4833
(lp4834
F3.5
aF7.7
aF5.4
aF13.2
asS'YDL024C'
p4835
(lp4836
F11.7
aF34.3
aF21.9
aF57.3
asS'YLR164W'
p4837
(lp4838
F5.9
aF9.7
aF7.4
aF14.7
asS'YKR104W'
p4839
(lp4840
F28.8
aF24.4
aF12.5
aF48.3
asS'YEL054C'
p4841
(lp4842
F2.3
aF11.1
aF8.8
aF15.1
asS'YMR255W'
p4843
(lp4844
F4.7
aF10.0
aF7.2
aF15.5
asS'YGL068W'
p4845
(lp4846
F3.2
aF5.5
aF4.7
aF7.0
asS'YLR028C'
p4847
(lp4848
F6.9
aF17.1
aF11.6
aF25.6
asS'YER136W'
p4849
(lp4850
F4.7
aF36.2
aF26.1
aF51.4
asS'YGL247W'
p4851
(lp4852
F8.4
aF27.0
aF12.5
aF59.1
asS'YER116C'
p4853
(lp4854
F3.6
aF5.3
aF4.8
aF8.3
asS'YML012W'
p4855
(lp4856
F6.0
aF21.3
aF17.4
aF26.4
asS'YER056C-A'
p4857
(lp4858
F4.0
aF19.6
aF15.5
aF23.3
asS'YDR028C'
p4859
(lp4860
F6.8
aF40.8
aF24.9
aF66.4
asS'YML050W'
p4861
(lp4862
F3.8
aF3.3
aF2.8
aF5.9
asS'YOR217W'
p4863
(lp4864
F3.1
aF32.5
aF17.6
aF63.8
asS'YBL035C'
p4865
(lp4866
F3.6
aF7.0
aF5.1
aF12.2
asS'YPR074C'
p4867
(lp4868
F3.4
aF51.6
aF37.1
aF73.3
asS'YCR057C'
p4869
(lp4870
F1.5
aF4.4
aF3.8
aF6.2
asS'YNL206C'
p4871
(lp4872
F2.4
aF4.9
aF4.5
aF6.9
asS'YMR197C'
p4873
(lp4874
F7.8
aF19.0
aF12.8
aF28.7
asS'YLR060W'
p4875
(lp4876
F3.9
aF15.0
aF9.6
aF27.1
asS'YMR016C'
p4877
(lp4878
F1.8
aF4.2
aF3.2
aF6.1
asS'YPL233W'
p4879
(lp4880
F2.1
aF4.6
aF4.2
aF6.1
asS'YIL063C'
p4881
(lp4882
F6.3
aF11.6
aF9.7
aF16.3
asS'YGR251W'
p4883
(lp4884
F2.0
aF2.7
aF2.5
aF3.1
asS'YLL060C'
p4885
(lp4886
F4.5
aF7.2
aF4.6
aF11.6
asS'YPR047W'
p4887
(lp4888
F6.7
aF8.0
aF6.0
aF14.3
asS'YIL122W'
p4889
(lp4890
F2.1
aF3.3
aF2.7
aF6.5
asS'YKL219W'
p4891
(lp4892
F8.2
aF13.2
aF8.7
aF20.3
asS'YML091C'
p4893
(lp4894
F6.3
aF5.8
aF4.7
aF11.6
asS'YBR049C'
p4895
(lp4896
F6.7
aF38.5
aF22.2
aF62.8
asS'YDR044W'
p4897
(lp4898
F2.3
aF7.1
aF6.0
aF9.1
asS'YKR080W'
p4899
(lp4900
F2.2
aF3.2
aF3.0
aF5.4
asS'YEL016C'
p4901
(lp4902
F2.8
aF3.8
aF3.6
aF5.5
asS'YKL078W'
p4903
(lp4904
F0.8
aF1.8
aF1.8
aF2.7
asS'YDL002C'
p4905
(lp4906
F5.0
aF5.9
aF4.9
aF9.5
asS'YJR032W'
p4907
(lp4908
F2.4
aF6.9
aF5.6
aF10.6
asS'YOR037W'
p4909
(lp4910
F4.7
aF8.0
aF4.6
aF14.0
asS'YGR224W'
p4911
(lp4912
F3.3
aF6.3
aF4.9
aF14.8
asS'YDR071C'
p4913
(lp4914
F4.7
aF7.0
aF6.0
aF10.5
asS'YDR162C'
p4915
(lp4916
F4.7
aF5.0
aF4.2
aF9.1
asS'YMR134W'
p4917
(lp4918
F3.0
aF4.7
aF3.7
aF7.2
asS'YGL012W'
p4919
(lp4920
F3.0
aF7.5
aF6.5
aF9.0
asS'YJL101C'
p4921
(lp4922
F2.3
aF6.8
aF5.4
aF10.5
asS'YBL069W'
p4923
(lp4924
F1.7
aF3.2
aF2.8
aF4.0
asS'YAR018C'
p4925
(lp4926
F4.5
aF4.4
aF4.0
aF6.7
asS'YDR353W'
p4927
(lp4928
F3.6
aF12.8
aF10.6
aF17.1
asS'YMR139W'
p4929
(lp4930
F5.3
aF9.6
aF7.4
aF13.8
asS'YJL001W'
p4931
(lp4932
F5.1
aF10.6
aF8.6
aF14.9
asS'YDL080C'
p4933
(lp4934
F3.9
aF5.1
aF4.4
aF7.9
asS'YOR172W'
p4935
(lp4936
F4.1
aF10.5
aF6.1
aF19.8
asS'YOR103C'
p4937
(lp4938
F4.5
aF5.9
aF4.9
aF9.9
asS'YJL138C'
p4939
(lp4940
F2.3
aF11.6
aF8.6
aF15.9
asS'YOR129C'
p4941
(lp4942
F2.0
aF3.4
aF3.1
aF5.6
asS'YDR213W'
p4943
(lp4944
F19.6
aF25.5
aF18.6
aF41.0
asS'YML085C'
p4945
(lp4946
F5.2
aF38.9
aF28.5
aF52.5
asS'YPR167C'
p4947
(lp4948
F3.7
aF5.8
aF4.5
aF10.6
asS'YML087C'
p4949
(lp4950
F1.1
aF3.3
aF2.7
aF5.4
asS'YHR060W'
p4951
(lp4952
F4.8
aF11.0
aF9.0
aF13.4
asS'YBR010W'
p4953
(lp4954
F1.9
aF3.6
aF3.4
aF4.9
asS'YER094C'
p4955
(lp4956
F5.0
aF13.6
aF11.2
aF17.6
asS'YIL022W'
p4957
(lp4958
F2.7
aF5.0
aF4.5
aF7.3
asS'YDL104C'
p4959
(lp4960
F2.0
aF5.3
aF4.2
aF11.0
asS'YGR208W'
p4961
(lp4962
F2.2
aF3.6
aF3.2
aF7.0
asS'YKL119C'
p4963
(lp4964
F2.5
aF4.4
aF3.8
aF5.7
asS'YLR212C'
p4965
(lp4966
F1.8
aF3.8
aF3.4
aF5.5
asS'YHR042W'
p4967
(lp4968
F3.3
aF13.2
aF9.9
aF18.7
asS'YCR075C'
p4969
(lp4970
F4.8
aF8.5
aF5.9
aF12.4
asS'YER101C'
p4971
(lp4972
F8.6
aF29.6
aF20.6
aF54.3
asS'YKR079C'
p4973
(lp4974
F1.9
aF3.5
aF3.2
aF5.3
asS'YNL248C'
p4975
(lp4976
F1.8
aF4.5
aF4.2
aF5.6
asS'YCR019W'
p4977
(lp4978
F3.7
aF4.8
aF4.3
aF7.5
asS'YLR086W'
p4979
(lp4980
F2.6
aF14.5
aF8.8
aF25.7
asS'YLR439W'
p4981
(lp4982
F3.6
aF3.5
aF3.1
aF5.7
asS'YOR059C'
p4983
(lp4984
F4.8
aF9.0
aF6.5
aF16.6
asS'YML030W'
p4985
(lp4986
F3.3
aF4.9
aF3.8
aF7.9
asS'YCL051W'
p4987
(lp4988
F8.3
aF11.3
aF8.7
aF18.2
asS'YML065W'
p4989
(lp4990
F4.1
aF6.7
aF5.2
aF14.0
asS'YCR097W'
p4991
(lp4992
F7.0
aF16.7
aF11.4
aF28.2
asS'YER001W'
p4993
(lp4994
F1.5
aF2.9
aF2.8
aF3.7
asS'YDR235W'
p4995
(lp4996
F3.5
aF3.9
aF3.5
aF6.4
asS'YJL047C'
p4997
(lp4998
F5.0
aF11.4
aF7.3
aF23.4
asS'YER038C'
p4999
(lp5000
F3.4
aF6.6
aF5.2
aF9.8
asS'YBL074C'
p5001
(lp5002
F7.7
aF9.2
aF7.3
aF15.6
asS'YDR275W'
p5003
(lp5004
F3.5
aF5.1
aF4.7
aF7.2
asS'YPL042C'
p5005
(lp5006
F3.9
aF5.2
aF4.3
aF9.8
asS'YGL023C'
p5007
(lp5008
F3.8
aF5.5
aF4.8
aF8.2
asS'YBL058W'
p5009
(lp5010
F8.2
aF18.2
aF12.2
aF26.0
asS'YEL061C'
p5011
(lp5012
F3.9
aF5.2
aF4.4
aF8.1
asS'YBR007C'
p5013
(lp5014
F7.6
aF8.6
aF6.9
aF13.7
asS'YLR175W'
p5015
(lp5016
F1.8
aF3.1
aF2.9
aF4.2
asS'YPL001W'
p5017
(lp5018
F7.7
aF14.6
aF6.7
aF24.5
asS'YDR228C'
p5019
(lp5020
F11.6
aF52.9
aF28.6
aF187.0
asS'YHR194W'
p5021
(lp5022
F4.2
aF13.9
aF7.5
aF25.6
asS'YGR288W'
p5023
(lp5024
F8.3
aF12.9
aF9.9
aF17.4
asS'YOR295W'
p5025
(lp5026
F1.3
aF1.9
aF1.9
aF3.0
asS'YOR340C'
p5027
(lp5028
F1.4
aF2.6
aF2.4
aF3.4
asS'YMR260C'
p5029
(lp5030
F4.4
aF22.9
aF18.0
aF30.8
asS'YGR264C'
p5031
(lp5032
F2.4
aF35.2
aF22.9
aF54.5
asS'YJL038C'
p5033
(lp5034
F3.4
aF10.3
aF7.6
aF16.8
asS'YDL208W'
p5035
(lp5036
F1.5
aF2.4
aF2.3
aF3.2
asS'YIR018W'
p5037
(lp5038
F8.6
aF12.8
aF10.1
aF18.1
asS'YPL074W'
p5039
(lp5040
F3.9
aF4.9
aF4.3
aF7.3
asS'YJR025C'
p5041
(lp5042
F7.6
aF37.9
aF28.3
aF50.2
asS'YBR145W'
p5043
(lp5044
F1.0
aF2.0
aF1.9
aF2.7
asS'YDR339C'
p5045
(lp5046
F2.7
aF3.5
aF3.2
aF4.9
asS'YAL014C'
p5047
(lp5048
F4.4
aF8.9
aF6.8
aF14.0
asS'YFL037W'
p5049
(lp5050
F4.7
aF49.0
aF35.8
aF62.9
asS'YIL027C'
p5051
(lp5052
F3.8
aF4.8
aF4.0
aF6.6
asS'YPL169C'
p5053
(lp5054
F12.2
aF26.3
aF16.2
aF44.1
asS'YHR161C'
p5055
(lp5056
F8.0
aF18.3
aF10.6
aF27.8
asS'YBR243C'
p5057
(lp5058
F2.7
aF6.3
aF5.6
aF8.4
asS'YDL224C'
p5059
(lp5060
F5.0
aF6.5
aF5.5
aF13.0
asS'YLR181C'
p5061
(lp5062
F4.7
aF5.2
aF4.4
aF9.1
asS'YNL111C'
p5063
(lp5064
F1.4
aF2.1
aF2.0
aF2.9
asS'YGR134W'
p5065
(lp5066
F11.1
aF7.0
aF5.1
aF14.2
asS'YCR073C'
p5067
(lp5068
F1.9
aF4.8
aF4.3
aF7.7
asS'YGL070C'
p5069
(lp5070
F4.8
aF5.1
aF4.3
aF9.9
asS'YOL103W'
p5071
(lp5072
F2.6
aF7.2
aF5.5
aF12.0
asS'YHR071W'
p5073
(lp5074
F6.7
aF23.0
aF13.7
aF34.4
asS'YGR169C'
p5075
(lp5076
F1.3
aF2.6
aF2.5
aF3.6
asS'YLR309C'
p5077
(lp5078
F7.1
aF57.9
aF32.7
aF135.7
asS'YPR086W'
p5079
(lp5080
F3.8
aF11.2
aF8.7
aF16.6
asS'YJR125C'
p5081
(lp5082
F11.2
aF31.0
aF19.7
aF59.6
asS'YIL068C'
p5083
(lp5084
F3.4
aF6.9
aF5.7
aF10.4
asS'YMR060C'
p5085
(lp5086
F4.5
aF5.4
aF4.2
aF10.9
asS'YNL189W'
p5087
(lp5088
F9.2
aF58.9
aF38.4
aF108.8
asS'YDR153C'
p5089
(lp5090
F4.1
aF6.2
aF5.3
aF9.5
asS'YPL127C'
p5091
(lp5092
F2.8
aF5.2
aF4.9
aF6.2
asS'YGR120C'
p5093
(lp5094
F2.2
aF3.2
aF2.9
aF4.5
asS'YDL144C'
p5095
(lp5096
F3.4
aF8.5
aF6.4
aF13.5
asS'YFL028C'
p5097
(lp5098
F3.3
aF6.7
aF5.9
aF8.9
asS'YBR105C'
p5099
(lp5100
F2.4
aF3.7
aF3.4
aF6.2
asS'YLR080W'
p5101
(lp5102
F6.1
aF30.1
aF15.9
aF66.7
asS'YKR020W'
p5103
(lp5104
F3.3
aF6.1
aF5.3
aF8.0
asS'YDR456W'
p5105
(lp5106
F3.7
aF8.6
aF7.3
aF12.2
asS'YDR308C'
p5107
(lp5108
F2.0
aF3.3
aF2.9
aF5.0
asS'YLR372W'
p5109
(lp5110
F2.8
aF5.9
aF5.2
aF7.9
asS'YNL062C'
p5111
(lp5112
F3.6
aF5.0
aF4.4
aF8.1
asS'YMR004W'
p5113
(lp5114
F6.8
aF10.0
aF7.7
aF13.8
asS'YER083C'
p5115
(lp5116
F4.1
aF8.4
aF7.0
aF11.9
asS'YHR050W'
p5117
(lp5118
F3.8
aF6.3
aF5.3
aF9.5
asS'YPL176C'
p5119
(lp5120
F5.9
aF17.6
aF12.9
aF25.3
asS'YDR324C'
p5121
(lp5122
F1.3
aF2.5
aF2.4
aF3.1
asS'YLR389C'
p5123
(lp5124
F4.7
aF42.9
aF29.1
aF68.2
asS'YJL072C'
p5125
(lp5126
F2.1
aF3.1
aF2.7
aF5.1
asS'YHR172W'
p5127
(lp5128
F3.7
aF4.9
aF4.0
aF9.1
asS'YOR112W'
p5129
(lp5130
F4.7
aF27.8
aF14.9
aF47.2
asS'YFL017C'
p5131
(lp5132
F3.8
aF5.9
aF5.2
aF7.5
asS'YPR132W'
p5133
(lp5134
F4.4
aF22.5
aF18.3
aF28.5
asS'YNL175C'
p5135
(lp5136
F2.1
aF4.0
aF3.5
aF5.1
asS'YGR173W'
p5137
(lp5138
F2.4
aF5.7
aF5.0
aF8.3
asS'YDR084C'
p5139
(lp5140
F4.2
aF14.8
aF10.0
aF22.8
asS'YBR234C'
p5141
(lp5142
F12.7
aF59.5
aF36.2
aF153.0
asS'YOR061W'
p5143
(lp5144
F2.3
aF5.0
aF4.3
aF7.1
asS'YOR356W'
p5145
(lp5146
F2.6
aF10.3
aF8.8
aF14.8
asS'YFR013W'
p5147
(lp5148
F1.9
aF5.3
aF4.3
aF8.5
asS'YBR261C'
p5149
(lp5150
F3.6
aF7.6
aF6.6
aF9.5
asS'YAR027W'
p5151
(lp5152
F19.3
aF29.8
aF15.6
aF57.5
asS'YHR013C'
p5153
(lp5154
F2.4
aF4.6
aF4.1
aF5.8
asS'YBR286W'
p5155
(lp5156
F8.3
aF30.0
aF23.2
aF40.2
asS'YOL040C'
p5157
(lp5158
F4.6
aF21.9
aF19.6
aF24.9
asS'YGR072W'
p5159
(lp5160
F2.5
aF3.5
aF3.1
aF5.5
asS'YCL035C'
p5161
(lp5162
F22.6
aF58.9
aF32.0
aF195.2
asS'YIL023C'
p5163
(lp5164
F5.4
aF10.9
aF8.5
aF15.6
asS'YOR308C'
p5165
(lp5166
F1.6
aF2.9
aF2.7
aF4.1
asS'YOL146W'
p5167
(lp5168
F3.3
aF6.1
aF4.9
aF8.6
asS'YGL221C'
p5169
(lp5170
F6.6
aF16.6
aF13.3
aF22.8
asS'YHR144C'
p5171
(lp5172
F1.0
aF1.8
aF1.8
aF2.3
asS'YDR006C'
p5173
(lp5174
F4.5
aF6.0
aF5.1
aF10.0
asS'YGR034W'
p5175
(lp5176
F3.2
aF14.7
aF11.5
aF18.7
asS'YBR229C'
p5177
(lp5178
F4.8
aF24.6
aF19.1
aF32.6
asS'YDR190C'
p5179
(lp5180
F2.5
aF6.5
aF5.5
aF10.0
asS'YNL290W'
p5181
(lp5182
F3.9
aF7.4
aF6.2
aF10.9
asS'YJR100C'
p5183
(lp5184
F4.1
aF7.2
aF5.9
aF9.9
asS'YDR139C'
p5185
(lp5186
F3.7
aF6.9
aF6.0
aF9.6
asS'YOR372C'
p5187
(lp5188
F6.6
aF6.5
aF4.6
aF11.5
asS'YBR276C'
p5189
(lp5190
F3.6
aF6.2
aF4.8
aF11.4
asS'YJR147W'
p5191
(lp5192
F2.2
aF6.7
aF5.1
aF13.6
asS'YMR314W'
p5193
(lp5194
F7.9
aF14.5
aF12.5
aF17.9
asS'YLR455W'
p5195
(lp5196
F26.3
aF20.2
aF13.9
aF27.5
asS'YNL247W'
p5197
(lp5198
F4.2
aF48.2
aF32.3
aF86.3
asS'YHR128W'
p5199
(lp5200
F2.6
aF6.2
aF5.4
aF7.8
asS'YDR538W'
p5201
(lp5202
F3.1
aF8.5
aF6.3
aF13.9
asS'YOR316C'
p5203
(lp5204
F3.7
aF7.3
aF6.5
aF10.5
asS'YMR184W'
p5205
(lp5206
F4.6
aF10.0
aF8.4
aF13.9
asS'YBR123C'
p5207
(lp5208
F2.3
aF4.7
aF4.1
aF8.4
asS'YIL112W'
p5209
(lp5210
F3.8
aF9.5
aF7.0
aF18.4
asS'YPL118W'
p5211
(lp5212
F6.6
aF9.4
aF7.6
aF14.3
asS'YFR028C'
p5213
(lp5214
F2.1
aF3.2
aF3.0
aF4.1
asS'YNR047W'
p5215
(lp5216
F11.6
aF23.9
aF16.0
aF40.7
asS'YOL104C'
p5217
(lp5218
F14.0
aF10.1
aF7.0
aF17.6
asS'YNL132W'
p5219
(lp5220
F1.7
aF11.6
aF8.8
aF18.3
asS'YBR029C'
p5221
(lp5222
F3.5
aF4.5
aF4.0
aF7.5
asS'YIL043C'
p5223
(lp5224
F9.1
aF27.8
aF21.1
aF46.2
asS'YHR153C'
p5225
(lp5226
F5.3
aF4.0
aF2.8
aF6.3
asS'YDR386W'
p5227
(lp5228
F3.7
aF5.7
aF4.9
aF9.3
asS'YOR042W'
p5229
(lp5230
F8.2
aF25.1
aF18.3
aF34.2
asS'YKL048C'
p5231
(lp5232
F2.2
aF4.2
aF3.5
aF6.7
asS'YDR292C'
p5233
(lp5234
F3.6
aF9.8
aF7.9
aF15.3
asS'YKR072C'
p5235
(lp5236
F3.5
aF4.1
aF3.7
aF6.1
asS'YBR218C'
p5237
(lp5238
F2.3
aF22.3
aF15.8
aF29.9
asS'YAL036C'
p5239
(lp5240
F2.6
aF9.1
aF7.0
aF14.4
asS'YBL003C'
p5241
(lp5242
F2.2
aF4.3
aF3.8
aF5.3
asS'YGL174W'
p5243
(lp5244
F3.9
aF34.1
aF17.4
aF94.5
asS'YHR106W'
p5245
(lp5246
F12.5
aF41.0
aF22.7
aF84.7
asS'YLR172C'
p5247
(lp5248
F5.0
aF12.2
aF9.7
aF16.3
asS'YKR103W'
p5249
(lp5250
F13.6
aF20.0
aF13.9
aF28.3
asS'YOL164W'
p5251
(lp5252
F2.5
aF4.4
aF3.8
aF7.0
asS'YNL164C'
p5253
(lp5254
F1.0
aF1.6
aF1.6
aF2.4
asS'YHR208W'
p5255
(lp5256
F2.7
aF8.6
aF7.0
aF12.2
asS'YDL065C'
p5257
(lp5258
F3.4
aF7.4
aF5.9
aF16.3
asS'YGL244W'
p5259
(lp5260
F4.8
aF13.6
aF8.4
aF23.2
asS'YBR035C'
p5261
(lp5262
F6.3
aF15.4
aF12.4
aF21.9
asS'YOR239W'
p5263
(lp5264
F2.0
aF11.5
aF8.8
aF15.7
asS'YBL036C'
p5265
(lp5266
F4.4
aF14.6
aF10.2
aF22.6
asS'YOR249C'
p5267
(lp5268
F4.1
aF6.8
aF5.1
aF11.7
asS'YGR183C'
p5269
(lp5270
F4.5
aF13.8
aF9.3
aF22.7
asS'YBR080C'
p5271
(lp5272
F3.8
aF10.2
aF6.7
aF20.5
asS'YPR191W'
p5273
(lp5274
F4.5
aF20.8
aF13.1
aF30.6
asS'YDL030W'
p5275
(lp5276
F2.2
aF3.5
aF3.2
aF5.4
asS'YER117W'
p5277
(lp5278
F4.2
aF27.2
aF20.4
aF35.7
asS'YDL049C'
p5279
(lp5280
F1.1
aF2.5
aF2.4
aF3.4
asS'YHR068W'
p5281
(lp5282
F3.2
aF8.6
aF7.6
aF11.5
asS'YOR301W'
p5283
(lp5284
F2.8
aF14.0
aF9.0
aF21.8
asS'YNL272C'
p5285
(lp5286
F3.6
aF6.4
aF5.0
aF12.7
asS'YBR048W'
p5287
(lp5288
F4.3
aF25.3
aF21.3
aF31.0
asS'YKL218C'
p5289
(lp5290
F3.5
aF7.6
aF5.8
aF11.6
asS'YKR081C'
p5291
(lp5292
F1.5
aF2.6
aF2.4
aF3.1
asS'YPL263C'
p5293
(lp5294
F2.7
aF15.7
aF12.2
aF23.9
asS'YDL001W'
p5295
(lp5296
F2.7
aF3.9
aF3.7
aF5.8
asS'YBL107C'
p5297
(lp5298
F1.9
aF3.6
aF3.2
aF5.7
asS'YLR067C'
p5299
(lp5300
F1.2
aF2.5
aF2.4
aF3.9
asS'YHR051W'
p5301
(lp5302
F6.2
aF15.2
aF11.6
aF19.7
asS'YOL013C'
p5303
(lp5304
F8.1
aF17.4
aF11.9
aF25.3
asS'YJL183W'
p5305
(lp5306
F2.2
aF3.7
aF3.5
aF5.1
asS'YLL063C'
p5307
(lp5308
F2.7
aF5.2
aF3.9
aF8.8
asS'YKL128C'
p5309
(lp5310
F4.4
aF10.8
aF8.1
aF16.1
asS'YDR047W'
p5311
(lp5312
F2.7
aF4.5
aF4.1
aF6.4
asS'YPR033C'
p5313
(lp5314
F3.7
aF34.6
aF20.9
aF57.6
asS'YOR254C'
p5315
(lp5316
F2.7
aF8.0
aF7.1
aF10.5
asS'YOR201C'
p5317
(lp5318
F4.2
aF7.8
aF5.7
aF14.6
asS'YOR276W'
p5319
(lp5320
F3.2
aF12.4
aF10.2
aF14.9
asS'YGL250W'
p5321
(lp5322
F10.7
aF12.1
aF8.5
aF23.2
asS'YBL059C-A'
p5323
(lp5324
F3.5
aF5.9
aF4.9
aF7.7
asS'YIL065C'
p5325
(lp5326
F4.3
aF9.1
aF7.7
aF12.5
asS'YOL031C'
p5327
(lp5328
F11.2
aF14.1
aF6.7
aF24.3
asS'YHR119W'
p5329
(lp5330
F2.9
aF4.4
aF3.9
aF7.2
asS'YHL019C'
p5331
(lp5332
F8.2
aF15.9
aF11.2
aF21.6
asS'YHR076W'
p5333
(lp5334
F5.4
aF18.2
aF13.3
aF22.6
asS'YMR180C'
p5335
(lp5336
F21.7
aF28.1
aF17.3
aF40.4
asS'YGL163C'
p5337
(lp5338
F6.7
aF12.0
aF8.4
aF19.2
asS'YOR336W'
p5339
(lp5340
F2.7
aF16.5
aF13.0
aF22.0
asS'YJR094W-A'
p5341
(lp5342
F3.4
aF10.4
aF8.8
aF13.1
asS'YKL216W'
p5343
(lp5344
F2.8
aF11.8
aF9.7
aF16.8
asS'YML021C'
p5345
(lp5346
F2.7
aF6.7
aF5.7
aF9.4
asS'YGR012W'
p5347
(lp5348
F5.5
aF13.2
aF11.4
aF15.5
asS'YBL021C'
p5349
(lp5350
F1.2
aF5.5
aF3.0
aF9.6
asS'YHL004W'
p5351
(lp5352
F2.2
aF4.4
aF3.6
aF6.3
asS'YLL045C'
p5353
(lp5354
F4.0
aF21.4
aF17.4
aF25.8
asS'YGR124W'
p5355
(lp5356
F3.5
aF21.8
aF17.5
aF28.7
asS'YLR007W'
p5357
(lp5358
F2.8
aF4.0
aF3.6
aF6.3
asS'YPL252C'
p5359
(lp5360
F2.5
aF5.2
aF3.8
aF7.9
asS'YLR139C'
p5361
(lp5362
F2.6
aF4.3
aF3.8
aF7.8
asS'YML102W'
p5363
(lp5364
F3.5
aF4.8
aF4.0
aF7.0
asS'YER157W'
p5365
(lp5366
F4.3
aF7.9
aF6.7
aF12.7
asS'YOL022C'
p5367
(lp5368
F1.9
aF3.4
aF3.2
aF3.9
asS'YEL037C'
p5369
(lp5370
F3.5
aF10.2
aF9.2
aF13.1
asS'YDR437W'
p5371
(lp5372
F2.3
aF1.1
aF1.0
aF3.4
asS'YMR054W'
p5373
(lp5374
F3.7
aF6.9
aF5.2
aF12.8
asS'YNL305C'
p5375
(lp5376
F15.1
aF38.6
aF19.4
aF78.6
asS'YPL051W'
p5377
(lp5378
F2.2
aF3.7
aF3.5
aF5.5
asS'YLL014W'
p5379
(lp5380
F4.1
aF7.6
aF6.2
aF11.8
asS'YDR049W'
p5381
(lp5382
F1.4
aF3.2
aF2.9
aF4.5
asS'YPL153C'
p5383
(lp5384
F4.2
aF4.6
aF3.7
aF8.3
asS'YER100W'
p5385
(lp5386
F5.1
aF17.7
aF12.3
aF27.6
asS'YKR078W'
p5387
(lp5388
F1.3
aF2.8
aF2.6
aF4.2
asS'YPR079W'
p5389
(lp5390
F7.8
aF14.7
aF10.3
aF22.3
asS'YOR191W'
p5391
(lp5392
F3.8
aF22.7
aF11.9
aF42.4
asS'YLR412W'
p5393
(lp5394
F2.5
aF4.2
aF3.9
aF6.1
asS'YER002W'
p5395
(lp5396
F2.4
aF3.4
aF3.2
aF4.8
asS'YDR170C'
p5397
(lp5398
F5.1
aF53.4
aF35.6
aF82.2
asS'YPL101W'
p5399
(lp5400
F1.7
aF3.6
aF3.3
aF4.7
asS'YDR272W'
p5401
(lp5402
F5.1
aF13.7
aF10.5
aF17.8
asS'YOR051C'
p5403
(lp5404
F3.7
aF7.4
aF6.6
aF9.7
asS'YPR008W'
p5405
(lp5406
F4.1
aF4.9
aF4.4
aF6.7
asS'YGL020C'
p5407
(lp5408
F3.4
aF5.2
aF4.7
aF7.4
asS'YLR103C'
p5409
(lp5410
F2.0
aF3.5
aF3.2
aF5.4
asS'YOR294W'
p5411
(lp5412
F1.4
aF2.9
aF2.8
aF3.4
asS'YEL062W'
p5413
(lp5414
F8.2
aF14.2
aF10.5
aF24.3
asS'YMR112C'
p5415
(lp5416
F4.6
aF7.8
aF6.9
aF9.7
asS'YDR100W'
p5417
(lp5418
F8.1
aF10.1
aF7.8
aF13.7
asS'YJL039C'
p5419
(lp5420
F3.8
aF14.9
aF9.8
aF26.2
asS'YBR006W'
p5421
(lp5422
F5.3
aF17.1
aF13.1
aF21.6
asS'YLR038C'
p5423
(lp5424
F5.1
aF15.1
aF11.6
aF21.8
asS'YPR085C'
p5425
(lp5426
F2.6
aF4.6
aF3.8
aF8.3
asS'YOR038C'
p5427
(lp5428
F2.4
aF4.7
aF4.0
aF7.5
asS'YNL096C'
p5429
(lp5430
F2.0
aF4.7
aF4.2
aF5.9
asS'YNL212W'
p5431
(lp5432
F4.2
aF6.5
aF5.4
aF11.6
asS'YCR036W'
p5433
(lp5434
F4.1
aF8.5
aF6.5
aF13.8
asS'YGR287C'
p5435
(lp5436
F10.9
aF31.5
aF18.8
aF70.5
asS'YPR112C'
p5437
(lp5438
F2.3
aF12.2
aF8.8
aF20.4
asS'YML006C'
p5439
(lp5440
F0.9
aF2.0
aF1.9
aF3.0
asS'YCL061C'
p5441
(lp5442
F2.4
aF6.1
aF5.2
aF10.8
asS'YHR004C'
p5443
(lp5444
F6.4
aF11.4
aF7.9
aF21.0
asS'YNL148C'
p5445
(lp5446
F3.3
aF4.7
aF4.4
aF6.3
asS'YNL253W'
p5447
(lp5448
F1.3
aF2.3
aF2.2
aF3.2
asS'YPR037C'
p5449
(lp5450
F10.3
aF16.1
aF12.0
aF23.0
asS'YHR167W'
p5451
(lp5452
F2.7
aF6.4
aF3.5
aF12.1
asS'YER062C'
p5453
(lp5454
F2.5
aF11.6
aF9.4
aF15.2
asS'YER171W'
p5455
(lp5456
F2.2
aF4.0
aF3.5
aF6.4
asS'YDL047W'
p5457
(lp5458
F2.6
aF5.0
aF4.2
aF7.6
asS'YDR101C'
p5459
(lp5460
F1.8
aF4.7
aF4.2
aF6.5
asS'YML046W'
p5461
(lp5462
F1.3
aF2.4
aF2.2
aF3.4
asS'YGL124C'
p5463
(lp5464
F2.1
aF4.2
aF3.9
aF6.5
asS'YLR070C'
p5465
(lp5466
F11.1
aF24.1
aF14.9
aF42.7
asS'YDL130W'
p5467
(lp5468
F4.6
aF22.6
aF15.0
aF37.0
asS'YPR166C'
p5469
(lp5470
F2.3
aF4.7
aF4.0
aF6.3
asS'YMR276W'
p5471
(lp5472
F5.4
aF26.4
aF17.5
aF41.3
asS'YDL160C-A'
p5473
(lp5474
F3.1
aF6.9
aF5.5
aF9.6
asS'YLR025W'
p5475
(lp5476
F10.1
aF19.7
aF11.9
aF36.2
asS'YCR069W'
p5477
(lp5478
F4.4
aF8.7
aF6.3
aF13.4
asS'YOL030W'
p5479
(lp5480
F4.3
aF25.9
aF17.7
aF41.5
asS'YMR094W'
p5481
(lp5482
F3.8
aF11.4
aF8.9
aF17.1
asS'YLR138W'
p5483
(lp5484
F3.3
aF5.6
aF5.0
aF8.2
asS'YNL190W'
p5485
(lp5486
F3.6
aF15.6
aF10.2
aF27.2
asS'YLR016C'
p5487
(lp5488
F2.6
aF5.2
aF4.6
aF7.7
asS'YGL027C'
p5489
(lp5490
F4.4
aF22.4
aF16.0
aF31.8
asS'YDR341C'
p5491
(lp5492
F3.7
aF57.6
aF41.2
aF84.0
asS'YJL013C'
p5493
(lp5494
F2.2
aF4.8
aF4.3
aF8.0
asS'YJL173C'
p5495
(lp5496
F3.0
aF8.3
aF6.4
aF11.4
asS'YHR199C'
p5497
(lp5498
F20.8
aF42.6
aF25.7
aF69.7
asS'YDR152W'
p5499
(lp5500
F4.0
aF8.0
aF6.4
aF14.8
asS'YDL090C'
p5501
(lp5502
F3.8
aF6.5
aF5.9
aF8.7
asS'YJL128C'
p5503
(lp5504
F3.6
aF5.9
aF5.0
aF10.1
asS'YJR002W'
p5505
(lp5506
F2.1
aF4.4
aF4.0
aF5.7
asS'YER019C-A'
p5507
(lp5508
F4.8
aF16.1
aF12.8
aF19.9
asS'YBL097W'
p5509
(lp5510
F25.2
aF5.3
aF4.3
aF10.8
asS'YIL076W'
p5511
(lp5512
F5.0
aF13.8
aF11.2
aF18.4
asS'YDR309C'
p5513
(lp5514
F2.5
aF4.9
aF4.0
aF8.7
asS'YNL061W'
p5515
(lp5516
F2.1
aF5.2
aF4.8
aF6.7
asS'YKR021W'
p5517
(lp5518
F4.5
aF6.7
aF5.3
aF12.0
asS'YDR398W'
p5519
(lp5520
F1.7
aF2.9
aF2.8
aF3.9
asS'YHR209W'
p5521
(lp5522
F4.5
aF14.9
aF10.8
aF23.2
asS'YDR325W'
p5523
(lp5524
F2.8
aF8.0
aF6.1
aF15.0
asS'YLR386W'
p5525
(lp5526
F4.2
aF27.3
aF17.1
aF44.6
asS'YIL135C'
p5527
(lp5528
F7.8
aF12.3
aF8.3
aF24.8
asS'YLR371W'
p5529
(lp5530
F7.0
aF12.5
aF8.4
aF20.1
asS'YKL067W'
p5531
(lp5532
F6.2
aF12.0
aF9.6
aF15.8
asS'YLR185W'
p5533
(lp5534
F4.4
aF38.1
aF25.2
aF62.9
asS'YKL090W'
p5535
(lp5536
F4.7
aF13.2
aF7.4
aF24.7
asS'YDL169C'
p5537
(lp5538
F8.6
aF11.8
aF8.6
aF18.2
asS'YDR370C'
p5539
(lp5540
F1.0
aF2.2
aF2.1
aF4.4
asS'YLR262C'
p5541
(lp5542
F3.4
aF7.9
aF6.6
aF10.4
asS'YOR207C'
p5543
(lp5544
F2.8
aF22.7
aF15.0
aF32.9
asS'YNL121C'
p5545
(lp5546
F3.9
aF11.3
aF7.9
aF19.6
asS'YDR087C'
p5547
(lp5548
F3.0
aF5.4
aF4.6
aF6.8
asS'YPR135W'
p5549
(lp5550
F3.1
aF25.2
aF16.7
aF41.4
asS'YPL175W'
p5551
(lp5552
F1.7
aF3.1
aF2.8
aF5.3
asS'YNR008W'
p5553
(lp5554
F3.3
aF5.7
aF5.2
aF7.6
asS'YJL166W'
p5555
(lp5556
F6.5
aF9.5
aF7.5
aF13.6
asS'YDR072C'
p5557
(lp5558
F2.0
aF2.6
aF2.6
aF3.7
asS'YER044C'
p5559
(lp5560
F5.4
aF10.4
aF8.8
aF14.2
asS'YMR072W'
p5561
(lp5562
F5.1
aF12.6
aF10.7
aF15.6
asS'YOR283W'
p5563
(lp5564
F1.8
aF3.0
aF2.8
aF4.3
asS'YMR160W'
p5565
(lp5566
F12.2
aF22.5
aF16.1
aF35.1
asS'YLR009W'
p5567
(lp5568
F1.3
aF2.5
aF2.4
aF3.1
asS'YDL087C'
p5569
(lp5570
F3.5
aF15.8
aF10.6
aF25.0
asS'YBL068W'
p5571
(lp5572
F2.0
aF4.5
aF4.1
aF5.9
asS'YGL011C'
p5573
(lp5574
F7.5
aF19.7
aF14.6
aF26.3
asS'YMR225C'
p5575
(lp5576
F2.7
aF5.0
aF4.5
aF6.7
asS'YDR352W'
p5577
(lp5578
F3.7
aF7.9
aF6.0
aF16.2
asS'YKL129C'
p5579
(lp5580
F5.0
aF41.9
aF24.3
aF84.5
asS'YDR163W'
p5581
(lp5582
F4.9
aF10.3
aF7.5
aF19.0
asS'YML051W'
p5583
(lp5584
F3.5
aF18.1
aF11.3
aF27.9
asS'YHR184W'
p5585
(lp5586
F0.9
aF1.1
aF1.1
aF1.9
asS'YDL105W'
p5587
(lp5588
F2.1
aF4.5
aF3.9
aF9.3
asS'YFR024C-A'
p5589
(lp5590
F4.3
aF12.6
aF10.1
aF17.5
asS'YFR031C-A'
p5591
(lp5592
F3.9
aF16.1
aF12.8
aF20.1
asS'YDR243C'
p5593
(lp5594
F2.5
aF5.6
aF5.0
aF8.5
asS'YHR082C'
p5595
(lp5596
F6.4
aF34.9
aF26.2
aF47.2
asS'YPL091W'
p5597
(lp5598
F6.6
aF33.7
aF27.0
aF44.5
asS'YML068W'
p5599
(lp5600
F6.8
aF14.8
aF8.1
aF25.4
asS'YPL017C'
p5601
(lp5602
F6.7
aF10.2
aF7.0
aF20.3
asS'YPR168W'
p5603
(lp5604
F5.2
aF9.1
aF6.1
aF15.9
asS'YJL048C'
p5605
(lp5606
F6.3
aF13.4
aF10.0
aF19.9
asS'YPR113W'
p5607
(lp5608
F2.6
aF7.3
aF6.4
aF9.3
asS'YKL161C'
p5609
(lp5610
F2.1
aF2.9
aF2.8
aF4.6
asS'YKR036C'
p5611
(lp5612
F2.1
aF4.8
aF4.3
aF6.8
asS'YBR251W'
p5613
(lp5614
F2.6
aF4.1
aF3.7
aF5.7
asS'YJL110C'
p5615
(lp5616
F2.0
aF3.2
aF2.7
aF5.2
asS'YIR008C'
p5617
(lp5618
F2.3
aF3.3
aF3.0
aF5.0
asS'YLR240W'
p5619
(lp5620
F6.5
aF24.7
aF14.8
aF38.6
asS'YOR039W'
p5621
(lp5622
F4.1
aF9.0
aF7.6
aF12.8
asS'YIL040W'
p5623
(lp5624
F2.2
aF4.7
aF4.1
aF6.8
asS'YDR471W'
p5625
(lp5626
F1.8
aF5.2
aF4.5
aF6.8
asS'YGR135W'
p5627
(lp5628
F6.2
aF10.9
aF8.5
aF16.3
asS'YPL217C'
p5629
(lp5630
F2.5
aF19.6
aF16.4
aF22.7
asS'YGL219C'
p5631
(lp5632
F6.8
aF15.9
aF13.5
aF22.0
asS'YHR003C'
p5633
(lp5634
F3.4
aF6.8
aF5.5
aF10.9
asS'YAL051W'
p5635
(lp5636
F2.3
aF6.0
aF4.5
aF12.2
asS'YDR036C'
p5637
(lp5638
F2.5
aF8.7
aF6.8
aF13.8
asS'YGL080W'
p5639
(lp5640
F6.8
aF7.3
aF5.5
aF11.3
asS'YNR003C'
p5641
(lp5642
F3.6
aF6.9
aF5.9
aF9.0
asS'YLR344W'
p5643
(lp5644
F4.3
aF18.9
aF14.8
aF22.5
asS'YLR449W'
p5645
(lp5646
F3.0
aF10.4
aF8.2
aF13.6
asS'YKL049C'
p5647
(lp5648
F3.2
aF5.5
aF4.5
aF8.5
asS'YDR293C'
p5649
(lp5650
F4.2
aF33.7
aF20.5
aF50.6
asS'YBR155W'
p5651
(lp5652
F2.7
aF5.7
aF4.9
aF8.3
asS'YBL002W'
p5653
(lp5654
F2.0
aF3.7
aF3.5
aF4.4
asS'YNR038W'
p5655
(lp5656
F0.9
aF2.2
aF2.1
aF3.0
asS'YDR376W'
p5657
(lp5658
F6.6
aF12.2
aF8.5
aF16.4
asS'YCL029C'
p5659
(lp5660
F1.8
aF3.4
aF3.2
aF4.7
asS'YHR152W'
p5661
(lp5662
F5.0
aF17.1
aF10.5
aF30.5
asS'YBR188C'
p5663
(lp5664
F2.3
aF5.1
aF4.0
aF6.6
asS'YNL316C'
p5665
(lp5666
F3.8
aF6.2
aF4.7
aF10.2
asS'YPR189W'
p5667
(lp5668
F3.8
aF32.3
aF19.8
aF57.2
asS'YLR239C'
p5669
(lp5670
F2.6
aF6.3
aF4.9
aF9.0
asS'YPL171C'
p5671
(lp5672
F4.0
aF6.8
aF4.8
aF11.1
asS'YOR275C'
p5673
(lp5674
F6.5
aF10.9
aF7.6
aF19.4
asS'YJR024C'
p5675
(lp5676
F2.5
aF4.5
aF4.2
aF5.4
asS'YFL038C'
p5677
(lp5678
F8.6
aF37.5
aF25.8
aF63.5
asS'YLR083C'
p5679
(lp5680
F1.7
aF4.3
aF3.9
aF5.6
asS'YNL029C'
p5681
(lp5682
F4.3
aF12.5
aF8.8
aF22.0
asS'YBR142W'
p5683
(lp5684
F1.9
aF4.8
aF4.3
aF6.2
asS'YIL037C'
p5685
(lp5686
F2.3
aF3.6
aF3.2
aF6.5
asS'YHR166C'
p5687
(lp5688
F4.3
aF6.9
aF5.7
aF12.7
asS'YGR175C'
p5689
(lp5690
F2.2
aF14.3
aF10.3
aF22.6
asS'YJR131W'
p5691
(lp5692
F3.2
aF13.8
aF10.2
aF22.3
asS'YNR012W'
p5693
(lp5694
F2.2
aF5.2
aF4.3
aF7.8
asS'YGL097W'
p5695
(lp5696
F2.8
aF8.4
aF6.5
aF11.8
asS'YHR073W'
p5697
(lp5698
F2.3
aF4.7
aF4.2
aF7.2
asS'YJL151C'
p5699
(lp5700
F4.5
aF11.1
aF8.0
aF15.4
asS'YIL010W'
p5701
(lp5702
F6.2
aF15.2
aF11.9
aF21.9
asS'YKL087C'
p5703
(lp5704
F4.7
aF7.7
aF5.5
aF14.8
asS'YNL076W'
p5705
(lp5706
F8.0
aF22.8
aF13.2
aF38.5
asS'YDR367W'
p5707
(lp5708
F2.1
aF3.1
aF2.9
aF4.0
asS'YHR072W'
p5709
(lp5710
F2.3
aF5.5
aF4.8
aF7.5
asS'YKL001C'
p5711
(lp5712
F2.9
aF4.9
aF4.0
aF8.4
asS'YBR173C'
p5713
(lp5714
F5.2
aF16.6
aF11.8
aF25.7
asS'YIL064W'
p5715
(lp5716
F2.2
aF5.2
aF4.6
aF6.6
asS'YDR012W'
p5717
(lp5718
F3.7
aF13.8
aF10.2
aF17.4
asS'YIR022W'
p5719
(lp5720
F5.4
aF10.8
aF8.9
aF14.2
asS'YHR021C'
p5721
(lp5722
F4.2
aF31.6
aF20.4
aF74.3
asS'YGL253W'
p5723
(lp5724
F2.6
aF19.6
aF13.7
aF32.3
asS'YHL032C'
p5725
(lp5726
F7.7
aF23.5
aF16.7
aF34.9
asS'YJL010C'
p5727
(lp5728
F1.3
aF4.0
aF3.8
aF5.3
asS'YIL088C'
p5729
(lp5730
F5.1
aF10.3
aF8.8
aF14.1
asS'YGL162W'
p5731
(lp5732
F4.7
aF5.6
aF4.2
aF8.1
asS'YOL152W'
p5733
(lp5734
F14.1
aF30.0
aF19.2
aF50.0
asS'YMR183C'
p5735
(lp5736
F3.8
aF8.4
aF7.1
aF12.1
asS'YNL259C'
p5737
(lp5738
F3.8
aF6.1
aF5.2
aF9.2
asS'YOR337W'
p5739
(lp5740
F1.9
aF4.3
aF3.3
aF8.6
asS'YML101C'
p5741
(lp5742
F4.4
aF10.3
aF7.7
aF15.3
asS'YHR118C'
p5743
(lp5744
F2.0
aF3.2
aF2.6
aF5.4
asS'YPR094W'
p5745
(lp5746
F4.6
aF11.2
aF6.9
aF18.1
asS'YNL081C'
p5747
(lp5748
F4.0
aF5.3
aF4.5
aF8.3
asS'YGL059W'
p5749
(lp5750
F6.8
aF14.0
aF9.7
aF25.2
asS'YNL260C'
p5751
(lp5752
F5.1
aF20.0
aF10.8
aF35.8
asS'YGL075C'
p5753
(lp5754
F4.9
aF8.8
aF5.2
aF17.4
asS'YOL023W'
p5755
(lp5756
F4.4
aF6.7
aF5.6
aF11.4
asS'YOR330C'
p5757
(lp5758
F4.1
aF5.8
aF4.7
aF9.3
asS'YPL253C'
p5759
(lp5760
F4.3
aF13.2
aF7.1
aF25.1
asS'YBL020W'
p5761
(lp5762
F2.0
aF5.2
aF4.9
aF7.4
asS'YGR203W'
p5763
(lp5764
F3.2
aF8.8
aF5.6
aF13.7
asS'YHL003C'
p5765
(lp5766
F3.9
aF6.1
aF5.7
aF7.9
asS'YER154W'
p5767
(lp5768
F2.2
aF9.5
aF7.3
aF16.8
asS'YDR422C'
p5769
(lp5770
F7.9
aF21.7
aF14.5
aF30.3
asS'YEL036C'
p5771
(lp5772
F2.0
aF4.3
aF3.7
aF7.1
asS'YBR260C'
p5773
(lp5774
F2.3
aF4.7
aF4.1
aF10.2
asS'YHR010W'
p5775
(lp5776
F3.7
aF16.7
aF13.0
aF23.4
asS'YDR400W'
p5777
(lp5778
F3.2
aF5.2
aF4.4
aF7.5
asS'YJR104C'
p5779
(lp5780
F5.2
aF19.3
aF15.8
aF22.6
asS'YNL231C'
p5781
(lp5782
F2.3
aF3.9
aF3.7
aF5.1
asS'YFR043C'
p5783
(lp5784
F2.3
aF3.3
aF2.9
aF6.4
asS'YAL042W'
p5785
(lp5786
F4.6
aF15.5
aF12.9
aF19.0
asS'YHR204W'
p5787
(lp5788
F2.2
aF4.4
aF3.7
aF6.9
asS'YAL035W'
p5789
(lp5790
F2.4
aF21.4
aF12.9
aF40.2
asS'YOL041C'
p5791
(lp5792
F1.5
aF2.8
aF2.6
aF3.9
asS'YNL069C'
p5793
(lp5794
F3.7
aF25.3
aF21.0
aF31.2
asS'YFR038W'
p5795
(lp5796
F1.8
aF3.4
aF3.2
aF4.3
asS'YBR235W'
p5797
(lp5798
F4.2
aF9.8
aF7.0
aF17.4
asS'YIL162W'
p5799
(lp5800
F10.0
aF16.5
aF11.0
aF26.9
asS'YOL141W'
p5801
(lp5802
F1.6
aF5.3
aF4.6
aF9.2
asS'YGR080W'
p5803
(lp5804
F7.9
aF16.7
aF12.3
aF22.4
asS'YOL109W'
p5805
(lp5806
F5.0
aF14.3
aF11.4
aF18.1
asS'YBL011W'
p5807
(lp5808
F2.3
aF4.6
aF4.0
aF6.9
asS'YBR195C'
p5809
(lp5810
F3.7
aF5.7
aF4.2
aF9.8
asS'YGL222C'
p5811
(lp5812
F11.7
aF43.1
aF26.9
aF85.1
asS'YNL051W'
p5813
(lp5814
F2.5
aF4.4
aF3.7
aF6.9
asS'YGR122W'
p5815
(lp5816
F2.6
aF3.4
aF2.6
aF4.9
asS'YER060W-A'
p5817
(lp5818
F15.5
aF8.8
aF6.4
aF17.9
asS'YPL092W'
p5819
(lp5820
F6.5
aF11.7
aF7.7
aF21.3
asS'YDL079C'
p5821
(lp5822
F4.8
aF8.7
aF6.6
aF14.7
asS'YGR033C'
p5823
(lp5824
F4.1
aF7.2
aF4.8
aF11.2
asS'YAL022C'
p5825
(lp5826
F2.5
aF5.8
aF5.1
aF7.5
asS'YJR144W'
p5827
(lp5828
F1.2
aF3.3
aF3.1
aF4.5
asS'YMR315W'
p5829
(lp5830
F4.7
aF7.7
aF6.4
aF12.2
asS'YLR328W'
p5831
(lp5832
F2.6
aF4.4
aF4.0
aF6.6
asS'YBR228W'
p5833
(lp5834
F6.4
aF16.8
aF10.0
aF27.9
asS'YGL153W'
p5835
(lp5836
F5.2
aF10.6
aF7.1
aF18.2
asS'YNL291C'
p5837
(lp5838
F3.6
aF5.3
aF4.5
aF9.2
asS'YGR046W'
p5839
(lp5840
F6.8
aF7.8
aF5.6
aF14.6
asS'YDR384C'
p5841
(lp5842
F3.6
aF6.9
aF5.9
aF10.3
asS'YLR039C'
p5843
(lp5844
F2.2
aF5.2
aF4.5
aF9.5
asS'YML007W'
p5845
(lp5846
F4.0
aF5.0
aF4.2
aF8.3
asS'YOL017W'
p5847
(lp5848
F3.6
aF6.4
aF5.3
aF10.1
asS'YER063W'
p5849
(lp5850
F3.6
aF5.3
aF4.8
aF7.1
asS'YDR481C'
p5851
(lp5852
F4.1
aF12.4
aF10.4
aF16.0
asS'YER014W'
p5853
(lp5854
F6.3
aF16.4
aF11.2
aF24.6
asS'YMR171C'
p5855
(lp5856
F2.6
aF3.1
aF3.0
aF4.8
asS'YGL057C'
p5857
(lp5858
F2.3
aF3.0
aF2.7
aF6.1
asS'YER172C'
p5859
(lp5860
F4.4
aF14.6
aF8.8
aF27.7
asS'YNL180C'
p5861
(lp5862
F3.7
aF5.2
aF4.4
aF7.6
asS'YNL213C'
p5863
(lp5864
F3.9
aF3.6
aF3.4
aF6.2
asS'YCR035C'
p5865
(lp5866
F2.0
aF3.6
aF3.2
aF5.8
asS'YLR105C'
p5867
(lp5868
F2.1
aF3.9
aF3.5
aF6.5
asS'YPL134C'
p5869
(lp5870
F5.9
aF12.8
aF9.5
aF16.3
asS'YDL046W'
p5871
(lp5872
F7.3
aF14.2
aF11.6
aF17.9
asS'YIR037W'
p5873
(lp5874
F15.2
aF44.0
aF30.7
aF70.5
asS'YBR058C'
p5875
(lp5876
F3.8
aF19.0
aF14.1
aF24.6
asS'YLR048W'
p5877
(lp5878
F2.6
aF15.9
aF12.6
aF20.9
asS'YDR492W'
p5879
(lp5880
F4.0
aF7.3
aF6.3
aF9.7
asS'YLR024C'
p5881
(lp5882
F6.5
aF6.8
aF5.3
aF11.9
asS'YLR071C'
p5883
(lp5884
F3.6
aF7.9
aF5.8
aF16.8
asS'YEL058W'
p5885
(lp5886
F5.0
aF23.7
aF17.3
aF30.7
asS'YMR259C'
p5887
(lp5888
F3.1
aF14.5
aF9.7
aF19.9
asS'YKL024C'
p5889
(lp5890
F6.8
aF31.1
aF25.1
aF42.5
asS'YMR148W'
p5891
(lp5892
F4.1
aF6.5
aF5.4
aF10.7
asS'YBR061C'
p5893
(lp5894
F1.8
aF3.1
aF3.0
aF4.0
asS'YHL007C'
p5895
(lp5896
F2.5
aF5.5
aF4.5
aF12.1
asS'YOR145C'
p5897
(lp5898
F1.3
aF2.6
aF2.5
aF3.5
asS'YFL034C-B'
p5899
(lp5900
F1.6
aF3.0
aF2.7
aF4.5
asS'YPR052C'
p5901
(lp5902
F2.3
aF7.1
aF5.7
aF11.4
asS'YPR025C'
p5903
(lp5904
F8.6
aF8.4
aF6.6
aF14.3
asS'YBR297W'
p5905
(lp5906
F4.6
aF8.2
aF5.9
aF14.8
asS'YBR087W'
p5907
(lp5908
F2.6
aF3.9
aF3.6
aF5.6
asS'YLR006C'
p5909
(lp5910
F4.1
aF7.3
aF5.0
aF14.6
asS'YDR330W'
p5911
(lp5912
F10.8
aF21.1
aF15.1
aF29.5
asS'YER149C'
p5913
(lp5914
F5.5
aF4.3
aF3.7
aF7.6
asS'YER114C'
p5915
(lp5916
F3.4
aF22.9
aF12.0
aF38.0
asS'YPR020W'
p5917
(lp5918
F2.8
aF4.6
aF3.9
aF7.0
asS'YPR190C'
p5919
(lp5920
F1.7
aF3.5
aF3.3
aF4.8
asS'YLR075W'
p5921
(lp5922
F4.1
aF28.7
aF21.8
aF38.8
asS'YHR107C'
p5923
(lp5924
F7.1
aF11.1
aF8.2
aF18.9
asS'YAR002W'
p5925
(lp5926
F2.4
aF5.4
aF4.6
aF9.1
asS'YHR127W'
p5927
(lp5928
F2.0
aF2.8
aF2.6
aF3.8
asS'YMR237W'
p5929
(lp5930
F7.8
aF20.4
aF17.0
aF25.6
asS'YDL048C'
p5931
(lp5932
F1.3
aF2.4
aF2.3
aF3.1
asS'YDL064W'
p5933
(lp5934
F2.3
aF4.5
aF3.8
aF7.8
asS'YDL031W'
p5935
(lp5936
F2.1
aF7.1
aF5.8
aF10.5
asS'YDR026C'
p5937
(lp5938
F2.5
aF4.3
aF3.7
aF7.2
asS'YMR272C'
p5939
(lp5940
F2.3
aF5.3
aF4.9
aF6.7
asS'YLR066W'
p5941
(lp5942
F3.9
aF7.6
aF6.1
aF9.8
asS'YDR046C'
p5943
(lp5944
F0.8
aF1.7
aF1.8
aF2.6
asS'YEL029C'
p5945
(lp5946
F1.9
aF3.3
aF2.9
aF5.0
asS'YMR228W'
p5947
(lp5948
F2.0
aF4.0
aF3.8
aF5.2
asS'YMR125W'
p5949
(lp5950
F2.2
aF9.1
aF6.8
aF14.7
asS'YGL245W'
p5951
(lp5952
F8.3
aF56.7
aF40.9
aF92.0
asS'YHL014C'
p5953
(lp5954
F1.2
aF1.7
aF1.7
aF2.5
asS'YER070W'
p5955
(lp5956
F2.0
aF4.9
aF4.3
aF7.5
asS'YPL219W'
p5957
(lp5958
F4.4
aF5.6
aF4.9
aF9.0
asS'YGR006W'
p5959
(lp5960
F4.0
aF6.0
aF4.7
aF9.2
asS'YMR002W'
p5961
(lp5962
F1.9
aF3.6
aF3.3
aF5.0
asS'YOR312C'
p5963
(lp5964
F3.6
aF13.7
aF12.0
aF16.6
asS'YDR160W'
p5965
(lp5966
F8.1
aF13.7
aF8.9
aF21.8
asS'YNR053C'
p5967
(lp5968
F0.9
aF1.3
aF1.4
aF2.2
asS'YKR057W'
p5969
(lp5970
F5.1
aF21.0
aF16.7
aF26.0
asS'YGL198W'
p5971
(lp5972
F4.3
aF7.3
aF6.2
aF10.1
asS'YGR222W'
p5973
(lp5974
F4.8
aF7.0
aF6.0
aF10.3
asS'YBL091C-A'
p5975
(lp5976
F2.8
aF6.6
aF5.0
aF10.4
asS'YOR163W'
p5977
(lp5978
F8.2
aF13.1
aF10.2
aF18.4
asS'YMR199W'
p5979
(lp5980
F2.2
aF4.8
aF3.6
aF9.7
asS'YLR093C'
p5981
(lp5982
F5.9
aF7.1
aF5.6
aF10.7
asS'YIR031C'
p5983
(lp5984
F19.1
aF28.8
aF18.8
aF45.6
asS'YDR073W'
p5985
(lp5986
F2.5
aF3.9
aF3.8
aF5.0
asS'YJR065C'
p5987
(lp5988
F8.0
aF17.9
aF13.4
aF24.3
asS'YNL042W'
p5989
(lp5990
F3.7
aF5.7
aF4.9
aF10.4
asS'YNL308C'
p5991
(lp5992
F3.0
aF4.5
aF4.0
aF6.2
asS'YGR216C'
p5993
(lp5994
F1.8
aF3.0
aF2.8
aF5.6
asS'YPL010W'
p5995
(lp5996
F5.1
aF11.7
aF8.9
aF16.4
asS'YPR034W'
p5997
(lp5998
F2.5
aF4.1
aF3.7
aF6.7
asS'YHR058C'
p5999
(lp6000
F1.1
aF4.0
aF3.2
aF6.8
asS'YDR239C'
p6001
(lp6002
F2.7
aF7.0
aF6.0
aF10.1
asS'YJR049C'
p6003
(lp6004
F6.1
aF18.8
aF15.0
aF24.5
asS'YHR216W'
p6005
(lp6006
F5.4
aF36.8
aF20.9
aF84.7
asS'YIL019W'
p6007
(lp6008
F3.1
aF8.0
aF6.0
aF15.6
asS'YML069W'
p6009
(lp6010
F4.6
aF13.8
aF9.6
aF23.3
asS'YKR019C'
p6011
(lp6012
F2.8
aF5.2
aF4.2
aF7.9
asS'YPR169W'
p6013
(lp6014
F3.5
aF5.4
aF4.9
aF8.6
asS'YDR242W'
p6015
(lp6016
F2.7
aF4.6
aF4.1
aF7.2
asS'YHR085W'
p6017
(lp6018
F1.0
aF1.3
aF1.4
aF2.0
asS'YPL174C'
p6019
(lp6020
F2.6
aF4.4
aF3.8
aF8.6
asS'YMR177W'
p6021
(lp6022
F2.1
aF3.6
aF3.3
aF6.2
asS'YMR019W'
p6023
(lp6024
F1.9
aF4.0
aF3.5
aF8.1
asS'YDR064W'
p6025
(lp6026
F4.8
aF29.3
aF21.0
aF47.6
asS'YMR275C'
p6027
(lp6028
F4.2
aF6.8
aF6.0
aF11.1
asS'YBL056W'
p6029
(lp6030
F3.6
aF8.6
aF7.3
aF14.5
asS'YLR324W'
p6031
(lp6032
F6.2
aF20.0
aF12.8
aF29.7
asS'YER052C'
p6033
(lp6034
F7.0
aF17.4
aF10.8
aF28.9
asS'YLR427W'
p6035
(lp6036
F2.4
aF5.3
aF4.8
aF7.3
asS'YLL015W'
p6037
(lp6038
F8.4
aF17.4
aF12.4
aF26.2
asS'YMR202W'
p6039
(lp6040
F4.1
aF14.9
aF11.4
aF18.9
asS'YPL061W'
p6041
(lp6042
F4.2
aF35.6
aF28.3
aF45.9
asS'YMR089C'
p6043
(lp6044
F3.2
aF12.6
aF9.4
aF17.8
asS'YER003C'
p6045
(lp6046
F4.9
aF59.7
aF42.2
aF89.8
asS'YNL012W'
p6047
(lp6048
F17.4
aF39.5
aF25.2
aF91.3
asS'YMR100W'
p6049
(lp6050
F4.7
aF4.9
aF4.2
aF9.9
asS'YCL057W'
p6051
(lp6052
F5.0
aF29.2
aF18.8
aF45.1
asS'YJL025W'
p6053
(lp6054
F1.2
aF3.1
aF2.8
aF6.0
asS'YLR413W'
p6055
(lp6056
F1.1
aF3.1
aF2.9
aF4.5
asS'YBR005W'
p6057
(lp6058
F2.4
aF5.0
aF4.3
aF6.2
asS'YDL120W'
p6059
(lp6060
F5.0
aF7.6
aF6.3
aF10.8
asS'YJL165C'
p6061
(lp6062
F5.8
aF16.7
aF11.5
aF26.5
asS'YGR231C'
p6063
(lp6064
F6.5
aF18.5
aF14.4
aF25.3
asS'YEL063C'
p6065
(lp6066
F2.6
aF4.2
aF3.9
aF6.2
asS'YBL076C'
p6067
(lp6068
F2.4
aF46.4
aF31.6
aF83.2
asS'YMR113W'
p6069
(lp6070
F2.7
aF4.5
aF4.0
aF6.1
asS'YDR454C'
p6071
(lp6072
F9.7
aF58.4
aF42.6
aF83.0
asS'YLR128W'
p6073
(lp6074
F3.5
aF7.9
aF7.0
aF10.7
asS'YKR068C'
p6075
(lp6076
F3.5
aF5.4
aF4.6
aF8.8
asS'YOR099W'
p6077
(lp6078
F4.9
aF21.1
aF16.8
aF26.4
asS'YLR387C'
p6079
(lp6080
F4.1
aF4.9
aF4.1
aF9.8
asS'YPR032W'
p6081
(lp6082
F2.5
aF34.2
aF20.1
aF68.8
asS'YDL173W'
p6083
(lp6084
F3.8
aF6.3
aF5.6
aF8.7
asS'YBR143C'
p6085
(lp6086
F2.1
aF4.2
aF3.7
aF5.9
asS'YDR086C'
p6087
(lp6088
F4.0
aF10.9
aF9.0
aF14.1
asS'YHR072W-A'
p6089
(lp6090
F3.2
aF5.9
aF4.8
aF8.8
asS'YJR130C'
p6091
(lp6092
F3.8
aF6.6
aF5.9
aF8.7
asS'YJL062W-A'
p6093
(lp6094
F4.5
aF11.4
aF7.9
aF16.1
asS'YML023C'
p6095
(lp6096
F2.2
aF3.5
aF2.7
aF6.8
asS'YAL016W'
p6097
(lp6098
F6.9
aF28.3
aF20.3
aF38.0
asS'YFL039C'
p6099
(lp6100
F6.2
aF56.4
aF38.9
aF88.8
asS'YJL134W'
p6101
(lp6102
F2.3
aF3.1
aF3.0
aF4.1
asS'YKL146W'
p6103
(lp6104
F4.1
aF8.5
aF7.1
aF13.6
asS'YDR449C'
p6105
(lp6106
F1.1
aF2.1
aF2.0
aF3.0
asS'YNR039C'
p6107
(lp6108
F1.3
aF3.2
aF2.9
aF4.6
asS'YLR367W'
p6109
(lp6110
F6.3
aF15.1
aF9.8
aF19.6
asS'YLR227C'
p6111
(lp6112
F3.8
aF5.2
aF3.8
aF8.9
asS'YKL080W'
p6113
(lp6114
F4.4
aF23.4
aF16.8
aF31.1
asS'YIL052C'
p6115
(lp6116
F5.0
aF21.8
aF16.5
aF28.4
asS'YKL186C'
p6117
(lp6118
F3.7
aF8.3
aF6.7
aF12.5
asS'YPL064C'
p6119
(lp6120
F3.8
aF6.7
aF5.6
aF8.7
asS'YOR127W'
p6121
(lp6122
F2.0
aF3.7
aF3.4
aF5.8
asS'YNR013C'
p6123
(lp6124
F2.9
aF9.0
aF6.6
aF18.0
asS'YBR109C'
p6125
(lp6126
F8.2
aF29.8
aF23.4
aF38.6
asS'YBR172C'
p6127
(lp6128
F0.9
aF2.3
aF2.0
aF4.9
asS'YDR346C'
p6129
(lp6130
F3.0
aF6.8
aF5.9
aF9.4
asS'YAR002C-A'
p6131
(lp6132
F5.1
aF17.4
aF13.8
aF21.2
asS'YOL125W'
p6133
(lp6134
F1.9
aF3.0
aF2.8
aF3.9
asS'YFL055W'
p6135
(lp6136
F8.3
aF21.6
aF15.8
aF36.6
asS'YGR254W'
p6137
(lp6138
F3.4
aF43.0
aF33.4
aF53.5
asS'YMR163C'
p6139
(lp6140
F2.6
aF4.4
aF3.9
aF6.7
asS'YPL086C'
p6141
(lp6142
F2.5
aF8.1
aF7.2
aF10.8
asS'YKL160W'
p6143
(lp6144
F3.8
aF21.8
aF16.7
aF29.3
asS'YOL077W-A'
p6145
(lp6146
F3.3
aF9.3
aF7.1
aF13.9
asS'YPL029W'
p6147
(lp6148
F1.1
aF3.3
aF3.2
aF4.4
asS'YHR146W'
p6149
(lp6150
F10.4
aF26.2
aF19.5
aF37.6
asS'YDL091C'
p6151
(lp6152
F8.2
aF14.5
aF11.1
aF18.8
asS'YDL142C'
p6153
(lp6154
F8.9
aF9.7
aF7.6
aF15.1
asS'YMR066W'
p6155
(lp6156
F2.4
aF3.7
aF3.4
aF6.4
asS'YHR198C'
p6157
(lp6158
F4.8
aF7.4
aF5.2
aF12.8
asS'YJR001W'
p6159
(lp6160
F3.2
aF5.3
aF5.0
aF7.0
asS'YGL196W'
p6161
(lp6162
F8.3
aF33.8
aF23.5
aF57.3
asS'YKL126W'
p6163
(lp6164
F5.9
aF12.8
aF10.7
aF16.8
asS'YJL129C'
p6165
(lp6166
F3.7
aF10.6
aF7.0
aF22.1
asS'YLR209C'
p6167
(lp6168
F8.1
aF24.2
aF18.0
aF34.4
asS'YHR158C'
p6169
(lp6170
F4.2
aF15.2
aF9.5
aF32.1
asS'YJL209W'
p6171
(lp6172
F2.5
aF4.2
aF3.4
aF8.2
asS'YDR264C'
p6173
(lp6174
F3.9
aF7.0
aF5.4
aF14.2
asS'YKL039W'
p6175
(lp6176
F6.6
aF10.7
aF8.0
aF17.7
asS'YKL064W'
p6177
(lp6178
F5.1
aF20.1
aF13.8
aF29.5
asS'YLR265C'
p6179
(lp6180
F6.7
aF7.7
aF5.6
aF13.4
asS'YKR022C'
p6181
(lp6182
F2.3
aF3.7
aF3.4
aF6.3
asS'YNL035C'
p6183
(lp6184
F3.1
aF12.5
aF10.5
aF15.0
asS'YMR026C'
p6185
(lp6186
F2.5
aF5.2
aF4.5
aF9.0
asS'YPL016W'
p6187
(lp6188
F3.4
aF44.4
aF30.7
aF62.2
asS'YJL074C'
p6189
(lp6190
F2.1
aF19.8
aF14.4
aF30.0
asS'YLR370C'
p6191
(lp6192
F8.7
aF16.1
aF10.8
aF24.5
asS'YNL177C'
p6193
(lp6194
F4.2
aF5.5
aF4.7
aF8.6
asS'YDR326C'
p6195
(lp6196
F4.8
aF10.7
aF7.4
aF22.9
asS'YIL009W'
p6197
(lp6198
F2.0
aF3.5
aF2.9
aF6.1
asS'YLR250W'
p6199
(lp6200
F5.2
aF12.6
aF9.1
aF17.8
asS'YAL034C'
p6201
(lp6202
F6.0
aF7.1
aF5.9
aF11.5
asS'YKL122C'
p6203
(lp6204
F2.7
aF3.5
aF3.3
aF5.0
asS'YHR011W'
p6205
(lp6206
F2.8
aF2.5
aF2.4
aF3.8
asS'YAL043C'
p6207
(lp6208
F2.5
aF5.3
aF4.4
aF10.2
asS'YOL093W'
p6209
(lp6210
F2.4
aF3.8
aF3.4
aF4.8
asS'YOL042W'
p6211
(lp6212
F2.7
aF4.6
aF3.9
aF6.8
asS'YFR039C'
p6213
(lp6214
F3.6
aF6.9
aF5.4
aF10.8
asS'YBR236C'
p6215
(lp6216
F3.5
aF7.2
aF5.8
aF12.3
asS'YBR189W'
p6217
(lp6218
F4.2
aF13.2
aF11.2
aF16.6
asS'YHL020C'
p6219
(lp6220
F4.5
aF8.4
aF6.5
aF12.9
asS'YGR081C'
p6221
(lp6222
F0.9
aF1.5
aF1.4
aF2.0
asS'YDR289C'
p6223
(lp6224
F2.6
aF5.5
aF4.5
aF10.3
asS'YOR054C'
p6225
(lp6226
F7.3
aF14.1
aF8.6
aF23.1
asS'YFR042W'
p6227
(lp6228
F4.1
aF9.4
aF6.2
aF17.8
asS'YLR305C'
p6229
(lp6230
F6.6
aF29.9
aF21.9
aF40.1
asS'YOR063W'
p6231
(lp6232
F4.6
aF17.6
aF13.2
aF24.3
asS'YNL187W'
p6233
(lp6234
F3.6
aF5.6
aF4.1
aF10.4
asS'YGL223C'
p6235
(lp6236
F2.6
aF4.7
aF3.9
aF6.5
asS'YOR036W'
p6237
(lp6238
F4.0
aF5.9
aF4.9
aF9.3
asS'YBL016W'
p6239
(lp6240
F3.2
aF4.1
aF3.9
aF5.6
asS'YGR032W'
p6241
(lp6242
F7.6
aF29.1
aF21.2
aF42.6
asS'YGL150C'
p6243
(lp6244
F4.2
aF17.9
aF11.9
aF26.5
asS'YLR170C'
p6245
(lp6246
F3.1
aF6.4
aF3.8
aF11.5
asS'YOR349W'
p6247
(lp6248
F12.3
aF33.3
aF24.9
aF46.9
asS'YJR145C'
p6249
(lp6250
F4.7
aF28.6
aF21.6
aF36.7
asS'YNL292W'
p6251
(lp6252
F1.9
aF5.0
aF4.5
aF6.4
asS'YCL057C-A'
p6253
(lp6254
F4.5
aF10.4
aF7.5
aF13.1
asS'YBR194W'
p6255
(lp6256
F3.6
aF3.4
aF2.8
aF6.0
asS'YOR354C'
p6257
(lp6258
F4.0
aF5.3
aF4.2
aF8.6
asS'YOL108C'
p6259
(lp6260
F3.5
aF3.6
aF3.2
aF5.2
asS'YJL092W'
p6261
(lp6262
F7.0
aF18.3
aF10.8
aF28.6
asS'YIL039W'
p6263
(lp6264
F3.8
aF10.2
aF7.5
aF15.4
asS'YMR316W'
p6265
(lp6266
F2.5
aF4.4
aF3.8
aF6.2
asS'YLR329W'
p6267
(lp6268
F6.0
aF15.3
aF9.2
aF26.4
asS'YAL023C'
p6269
(lp6270
F4.2
aF12.7
aF10.3
aF16.5
asS'YGR027C'
p6271
(lp6272
F6.6
aF23.0
aF16.6
aF30.3
asS'YGR132C'
p6273
(lp6274
F4.5
aF13.7
aF10.1
aF19.3
asS'YIL138C'
p6275
(lp6276
F5.3
aF20.2
aF16.3
aF29.8
asS'YJR127C'
p6277
(lp6278
F9.3
aF19.0
aF11.9
aF27.2
asS'YGR092W'
p6279
(lp6280
F5.2
aF8.4
aF6.6
aF13.9
asS'YBR256C'
p6281
(lp6282
F5.1
aF10.5
aF8.2
aF14.8
asS'YKL002W'
p6283
(lp6284
F3.7
aF5.2
aF4.8
aF7.2
asS'YDR328C'
p6285
(lp6286
F10.1
aF23.9
aF17.6
aF33.2
asS'YLR247C'
p6287
(lp6288
F7.6
aF16.3
aF10.0
aF27.7
asS'YJR090C'
p6289
(lp6290
F11.4
aF40.0
aF19.9
aF81.8
asS'YDL235C'
p6291
(lp6292
F3.6
aF6.7
aF5.1
aF12.1
asS'YOR057W'
p6293
(lp6294
F4.8
aF9.3
aF6.1
aF17.8
asS'YIR009W'
p6295
(lp6296
F2.3
aF5.1
aF4.4
aF9.4
asS'YLR390W'
p6297
(lp6298
F2.3
aF6.3
aF4.6
aF8.7
asS'YKL073W'
p6299
(lp6300
F2.8
aF12.4
aF8.4
aF20.2
asS'YLR448W'
p6301
(lp6302
F3.0
aF17.3
aF13.2
aF24.4
asS'YGR103W'
p6303
(lp6304
F2.1
aF5.6
aF5.0
aF7.5
asS'YPL141C'
p6305
(lp6306
F2.5
aF4.4
aF3.7
aF6.4
asS'YHR151C'
p6307
(lp6308
F2.2
aF5.0
aF4.1
aF8.3
asS'YDR311W'
p6309
(lp6310
F1.2
aF3.0
aF2.5
aF4.5
asS'YIL041W'
p6311
(lp6312
F5.6
aF32.2
aF26.5
aF38.6
asS'YDR472W'
p6313
(lp6314
F1.1
aF2.6
aF2.5
aF5.0
asS'YGR057C'
p6315
(lp6316
F2.8
aF5.2
aF4.6
aF7.7
asS'YLR197W'
p6317
(lp6318
F2.9
aF6.3
aF5.3
aF9.1
asS'YNL100W'
p6319
(lp6320
F6.1
aF10.0
aF7.7
aF16.4
asS'YLR078C'
p6321
(lp6322
F2.9
aF4.6
aF4.2
aF6.2
asS'YBR154C'
p6323
(lp6324
F2.1
aF3.6
aF3.2
aF6.0
asS'YBR216C'
p6325
(lp6326
F7.2
aF25.7
aF15.9
aF43.9
asS'YNL245C'
p6327
(lp6328
F2.4
aF6.9
aF5.8
aF10.5
asS'YGL143C'
p6329
(lp6330
F2.0
aF4.7
aF4.3
aF6.5
asS'YMR318C'
p6331
(lp6332
F4.3
aF18.7
aF15.4
aF21.9
asS'YCL018W'
p6333
(lp6334
F2.2
aF3.6
aF3.2
aF5.3
asS'YBR294W'
p6335
(lp6336
F3.5
aF6.0
aF5.0
aF10.7
asS'YKR074W'
p6337
(lp6338
F6.8
aF11.5
aF9.1
aF15.3
asS'YHR108W'
p6339
(lp6340
F10.5
aF23.1
aF16.7
aF32.4
asS'YDL067C'
p6341
(lp6342
F4.1
aF12.7
aF7.2
aF21.8
asS'YDR025W'
p6343
(lp6344
F3.0
aF10.7
aF8.7
aF13.5
asS'YOL020W'
p6345
(lp6346
F1.0
aF2.2
aF2.1
aF3.2
asS'YBL071W-A'
p6347
(lp6348
F4.4
aF9.3
aF6.5
aF13.9
asS'YDR135C'
p6349
(lp6350
F4.7
aF18.1
aF14.4
aF23.4
asS'YAR003W'
p6351
(lp6352
F2.4
aF4.9
aF4.1
aF9.7
asS'YHR124W'
p6353
(lp6354
F2.7
aF4.9
aF4.4
aF7.7
asS'YBL030C'
p6355
(lp6356
F2.8
aF10.5
aF8.4
aF16.0
asS'YMR236W'
p6357
(lp6358
F5.4
aF13.3
aF10.7
aF18.3
asS'YNL304W'
p6359
(lp6360
F2.6
aF5.3
aF4.8
aF6.5
asS'YER148W'
p6361
(lp6362
F4.7
aF8.9
aF6.5
aF14.0
asS'YHL015W'
p6363
(lp6364
F7.2
aF22.1
aF15.5
aF29.4
asS'YOL011W'
p6365
(lp6366
F2.7
aF3.8
aF3.5
aF5.6
asS'YIL087C'
p6367
(lp6368
F5.5
aF8.6
aF6.6
aF12.6
asS'YLR443W'
p6369
(lp6370
F1.3
aF3.9
aF3.4
aF7.5
asS'YLL013C'
p6371
(lp6372
F2.2
aF5.0
aF4.5
aF7.4
asS'YNR024W'
p6373
(lp6374
F2.3
aF3.0
aF2.8
aF3.7
asS'YGR078C'
p6375
(lp6376
F2.8
aF6.3
aF5.2
aF9.0
asS'YOR104W'
p6377
(lp6378
F2.2
aF3.8
aF3.4
aF5.9
asS'YML074C'
p6379
(lp6380
F12.9
aF22.5
aF17.4
aF31.9
asS'YOR381W'
p6381
(lp6382
F4.2
aF9.0
aF6.0
aF15.1
asS'YER073W'
p6383
(lp6384
F1.2
aF2.4
aF2.4
aF3.4
asS'YMR229C'
p6385
(lp6386
F1.9
aF33.9
aF21.8
aF48.7
asS'YKR062W'
p6387
(lp6388
F3.1
aF6.3
aF5.2
aF9.8
asS'YLL038C'
p6389
(lp6390
F3.8
aF9.7
aF8.1
aF13.1
asS'YBR046C'
p6391
(lp6392
F5.8
aF33.5
aF23.3
aF49.7
asS'YOL124C'
p6393
(lp6394
F1.2
aF2.3
aF2.3
aF2.9
asS'YDR013W'
p6395
(lp6396
F2.4
aF5.9
aF4.4
aF9.7
asS'YPR125W'
p6397
(lp6398
F1.2
aF3.4
aF3.0
aF4.8
asS'YHL033C'
p6399
(lp6400
F3.3
aF18.9
aF12.2
aF29.7
asS'YOR270C'
p6401
(lp6402
F5.5
aF21.8
aF15.4
aF31.9
asS'YPL195W'
p6403
(lp6404
F3.6
aF38.2
aF21.0
aF76.8
asS'YHR020W'
p6405
(lp6406
F1.9
aF20.5
aF15.7
aF26.6
asS'YDR363W-A'
p6407
(lp6408
F5.0
aF11.7
aF9.0
aF15.9
asS'YOL033W'
p6409
(lp6410
F7.1
aF6.5
aF5.2
aF10.2
asS'YBR201W'
p6411
(lp6412
F3.8
aF6.9
aF4.8
aF11.7
asS'YBR238C'
p6413
(lp6414
F1.4
aF6.6
aF5.5
aF14.5
asS'YGL161C'
p6415
(lp6416
F6.6
aF10.6
aF7.9
aF15.7
asS'YIR026C'
p6417
(lp6418
F4.0
aF7.9
aF6.4
aF10.3
asS'YER155C'
p6419
(lp6420
F4.9
aF39.6
aF26.0
aF63.1
asS'YBR037C'
p6421
(lp6422
F3.9
aF5.7
aF4.7
aF7.8
asS'YGL058W'
p6423
(lp6424
F7.1
aF23.4
aF11.4
aF39.6
asS'YHL002W'
p6425
(lp6426
F3.9
aF5.4
aF4.6
aF8.7
asS'YPR009W'
p6427
(lp6428
F3.6
aF6.3
aF5.3
aF10.2
asS'YNL263C'
p6429
(lp6430
F4.3
aF10.3
aF7.3
aF15.7
asS'YML027W'
p6431
(lp6432
F2.1
aF1.9
aF2.1
aF4.1
asS'YKR099W'
p6433
(lp6434
F0.9
aF2.3
aF2.1
aF4.8
asS'YOR096W'
p6435
(lp6436
F4.3
aF34.4
aF24.0
aF49.0
asS'YPR115W'
p6437
(lp6438
F6.4
aF38.5
aF22.6
aF62.7
asS'YDR128W'
p6439
(lp6440
F4.5
aF44.1
aF21.6
aF82.3
asS'YMR274C'
p6441
(lp6442
F2.0
aF3.0
aF2.7
aF5.5
asS'YER051W'
p6443
(lp6444
F2.5
aF4.7
aF3.8
aF7.9
asS'YER004W'
p6445
(lp6446
F9.7
aF36.6
aF27.1
aF56.9
asS'YGL119W'
p6447
(lp6448
F3.6
aF5.6
aF4.9
aF9.3
asS'YER028C'
p6449
(lp6450
F3.7
aF5.2
aF4.6
aF7.1
asS'YMR052W'
p6451
(lp6452
F3.2
aF5.0
aF3.8
aF8.0
asS'YCR072C'
p6453
(lp6454
F1.4
aF3.1
aF2.9
aF4.6
asS'YKR016W'
p6455
(lp6456
F5.0
aF9.9
aF7.0
aF18.3
asS'YMR158W'
p6457
(lp6458
F4.4
aF7.0
aF5.9
aF10.2
asS'YLR114C'
p6459
(lp6460
F3.3
aF10.9
aF7.4
aF21.6
asS'YMR203W'
p6461
(lp6462
F4.1
aF9.9
aF7.2
aF17.0
asS'YLL036C'
p6463
(lp6464
F4.2
aF7.1
aF4.2
aF12.5
asS'YCR023C'
p6465
(lp6466
F5.8
aF8.6
aF7.1
aF15.7
asS'YDR519W'
p6467
(lp6468
F3.0
aF9.1
aF6.9
aF11.3
asS'YGR278W'
p6469
(lp6470
F3.3
aF4.8
aF4.0
aF9.2
asS'YDL029W'
p6471
(lp6472
F7.0
aF20.2
aF15.1
aF26.8
asS'YER102W'
p6473
(lp6474
F3.8
aF18.1
aF13.1
aF24.6
asS'YBL057C'
p6475
(lp6476
F7.0
aF13.0
aF9.2
aF20.8
asS'YBR073W'
p6477
(lp6478
F3.2
aF7.1
aF5.5
aF11.9
asS'YLR034C'
p6479
(lp6480
F4.8
aF10.5
aF7.3
aF20.1
asS'YER019W'
p6481
(lp6482
F3.5
aF5.8
aF5.0
aF8.1
asS'YBR028C'
p6483
(lp6484
F2.8
aF3.2
aF3.0
aF4.6
asS'YDR225W'
p6485
(lp6486
F1.0
aF2.3
aF2.2
aF3.0
asS'YMR263W'
p6487
(lp6488
F1.8
aF2.9
aF2.5
aF4.3
asS'YDR270W'
p6489
(lp6490
F3.6
aF5.1
aF4.2
aF9.5
asS'YDR172W'
p6491
(lp6492
F3.7
aF30.5
aF16.6
aF54.7
asS'YOR181W'
p6493
(lp6494
F6.0
aF8.4
aF7.3
aF11.7
asS'YBR211C'
p6495
(lp6496
F8.3
aF9.3
aF7.6
aF14.5
asS'YLR129W'
p6497
(lp6498
F1.7
aF3.8
aF3.6
aF5.8
asS'YGR230W'
p6499
(lp6500
F2.6
aF4.0
aF3.8
aF5.3
asS'YPR120C'
p6501
(lp6502
F2.6
aF3.4
aF3.2
aF5.2
asS'YPR062W'
p6503
(lp6504
F3.4
aF9.5
aF6.8
aF14.3
asS'YBL041W'
p6505
(lp6506
F4.4
aF13.4
aF9.6
aF19.9
asS'YMR097C'
p6507
(lp6508
F7.5
aF14.8
aF8.7
aF25.3
asS'YDR528W'
p6509
(lp6510
F2.0
aF3.7
aF2.8
aF7.5
asS'YDL058W'
p6511
(lp6512
F2.9
aF29.7
aF17.8
aF44.3
asS'YER173W'
p6513
(lp6514
F2.3
aF3.2
aF2.9
aF6.3
asS'YLR150W'
p6515
(lp6516
F4.8
aF43.5
aF32.6
aF61.2
asS'YLR399C'
p6517
(lp6518
F3.3
aF4.8
aF4.2
aF8.0
asS'YMR172W'
p6519
(lp6520
F2.5
aF3.5
aF3.1
aF4.9
asS'YNL214W'
p6521
(lp6522
F6.2
aF9.5
aF6.6
aF17.2
asS'YCR034W'
p6523
(lp6524
F2.6
aF7.9
aF6.7
aF10.5
asS'YER060W'
p6525
(lp6526
F4.9
aF10.3
aF7.3
aF19.3
asS'YBR091C'
p6527
(lp6528
F2.5
aF3.9
aF3.5
aF5.5
asS'YPR030W'
p6529
(lp6530
F6.5
aF24.9
aF15.9
aF39.3
asS'YEL013W'
p6531
(lp6532
F6.9
aF49.2
aF34.1
aF74.4
asS'YDL007W'
p6533
(lp6534
F6.6
aF12.2
aF9.0
aF18.1
asS'YPR083W'
p6535
(lp6536
F1.2
aF3.0
aF2.7
aF5.4
asS'YNL094W'
p6537
(lp6538
F3.8
aF5.2
aF4.3
aF10.6
asS'YGR047C'
p6539
(lp6540
F1.8
aF4.1
aF3.6
aF5.8
asS'YKL220C'
p6541
(lp6542
F8.3
aF20.1
aF11.6
aF34.0
asS'YDR480W'
p6543
(lp6544
F4.5
aF4.0
aF3.6
aF5.8
asS'YML004C'
p6545
(lp6546
F4.7
aF10.9
aF8.7
aF15.1
asS'YPL227C'
p6547
(lp6548
F1.8
aF2.7
aF2.6
aF3.6
asS'YDL010W'
p6549
(lp6550
F5.2
aF14.0
aF10.2
aF19.1
asS'YMR024W'
p6551
(lp6552
F2.3
aF4.4
aF3.5
aF7.7
asS'YLL009C'
p6553
(lp6554
F3.5
aF5.6
aF5.0
aF8.6
asS'YML019W'
p6555
(lp6556
F2.0
aF4.6
aF4.1
aF5.7
asS'YPR024W'
p6557
(lp6558
F6.2
aF18.4
aF13.7
aF26.2
asS'YDR493W'
p6559
(lp6560
F2.2
aF3.4
aF3.0
aF4.7
asS'YDL045C'
p6561
(lp6562
F6.9
aF8.6
aF6.9
aF13.2
asS'YGR241C'
p6563
(lp6564
F5.5
aF7.8
aF6.4
aF10.8
asS'YBR071W'
p6565
(lp6566
F11.4
aF25.1
aF16.8
aF37.7
asS'YJL207C'
p6567
(lp6568
F6.5
aF39.5
aF26.0
aF62.4
asS'YDL198C'
p6569
(lp6570
F2.1
aF5.0
aF4.2
aF7.4
asS'YDR103W'
p6571
(lp6572
F8.9
aF16.7
aF11.0
aF24.5
asS'YER180C'
p6573
(lp6574
F4.4
aF4.4
aF3.8
aF6.6
asS'YKL167C'
p6575
(lp6576
F4.9
aF5.1
aF4.4
aF7.6
asS'YIR023W'
p6577
(lp6578
F2.5
aF4.2
aF3.6
aF8.4
asS'YDL092W'
p6579
(lp6580
F3.5
aF5.6
aF4.9
aF8.3
asS'YKR043C'
p6581
(lp6582
F2.9
aF6.8
aF6.0
aF9.5
asS'YLR166C'
p6583
(lp6584
F4.4
aF41.3
aF23.0
aF70.6
asS'YMR067C'
p6585
(lp6586
F3.9
aF9.8
aF7.2
aF14.5
asS'YJL011C'
p6587
(lp6588
F1.1
aF2.6
aF2.3
aF3.5
asS'YDL143W'
p6589
(lp6590
F3.5
aF13.0
aF8.0
aF20.7
asS'YKL138C'
p6591
(lp6592
F2.6
aF4.2
aF3.8
aF5.7
asS'YBL079W'
p6593
(lp6594
F3.5
aF7.1
aF5.4
aF14.2
asS'YNL056W'
p6595
(lp6596
F4.3
aF9.5
aF6.9
aF15.8
asS'YPL093W'
p6597
(lp6598
F1.1
aF2.9
aF2.8
aF3.9
asS'YDR347W'
p6599
(lp6600
F4.1
aF6.8
aF5.3
aF9.9
asS'YFL001W'
p6601
(lp6602
F1.5
aF3.0
aF2.8
aF3.8
asS'YDR150W'
p6603
(lp6604
F14.4
aF39.4
aF24.7
aF70.4
asS'YER086W'
p6605
(lp6606
F2.8
aF9.4
aF8.4
aF11.8
asS'YGL197W'
p6607
(lp6608
F9.0
aF33.0
aF21.9
aF48.4
asS'YDR207C'
p6609
(lp6610
F3.5
aF7.2
aF6.1
aF9.6
asS'YLR264W'
p6611
(lp6612
F6.7
aF23.3
aF14.4
aF32.0
asS'YKL170W'
p6613
(lp6614
F4.2
aF3.3
aF2.9
aF5.5
asS'YNL036W'
p6615
(lp6616
F4.0
aF11.0
aF8.1
aF15.9
asS'YOR115C'
p6617
(lp6618
F3.2
aF4.9
aF4.4
aF7.1
asS'YML081W'
p6619
(lp6620
F2.2
aF4.1
aF3.7
aF6.4
asS'YLR208W'
p6621
(lp6622
F4.1
aF9.9
aF7.8
aF15.1
asS'YDR267C'
p6623
(lp6624
F1.4
aF3.4
aF3.0
aF4.9
asS'YLR286C'
p6625
(lp6626
F4.5
aF24.2
aF14.9
aF35.3
asS'YNL016W'
p6627
(lp6628
F2.4
aF39.3
aF30.3
aF55.6
asS'YJL208C'
p6629
(lp6630
F2.2
aF4.4
aF3.8
aF6.0
asS'YLR384C'
p6631
(lp6632
F2.5
aF35.4
aF26.7
aF47.9
asS'YPL060W'
p6633
(lp6634
F3.9
aF5.1
aF3.9
aF8.7
asS'YPR019W'
p6635
(lp6636
F4.4
aF22.3
aF13.2
aF36.7
asS'YML099C'
p6637
(lp6638
F2.1
aF4.5
aF4.0
aF6.4
asS'YOR162C'
p6639
(lp6640
F10.9
aF23.7
aF19.5
aF35.0
asS'YLR421C'
p6641
(lp6642
F4.1
aF8.4
aF7.0
aF12.0
asS'YMR145C'
p6643
(lp6644
F2.3
aF4.0
aF3.7
aF5.6
asS'YLR090W'
p6645
(lp6646
F2.1
aF3.2
aF3.0
aF4.7
asS'YBR102C'
p6647
(lp6648
F7.3
aF20.6
aF14.7
aF29.7
asS'YJR064W'
p6649
(lp6650
F3.5
aF9.1
aF7.0
aF16.3
asS'YGL128C'
p6651
(lp6652
F3.6
aF5.9
aF4.3
aF10.9
asS'YJL002C'
p6653
(lp6654
F4.1
aF13.0
aF9.9
aF18.4
asS'YML022W'
p6655
(lp6656
F2.7
aF6.7
aF5.9
aF9.0
asS'YCR065W'
p6657
(lp6658
F2.1
aF3.7
aF3.2
aF6.2
asS'YJR031C'
p6659
(lp6660
F2.3
aF6.2
aF5.2
aF9.8
asS'YPR159W'
p6661
(lp6662
F3.6
aF33.4
aF24.7
aF44.8
asS'YGR223C'
p6663
(lp6664
F6.1
aF6.2
aF5.4
aF11.2
asS'YPR143W'
p6665
(lp6666
F1.1
aF1.8
aF1.8
aF2.5
asS'YPL079W'
p6667
(lp6668
F5.0
aF18.9
aF15.2
aF22.5
asS'YHR059W'
p6669
(lp6670
F2.1
aF3.8
aF3.5
aF5.0
asS'YPR075C'
p6671
(lp6672
F4.9
aF15.6
aF10.2
aF30.2
asS'YMR121C'
p6673
(lp6674
F4.0
aF9.0
aF7.6
aF11.9
asS'YPL011C'
p6675
(lp6676
F2.4
aF3.9
aF3.5
aF7.5
asS'YGL017W'
p6677
(lp6678
F1.8
aF3.5
aF3.1
aF6.9
asS'YKR018C'
p6679
(lp6680
F5.0
aF45.4
aF34.7
aF66.6
asS'YER099C'
p6681
(lp6682
F2.6
aF6.2
aF5.0
aF10.9
asS'YDL150W'
p6683
(lp6684
F2.3
aF4.1
aF3.7
aF5.2
asS'YJR048W'
p6685
(lp6686
F2.3
aF4.9
aF4.4
aF6.2
asS'YHR186C'
p6687
(lp6688
F3.0
aF11.8
aF7.7
aF24.6
asS'YHR084W'
p6689
(lp6690
F1.3
aF2.2
aF2.1
aF3.4
asS'YNL038W'
p6691
(lp6692
F2.2
aF4.5
aF3.9
aF6.7
asS'YKL003C'
p6693
(lp6694
F3.9
aF6.9
aF5.0
aF11.6
asS'YAL053W'
p6695
(lp6696
F2.6
aF5.3
aF4.8
aF7.2
asS'YNL149C'
p6697
(lp6698
F4.1
aF11.1
aF9.4
aF14.6
asS'YGL095C'
p6699
(lp6700
F4.7
aF11.2
aF7.9
aF18.4
asS'YBR257W'
p6701
(lp6702
F1.3
aF2.0
aF1.9
aF3.1
asS'YHR001W-A'
p6703
(lp6704
F4.8
aF10.7
aF7.7
aF15.6
asS'YJR132W'
p6705
(lp6706
F2.5
aF20.6
aF12.9
aF31.2
asS'YLR246W'
p6707
(lp6708
F3.9
aF5.9
aF4.7
aF10.3
asS'YPL028W'
p6709
(lp6710
F5.1
aF23.5
aF20.2
aF30.5
asS'YDL216C'
p6711
(lp6712
F4.4
aF10.2
aF7.8
aF17.4
asS'YIL079C'
p6713
(lp6714
F0.8
aF1.8
aF1.7
aF2.4
asS'YHR069C'
p6715
(lp6716
F2.2
aF3.4
aF3.2
aF4.8
asS'YDR329C'
p6717
(lp6718
F7.6
aF14.2
aF10.4
aF20.4
asS'YIL142W'
p6719
(lp6720
F3.5
aF11.1
aF8.5
aF17.5
asS'YFR025C'
p6721
(lp6722
F4.3
aF7.9
aF6.8
aF10.4
asS'YLR195C'
p6723
(lp6724
F4.1
aF11.3
aF9.8
aF14.1
asS'YGL249W'
p6725
(lp6726
F21.4
aF51.9
aF29.2
aF115.3
asS'YBR137W'
p6727
(lp6728
F6.1
aF14.2
aF9.1
aF23.2
asS'YKL192C'
p6729
(lp6730
F5.1
aF13.5
aF10.9
aF17.1
asS'YLR393W'
p6731
(lp6732
F4.6
aF8.6
aF5.7
aF16.5
asS'YDR310C'
p6733
(lp6734
F3.6
aF7.5
aF6.3
aF10.9
asS'YKL072W'
p6735
(lp6736
F2.4
aF4.6
aF3.8
aF7.7
asS'YPL139C'
p6737
(lp6738
F2.6
aF5.3
aF4.5
aF8.7
asS'YBR217W'
p6739
(lp6740
F4.3
aF12.0
aF7.7
aF23.1
asS'YNL154C'
p6741
(lp6742
F3.9
aF6.6
aF5.4
aF11.3
asS'YPR098C'
p6743
(lp6744
F7.1
aF44.7
aF25.5
aF97.7
asS'YNL001W'
p6745
(lp6746
F1.8
aF3.5
aF3.3
aF4.8
asS'YDL236W'
p6747
(lp6748
F2.1
aF4.0
aF3.7
aF5.0
asS'YGR174C'
p6749
(lp6750
F3.6
aF6.0
aF5.2
aF7.7
asS'YGL142C'
p6751
(lp6752
F3.9
aF5.0
aF4.2
aF8.2
asS'YFR009W'
p6753
(lp6754
F4.4
aF50.4
aF33.1
aF83.6
asS'YNL101W'
p6755
(lp6756
F4.6
aF11.0
aF7.0
aF17.6
asS'YGR179C'
p6757
(lp6758
F2.9
aF4.6
aF3.9
aF6.5
asS'YGR102C'
p6759
(lp6760
F7.6
aF16.1
aF10.0
aF31.2
asS'YJL137C'
p6761
(lp6762
F3.4
aF6.8
aF5.6
aF10.3
asS'YKL065C'
p6763
(lp6764
F6.7
aF11.2
aF8.6
aF16.3
asS'YBR115C'
p6765
(lp6766
F3.3
aF33.8
aF20.4
aF58.4
asS'YBR140C'
p6767
(lp6768
F17.9
aF52.0
aF31.9
aF97.0
asS'YDR448W'
p6769
(lp6770
F8.7
aF17.8
aF11.7
aF32.3
asS'YHR188C'
p6771
(lp6772
F5.7
aF17.8
aF13.1
aF23.9
asS'YEL048C'
p6773
(lp6774
F1.7
aF2.6
aF2.5
aF3.5
asS'YOR305W'
p6775
(lp6776
F3.4
aF7.5
aF5.1
aF15.9
asS'YFL023W'
p6777
(lp6778
F1.7
aF2.9
aF2.7
aF3.8
asS'YLR360W'
p6779
(lp6780
F4.0
aF12.9
aF7.7
aF19.2
asS'YPL189C-A'
p6781
(lp6782
F1.7
aF3.0
aF2.4
aF5.3
asS'YER087C-B'
p6783
(lp6784
F3.6
aF6.5
aF5.5
aF9.8
asS'YKL081W'
p6785
(lp6786
F2.3
aF7.7
aF6.5
aF10.2
asS'YDR092W'
p6787
(lp6788
F4.6
aF7.5
aF5.6
aF10.3
asS'YNL139C'
p6789
(lp6790
F4.9
aF14.7
aF9.2
aF28.1
asS'YDR361C'
p6791
(lp6792
F1.7
aF3.3
aF3.1
aF4.5
asS'YPL164C'
p6793
(lp6794
F4.6
aF7.0
aF5.8
aF10.2
asS'YBR171W'
p6795
(lp6796
F4.2
aF5.8
aF4.3
aF9.9
asS'YNL005C'
p6797
(lp6798
F4.3
aF9.3
aF7.1
aF13.3
asS'YNL088W'
p6799
(lp6800
F5.1
aF41.5
aF27.3
aF60.9
asS'YJL157C'
p6801
(lp6802
F1.2
aF2.4
aF2.4
aF3.9
asS'YHR206W'
p6803
(lp6804
F1.8
aF2.4
aF2.3
aF3.8
asS'YKL181W'
p6805
(lp6806
F2.7
aF5.7
aF5.0
aF9.7
asS'YDL229W'
p6807
(lp6808
F2.9
aF51.6
aF36.8
aF71.0
asS'YBR093C'
p6809
(lp6810
F3.7
aF5.9
aF4.9
aF12.6
asS'YML063W'
p6811
(lp6812
F3.6
aF19.1
aF15.0
aF23.1
asS'YPR139C'
p6813
(lp6814
F3.8
aF6.9
aF5.9
aF10.1
asS'YGL255W'
p6815
(lp6816
F2.7
aF6.3
aF4.5
aF9.6
asS'YFR007W'
p6817
(lp6818
F4.7
aF9.0
aF7.6
aF12.2
asS'YJL180C'
p6819
(lp6820
F2.3
aF3.4
aF3.1
aF5.5
asS'YKR090W'
p6821
(lp6822
F3.7
aF5.5
aF4.8
aF9.2
asS'YLR333C'
p6823
(lp6824
F3.6
aF16.5
aF12.9
aF20.1
asS'YGR181W'
p6825
(lp6826
F3.5
aF7.9
aF6.8
aF10.2
asS'YDR079C-A'
p6827
(lp6828
F5.2
aF8.6
aF5.7
aF15.2
asS'YML107C'
p6829
(lp6830
F3.9
aF5.4
aF4.7
aF9.0
asS'YGL077C'
p6831
(lp6832
F2.2
aF4.7
aF4.0
aF7.4
asS'YPL204W'
p6833
(lp6834
F3.7
aF5.6
aF4.8
aF9.1
asS'YOR131C'
p6835
(lp6836
F8.1
aF10.3
aF7.3
aF15.3
asS'YKR098C'
p6837
(lp6838
F13.1
aF40.7
aF21.9
aF98.1
asS'YOL069W'
p6839
(lp6840
F2.3
aF6.1
aF4.9
aF12.8
asS'YKL184W'
p6841
(lp6842
F3.4
aF31.6
aF20.8
aF45.4
asS'YDR412W'
p6843
(lp6844
F1.4
aF2.5
aF2.3
aF3.1
asS'YGL160W'
p6845
(lp6846
F4.7
aF7.0
aF6.3
aF10.1
asS'YOR091W'
p6847
(lp6848
F2.8
aF5.0
aF4.5
aF7.5
asS'YKR101W'
p6849
(lp6850
F4.5
aF7.0
aF5.2
aF12.7
asS'YNL129W'
p6851
(lp6852
F4.0
aF6.1
aF4.5
aF10.1
asS'YML125C'
p6853
(lp6854
F2.2
aF4.6
aF4.2
aF6.6
asS'YAL040C'
p6855
(lp6856
F2.4
aF3.4
aF2.9
aF5.6
asS'YDR288W'
p6857
(lp6858
F5.3
aF6.9
aF5.2
aF11.2
asS'YCL036W'
p6859
(lp6860
F0.8
aF2.7
aF2.7
aF5.4
asS'YFR041C'
p6861
(lp6862
F2.4
aF4.8
aF4.2
aF7.0
asS'YIL050W'
p6863
(lp6864
F4.2
aF4.6
aF4.1
aF6.2
asS'YOR355W'
p6865
(lp6866
F1.8
aF4.9
aF4.2
aF7.2
asS'YGR086C'
p6867
(lp6868
F3.3
aF12.5
aF10.8
aF16.1
asS'YPL111W'
p6869
(lp6870
F3.2
aF10.3
aF9.0
aF13.0
asS'YOR077W'
p6871
(lp6872
F1.0
aF1.2
aF1.2
aF2.8
asS'YOL143C'
p6873
(lp6874
F7.4
aF23.7
aF18.4
aF33.8
asS'YIL006W'
p6875
(lp6876
F7.2
aF7.1
aF5.4
aF11.8
asS'YAL034W-A'
p6877
(lp6878
F2.7
aF3.4
aF2.9
aF5.9
asS'YNL233W'
p6879
(lp6880
F6.2
aF11.9
aF7.2
aF19.9
asS'YBR237W'
p6881
(lp6882
F7.9
aF20.7
aF12.1
aF36.0
asS'YHL023C'
p6883
(lp6884
F3.3
aF6.9
aF5.9
aF11.5
asS'YBR197C'
p6885
(lp6886
F2.6
aF4.6
aF3.9
aF9.1
asS'YGR075C'
p6887
(lp6888
F1.9
aF3.3
aF2.9
aF5.9
asS'YJR091C'
p6889
(lp6890
F10.4
aF58.2
aF35.6
aF109.3
asS'YGR031W'
p6891
(lp6892
F3.8
aF7.0
aF5.9
aF10.4
asS'YBR271W'
p6893
(lp6894
F1.4
aF2.9
aF2.7
aF3.8
asS'YDR003W'
p6895
(lp6896
F4.7
aF5.4
aF4.6
aF7.9
asS'YBL017C'
p6897
(lp6898
F4.8
aF17.6
aF12.7
aF26.3
asS'YNL244C'
p6899
(lp6900
F4.5
aF14.5
aF10.7
aF17.7
asS'YNR027W'
p6901
(lp6902
F1.9
aF4.7
aF3.5
aF6.9
asS'YPL094C'
p6903
(lp6904
F2.6
aF4.9
aF4.3
aF6.4
asS'YAL024C'
p6905
(lp6906
F4.4
aF4.8
aF4.0
aF9.9
asS'YJR142W'
p6907
(lp6908
F4.7
aF12.4
aF10.3
aF16.1
asS'YER115C'
p6909
(lp6910
F5.5
aF12.1
aF6.4
aF21.7
asS'YBR233W-A'
p6911
(lp6912
F1.9
aF2.2
aF2.1
aF3.3
asS'YGL055W'
p6913
(lp6914
F1.5
aF9.2
aF7.9
aF13.8
asS'YPR181C'
p6915
(lp6916
F6.7
aF30.5
aF18.0
aF56.9
asS'YCL008C'
p6917
(lp6918
F4.5
aF11.5
aF8.3
aF20.3
asS'YBR092C'
p6919
(lp6920
F3.0
aF10.2
aF7.7
aF14.0
asS'YML005W'
p6921
(lp6922
F1.4
aF3.0
aF2.8
aF5.2
asS'YDR529C'
p6923
(lp6924
F7.8
aF17.8
aF12.5
aF26.7
asS'YGR044C'
p6925
(lp6926
F3.6
aF7.6
aF5.8
aF10.3
asS'YDL059C'
p6927
(lp6928
F2.4
aF3.1
aF2.7
aF5.7
asS'YOR204W'
p6929
(lp6930
F2.5
aF9.8
aF6.3
aF20.5
asS'YEL012W'
p6931
(lp6932
F8.3
aF9.8
aF7.8
aF16.4
asS'YDL006W'
p6933
(lp6934
F6.0
aF7.5
aF6.2
aF11.5
asS'YJL012C'
p6935
(lp6936
F2.6
aF11.9
aF8.2
aF21.0
asS'YDR382W'
p6937
(lp6938
F5.7
aF22.8
aF17.8
aF28.8
asS'YDR483W'
p6939
(lp6940
F5.4
aF32.0
aF24.6
aF44.1
asS'YLL008W'
p6941
(lp6942
F1.7
aF7.9
aF6.7
aF13.0
asS'YOR219C'
p6943
(lp6944
F4.6
aF8.0
aF6.1
aF12.3
asS'YDR505C'
p6945
(lp6946
F5.0
aF9.0
aF6.3
aF15.6
asS'YKL206C'
p6947
(lp6948
F3.7
aF6.8
aF4.9
aF10.7
asS'YER061C'
p6949
(lp6950
F2.6
aF4.6
aF4.0
aF6.3
asS'YLR135W'
p6951
(lp6952
F2.2
aF2.9
aF2.8
aF4.6
asS'YLR022C'
p6953
(lp6954
F2.0
aF3.5
aF3.3
aF5.0
asS'YGR068C'
p6955
(lp6956
F3.9
aF7.3
aF5.7
aF10.8
asS'YPL246C'
p6957
(lp6958
F2.4
aF3.9
aF3.6
aF5.1
asS'YOR246C'
p6959
(lp6960
F2.2
aF5.6
aF4.9
aF7.5
asS'YPL226W'
p6961
(lp6962
F2.0
aF37.1
aF25.4
aF56.0
asS'YLR073C'
p6963
(lp6964
F0.9
aF1.2
aF1.3
aF2.9
asS'YGL039W'
p6965
(lp6966
F3.7
aF6.3
aF4.7
aF10.0
asS'YNR004W'
p6967
(lp6968
F3.9
aF7.4
aF5.8
aF11.2
asS'YER183C'
p6969
(lp6970
F3.1
aF5.4
aF4.4
aF8.1
asS'YML018C'
p6971
(lp6972
F0.8
aF1.7
aF1.7
aF2.6
asS'YEL001C'
p6973
(lp6974
F6.0
aF17.3
aF13.6
aF23.4
asS'YHR090C'
p6975
(lp6976
F4.8
aF4.8
aF4.1
aF7.9
asS'YDL066W'
p6977
(lp6978
F3.7
aF59.2
aF42.2
aF87.2
asS'YER112W'
p6979
(lp6980
F3.4
aF3.5
aF3.0
aF5.1
asS'YMR319C'
p6981
(lp6982
F4.0
aF9.2
aF6.2
aF18.3
asS'YBR295W'
p6983
(lp6984
F2.0
aF3.5
aF3.1
aF5.3
asS'YMR235C'
p6985
(lp6986
F3.5
aF9.2
aF7.7
aF13.0
asS'YBL031W'
p6987
(lp6988
F2.0
aF2.7
aF2.6
aF4.0
asS'YPL270W'
p6989
(lp6990
F4.0
aF8.5
aF6.7
aF13.1
asS'YHL001W'
p6991
(lp6992
F3.4
aF22.6
aF14.6
aF37.9
asS'YNR050C'
p6993
(lp6994
F4.1
aF27.7
aF22.5
aF36.5
asS'YOR373W'
p6995
(lp6996
F7.4
aF24.2
aF16.7
aF34.3
asS'YKL208W'
p6997
(lp6998
F2.4
aF4.8
aF4.1
aF6.8
asS'YJL079C'
p6999
(lp7000
F4.7
aF15.4
aF11.3
aF22.6
asS'YCL017C'
p7001
(lp7002
F2.9
aF17.1
aF12.8
aF21.9
asS'YPL228W'
p7003
(lp7004
F4.7
aF8.5
aF6.3
aF11.8
asS'YPL260W'
p7005
(lp7006
F12.4
aF43.7
aF28.2
aF75.3
asS'YGR004W'
p7007
(lp7008
F2.0
aF3.4
aF3.2
aF4.6
asS'YML110C'
p7009
(lp7010
F8.1
aF26.4
aF20.9
aF33.1
asS'YNR016C'
p7011
(lp7012
F3.2
aF28.6
aF21.1
aF36.9
asS'YOR362C'
p7013
(lp7014
F4.3
aF12.8
aF8.5
aF20.3
asS'YPR138C'
p7015
(lp7016
F4.4
aF5.1
aF4.1
aF9.9
asS'YOL010W'
p7017
(lp7018
F1.4
aF1.9
aF1.9
aF2.6
asS'YGL048C'
p7019
(lp7020
F6.0
aF12.3
aF9.8
aF16.7
asS'YHL016C'
p7021
(lp7022
F4.4
aF12.0
aF7.0
aF22.1
asS'YOR228C'
p7023
(lp7024
F6.0
aF9.1
aF6.2
aF14.4
asS'YGL243W'
p7025
(lp7026
F1.7
aF2.7
aF2.6
aF3.4
asS'YCR053W'
p7027
(lp7028
F3.6
aF39.3
aF25.3
aF63.3
asS'YOR380W'
p7029
(lp7030
F4.6
aF11.0
aF6.4
aF17.7
asS'YER072W'
p7031
(lp7032
F2.8
aF5.7
aF5.3
aF7.2
asS'YKL106W'
p7033
(lp7034
F2.2
aF3.3
aF2.9
aF6.2
asS'YOR272W'
p7035
(lp7036
F3.0
aF6.2
aF5.5
aF8.5
asS'YGL019W'
p7037
(lp7038
F3.8
aF10.1
aF7.7
aF12.5
asS'YLR091W'
p7039
(lp7040
F4.4
aF7.8
aF5.4
aF16.2
asS'YNL330C'
p7041
(lp7042
F4.2
aF8.8
aF7.4
aF11.8
asS'YOR138C'
p7043
(lp7044
F3.9
aF8.6
aF6.5
aF16.6
asS'YPR029C'
p7045
(lp7046
F5.1
aF9.2
aF6.7
aF16.5
asS'YML098W'
p7047
(lp7048
F4.5
aF9.3
aF7.0
aF13.9
asS'YLR420W'
p7049
(lp7050
F4.8
aF14.3
aF10.5
aF19.8
asS'YJR067C'
p7051
(lp7052
F1.5
aF3.6
aF3.3
aF4.8
asS'YOR252W'
p7053
(lp7054
F1.6
aF2.4
aF2.3
aF3.0
asS'YDR208W'
p7055
(lp7056
F4.6
aF7.6
aF6.5
aF10.4
asS'YDR075W'
p7057
(lp7058
F1.1
aF1.3
aF1.4
aF2.6
asS'YFL048C'
p7059
(lp7060
F8.2
aF11.7
aF8.9
aF18.8
asS'YLR117C'
p7061
(lp7062
F4.7
aF8.1
aF5.4
aF16.1
asS'YGR220C'
p7063
(lp7064
F4.1
aF6.7
aF5.3
aF10.2
asS'YBR014C'
p7065
(lp7066
F8.9
aF21.8
aF16.5
aF33.8
asS'YML052W'
p7067
(lp7068
F3.5
aF4.4
aF4.0
aF6.0
asS'YDL153C'
p7069
(lp7070
F3.1
aF8.5
aF7.2
aF11.9
asS'YLR299W'
p7071
(lp7072
F5.4
aF14.0
aF8.7
aF20.8
asS'YOR176W'
p7073
(lp7074
F4.3
aF38.4
aF28.9
aF51.4
asS'YHR187W'
p7075
(lp7076
F2.1
aF2.9
aF2.8
aF4.1
asS'YKL135C'
p7077
(lp7078
F4.4
aF13.9
aF9.0
aF27.2
asS'YNL172W'
p7079
(lp7080
F3.4
aF6.8
aF5.4
aF11.0
asS'YGR275W'
p7081
(lp7082
F4.2
aF6.1
aF5.3
aF8.6
asS'YMR071C'
p7083
(lp7084
F7.1
aF9.8
aF7.3
aF17.9
asS'YIR033W'
p7085
(lp7086
F4.2
aF10.4
aF7.9
aF17.2
asS'YBL089W'
p7087
(lp7088
F3.7
aF4.9
aF4.4
aF8.7
asS'YDL084W'
p7089
(lp7090
F4.5
aF28.4
aF21.3
aF37.2
asS'YGL016W'
p7091
(lp7092
F2.3
aF17.2
aF10.9
aF32.4
asS'YOR209C'
p7093
(lp7094
F4.7
aF13.5
aF10.7
aF18.6
asS'YCR073W-A'
p7095
(lp7096
F6.2
aF14.0
aF10.9
aF19.8
asS'YKL033W'
p7097
(lp7098
F1.8
aF4.1
aF3.4
aF6.6
asS'YLL022C'
p7099
(lp7100
F10.9
aF17.2
aF12.9
aF28.7
asS'YOR143C'
p7101
(lp7102
F1.0
aF2.3
aF2.2
aF3.2
asS'YER029C'
p7103
(lp7104
F3.3
aF4.9
aF4.1
aF7.3
asS'YCL055W'
p7105
(lp7106
F2.4
aF6.4
aF5.1
aF12.9
asS'YDR490C'
p7107
(lp7108
F6.0
aF15.7
aF10.8
aF22.2
asS'YER005W'
p7109
(lp7110
F3.4
aF5.9
aF5.1
aF9.2
asS'YGL116W'
p7111
(lp7112
F4.4
aF8.0
aF6.6
aF13.5
asS'YDL028C'
p7113
(lp7114
F7.1
aF8.8
aF6.4
aF17.8
asS'YOR194C'
p7115
(lp7116
F4.3
aF10.4
aF5.6
aF18.4
asS'YER050C'
p7117
(lp7118
F5.0
aF8.1
aF6.6
aF11.5
asS'YCR008W'
p7119
(lp7120
F3.9
aF6.8
aF5.7
aF13.2
asS'YBL104C'
p7121
(lp7122
F1.9
aF3.6
aF2.9
aF5.6
asS'YKL165C'
p7123
(lp7124
F2.6
aF4.8
aF4.1
aF6.7
asS'YCR071C'
p7125
(lp7126
F4.2
aF5.1
aF4.6
aF7.8
asS'YDR518W'
p7127
(lp7128
F4.0
aF17.1
aF13.8
aF23.2
asS'YLR119W'
p7129
(lp7130
F7.1
aF7.1
aF5.6
aF10.2
asS'YDR175C'
p7131
(lp7132
F3.6
aF4.9
aF3.6
aF8.2
asS'YLR082C'
p7133
(lp7134
F4.9
aF5.7
aF4.8
aF8.1
asS'YOR341W'
p7135
(lp7136
F2.3
aF20.7
aF13.5
aF33.6
asS'YMR159C'
p7137
(lp7138
F13.7
aF12.9
aF8.8
aF23.3
asS'YOR189W'
p7139
(lp7140
F2.7
aF5.9
aF4.7
aF8.2
asS'YOR108W'
p7141
(lp7142
F2.0
aF5.0
aF4.3
aF7.1
asS'YDL122W'
p7143
(lp7144
F2.4
aF5.3
aF4.6
aF9.2
asS'YMR264W'
p7145
(lp7146
F4.6
aF9.2
aF7.8
aF12.1
asS'YPR121W'
p7147
(lp7148
F4.4
aF8.3
aF5.0
aF15.1
asS'YDL188C'
p7149
(lp7150
F4.3
aF11.9
aF9.1
aF16.9
asS'YLR065C'
p7151
(lp7152
F2.8
aF5.8
aF5.0
aF7.9
asS'YGR268C'
p7153
(lp7154
F7.4
aF32.1
aF21.5
aF50.3
asS'YDL037C'
p7155
(lp7156
F2.7
aF5.1
aF4.2
aF7.0
asS'YNL315C'
p7157
(lp7158
F2.7
aF5.3
aF4.7
aF7.2
asS'YOR299W'
p7159
(lp7160
F3.4
aF7.4
aF6.1
aF11.3
asS'YEL065W'
p7161
(lp7162
F2.2
aF5.3
aF4.8
aF7.8
asS'YDR420W'
p7163
(lp7164
F2.5
aF5.4
aF4.8
aF8.8
asS'YHR189W'
p7165
(lp7166
F5.8
aF10.6
aF8.3
aF15.9
asS'YNR033W'
p7167
(lp7168
F6.2
aF14.0
aF8.9
aF23.6
asS'YLR385C'
p7169
(lp7170
F2.6
aF3.6
aF3.3
aF5.6
asS'YOR056C'
p7171
(lp7172
F2.1
aF4.4
aF3.8
aF5.8
asS'YIL125W'
p7173
(lp7174
F6.2
aF30.0
aF20.0
aF52.0
asS'YBR141C'
p7175
(lp7176
F1.5
aF2.7
aF2.6
aF4.0
asS'YHR036W'
p7177
(lp7178
F2.8
aF4.6
aF3.9
aF8.7
asS'YKL148C'
p7179
(lp7180
F6.7
aF28.6
aF15.2
aF51.8
asS'YKL112W'
p7181
(lp7182
F8.7
aF44.7
aF30.1
aF79.0
asS'YJL076W'
p7183
(lp7184
F3.8
aF27.7
aF16.1
aF44.2
asS'YKL062W'
p7185
(lp7186
F1.9
aF3.3
aF2.8
aF6.8
asS'YLR238W'
p7187
(lp7188
F3.4
aF5.0
aF3.7
aF9.0
asS'YMR023C'
p7189
(lp7190
F2.3
aF5.0
aF3.9
aF8.6
asS'YLR218C'
p7191
(lp7192
F4.6
aF11.1
aF7.8
aF19.3
asS'YBR114W'
p7193
(lp7194
F4.4
aF11.0
aF8.2
aF17.4
asS'YPR174C'
p7195
(lp7196
F13.6
aF24.6
aF17.6
aF35.5
asS'YNR043W'
p7197
(lp7198
F2.9
aF15.9
aF13.1
aF20.5
asS'YNL075W'
p7199
(lp7200
F2.6
aF4.4
aF3.7
aF8.4
asS'YKL028W'
p7201
(lp7202
F4.1
aF11.4
aF7.3
aF22.3
asS'YLR222C'
p7203
(lp7204
F1.4
aF3.9
aF3.5
aF5.6
asS'YLR221C'
p7205
(lp7206
F2.8
aF4.1
aF3.8
aF5.2
asS'YDR093W'
p7207
(lp7208
F3.6
aF6.7
aF5.6
aF10.1
asS'YMR282C'
p7209
(lp7210
F4.1
aF4.7
aF4.1
aF8.4
asS'YIL109C'
p7211
(lp7212
F4.6
aF31.7
aF20.9
aF52.4
asS'YPL165C'
p7213
(lp7214
F15.9
aF21.1
aF13.7
aF34.6
asS'YPL070W'
p7215
(lp7216
F2.2
aF3.8
aF3.5
aF6.6
asS'YLR361C'
p7217
(lp7218
F4.8
aF17.3
aF15.3
aF20.0
asS'YOR085W'
p7219
(lp7220
F4.3
aF15.9
aF11.9
aF24.2
asS'YDR362C'
p7221
(lp7222
F2.3
aF5.2
aF4.6
aF8.3
asS'YFL022C'
p7223
(lp7224
F4.3
aF25.3
aF17.9
aF38.1
asS'YOL101C'
p7225
(lp7226
F6.0
aF5.7
aF4.6
aF10.3
asS'YJL156C'
p7227
(lp7228
F2.4
aF27.3
aF13.6
aF47.4
asS'YFL026W'
p7229
(lp7230
F2.2
aF4.7
aF4.1
aF6.4
asS'YKL082C'
p7231
(lp7232
F3.1
aF5.3
aF4.4
aF8.2
asS'YKL180W'
p7233
(lp7234
F3.7
aF16.4
aF13.4
aF21.2
asS'YMR064W'
p7235
(lp7236
F3.6
aF4.6
aF3.8
aF7.6
asS'YKL166C'
p7237
(lp7238
F2.6
aF2.8
aF2.7
aF4.0
asS'YJR007W'
p7239
(lp7240
F3.2
aF6.7
aF5.9
aF9.7
asS'YJL174W'
p7241
(lp7242
F8.1
aF28.5
aF20.0
aF41.4
asS'YJL069C'
p7243
(lp7244
F1.2
aF2.6
aF2.4
aF3.6
asS'YNL185C'
p7245
(lp7246
F4.2
aF4.5
aF3.7
aF7.8
asS'YLR168C'
p7247
(lp7248
F10.2
aF8.5
aF6.5
aF15.4
asS'YLR298C'
p7249
(lp7250
F6.5
aF13.0
aF9.2
aF18.9
asS'YDL201W'
p7251
(lp7252
F2.0
aF3.2
aF2.9
aF4.5
asS'YPL078C'
p7253
(lp7254
F4.8
aF10.2
aF8.4
aF15.4
asS'YJL118W'
p7255
(lp7256
F1.1
aF3.4
aF2.6
aF6.4
asS'YPR137W'
p7257
(lp7258
F1.0
aF2.1
aF2.0
aF3.7
asS'YGL001C'
p7259
(lp7260
F4.5
aF14.5
aF11.3
aF18.7
asS'YJR058C'
p7261
(lp7262
F3.4
aF6.6
aF5.6
aF9.2
asS'YDL115C'
p7263
(lp7264
F7.2
aF9.1
aF7.0
aF14.7
asS'YER087W'
p7265
(lp7266
F4.9
aF9.5
aF7.0
aF17.9
asS'YDL140C'
p7267
(lp7268
F4.9
aF48.9
aF31.7
aF81.2
asS'YPR156C'
p7269
(lp7270
F2.0
aF3.7
aF3.2
aF5.6
asS'YKL124W'
p7271
(lp7272
F10.5
aF18.0
aF13.1
aF27.7
asS'YDR304C'
p7273
(lp7274
F12.0
aF40.5
aF27.3
aF70.9
asS'YKL171W'
p7275
(lp7276
F4.6
aF11.1
aF8.8
aF16.7
asS'YDL219W'
p7277
(lp7278
F5.5
aF16.1
aF11.1
aF19.6
asS'YPL038W'
p7279
(lp7280
F3.6
aF4.8
aF4.1
aF8.4
asS'YCR086W'
p7281
(lp7282
F2.0
aF1.8
aF1.8
aF3.0
asS'YGL194C'
p7283
(lp7284
F4.2
aF21.0
aF14.6
aF28.8
asS'YPL026C'
p7285
(lp7286
F1.0
aF2.0
aF2.2
aF3.2
asS'YOR116C'
p7287
(lp7288
F1.8
aF8.0
aF6.3
aF14.1
asS'YKR024C'
p7289
(lp7290
F1.0
aF2.8
aF2.6
aF3.9
asS'YNL037C'
p7291
(lp7292
F2.4
aF5.5
aF4.8
aF8.0
asS'YFL013C'
p7293
(lp7294
F7.6
aF24.8
aF12.6
aF39.3
asS'YPL063W'
p7295
(lp7296
F3.2
aF6.5
aF5.6
aF8.5
asS'YKL140W'
p7297
(lp7298
F6.4
aF14.3
aF10.9
aF21.2
asS'YFR040W'
p7299
(lp7300
F2.7
aF6.2
aF4.5
aF12.1
asS'YML124C'
p7301
(lp7302
F4.3
aF13.8
aF11.7
aF19.4
asS'YIL107C'
p7303
(lp7304
F21.0
aF40.1
aF27.9
aF66.8
asS'YOL142W'
p7305
(lp7306
F1.5
aF2.5
aF2.4
aF3.5
asS'YDR287W'
p7307
(lp7308
F7.5
aF16.4
aF12.1
aF21.6
asS'YGL209W'
p7309
(lp7310
F3.4
aF4.0
aF3.5
aF8.0
asS'YOR326W'
p7311
(lp7312
F7.4
aF50.2
aF28.6
aF95.5
asS'YDR405W'
p7313
(lp7314
F3.4
aF6.6
aF5.7
aF8.9
asS'YIL007C'
p7315
(lp7316
F7.4
aF9.5
aF7.8
aF15.3
asS'YGR087C'
p7317
(lp7318
F6.4
aF12.5
aF7.9
aF24.3
asS'YCL031C'
p7319
(lp7320
F2.5
aF3.9
aF3.5
aF6.0
asS'YHL022C'
p7321
(lp7322
F4.0
aF9.5
aF7.7
aF12.1
asS'YLR459W'
p7323
(lp7324
F3.5
aF7.7
aF6.3
aF11.1
asS'YNL243W'
p7325
(lp7326
F5.0
aF37.8
aF27.9
aF58.2
asS'YGR152C'
p7327
(lp7328
F2.7
aF6.1
aF4.8
aF9.0
asS'YJL090C'
p7329
(lp7330
F2.0
aF3.4
aF3.0
aF5.4
asS'YJR143C'
p7331
(lp7332
F2.8
aF7.8
aF6.7
aF9.9
asS'YKR031C'
p7333
(lp7334
F4.3
aF7.0
aF5.8
aF10.8
asS'YGL252C'
p7335
(lp7336
F4.9
aF11.2
aF7.7
aF20.1
asS'YNL336W'
p7337
(lp7338
F5.6
aF10.5
aF9.2
aF13.1
asS'YGR147C'
p7339
(lp7340
F4.0
aF5.2
aF4.5
aF8.7
asS'YDR002W'
p7341
(lp7342
F7.6
aF30.4
aF22.9
aF44.3
asS'YJR092W'
p7343
(lp7344
F5.8
aF39.5
aF24.9
aF67.3
asS'YOR311C'
p7345
(lp7346
F2.2
aF3.6
aF3.3
aF5.8
asS'YGR030C'
p7347
(lp7348
F2.0
aF1.8
aF1.7
aF3.1
asS'YAL025C'
p7349
(lp7350
F1.1
aF2.5
aF2.4
aF3.2
asS'YBL014C'
p7351
(lp7352
F1.2
aF2.3
aF2.2
aF3.3
asS'YPR072W'
p7353
(lp7354
F4.3
aF9.7
aF6.3
aF17.1
asS'YGL094C'
p7355
(lp7356
F2.8
aF5.2
aF4.6
aF8.0
asS'YNL039W'
p7357
(lp7358
F8.1
aF16.8
aF10.2
aF27.1
asS'YBR170C'
p7359
(lp7360
F10.8
aF59.4
aF36.2
aF113.2
asS'YPR100W'
p7361
(lp7362
F4.2
aF8.3
aF6.4
aF13.2
asS'YDR458C'
p7363
(lp7364
F3.4
aF4.2
aF3.7
aF8.2
asS'YJR118C'
p7365
(lp7366
F3.6
aF6.6
aF5.3
aF11.3
asS'YOR016C'
p7367
(lp7368
F3.5
aF10.4
aF7.1
aF17.0
asS'YDL217C'
p7369
(lp7370
F1.8
aF4.1
aF3.9
aF5.6
asS'YGR165W'
p7371
(lp7372
F2.6
aF3.7
aF3.3
aF5.4
asS'YLL043W'
p7373
(lp7374
F4.4
aF10.3
aF8.2
aF16.0
asS'YGR083C'
p7375
(lp7376
F3.1
aF5.1
aF4.6
aF7.6
asS'YBR254C'
p7377
(lp7378
F1.2
aF2.8
aF2.7
aF3.8
asS'YDR313C'
p7379
(lp7380
F14.6
aF20.9
aF15.1
aF34.1
asS'YBR136W'
p7381
(lp7382
F13.7
aF30.9
aF16.1
aF50.9
asS'YLR245C'
p7383
(lp7384
F6.0
aF14.9
aF8.1
aF26.8
asS'YKL193C'
p7385
(lp7386
F7.4
aF11.0
aF8.7
aF17.1
asS'YNL153C'
p7387
(lp7388
F2.1
aF3.7
aF3.6
aF4.9
asS'YGL083W'
p7389
(lp7390
F6.5
aF7.4
aF6.0
aF11.4
asS'YJL083W'
p7391
(lp7392
F7.1
aF25.0
aF17.0
aF40.0
asS'YLR310C'
p7393
(lp7394
F8.8
aF15.3
aF8.7
aF31.3
asS'YOR060C'
p7395
(lp7396
F4.3
aF6.5
aF5.4
aF11.0
asS'YNR064C'
p7397
(lp7398
F2.2
aF7.0
aF5.1
aF12.5
asS'YDL237W'
p7399
(lp7400
F6.2
aF20.4
aF18.0
aF25.4
asS'YJR085C'
p7401
(lp7402
F9.0
aF42.0
aF25.4
aF100.7
asS'YBR249C'
p7403
(lp7404
F3.9
aF19.2
aF16.2
aF23.6
asS'YFR008W'
p7405
(lp7406
F4.8
aF10.1
aF6.8
aF16.3
asS'YNL102W'
p7407
(lp7408
F3.8
aF22.6
aF18.3
aF28.1
asS'YOL077C'
p7409
(lp7410
F1.6
aF2.8
aF2.6
aF3.8
asS'YOL086W-A'
p7411
(lp7412
F6.7
aF9.8
aF7.7
aF16.5
asS'YHR031C'
p7413
(lp7414
F3.4
aF19.6
aF11.2
aF31.9
asS'YKL209C'
p7415
(lp7416
F2.8
aF5.2
aF4.7
aF7.1
asS'YBR084W'
p7417
(lp7418
F4.3
aF34.7
aF21.6
aF48.9
asS'YLR003C'
p7419
(lp7420
F1.9
aF3.5
aF3.3
aF4.7
asS'YGR049W'
p7421
(lp7422
F4.0
aF9.0
aF7.5
aF11.2
asS'YDL061C'
p7423
(lp7424
F2.4
aF7.1
aF6.1
aF9.7
asS'YER113C'
p7425
(lp7426
F4.1
aF7.2
aF5.0
aF15.5
asS'YOR261C'
p7427
(lp7428
F6.4
aF13.2
aF8.8
aF19.9
asS'YNR051C'
p7429
(lp7430
F3.5
aF4.4
aF3.4
aF8.2
asS'YGR187C'
p7431
(lp7432
F1.8
aF3.6
aF3.4
aF5.3
asS'YKL101W'
p7433
(lp7434
F8.1
aF20.6
aF13.5
aF33.3
asS'YHR122W'
p7435
(lp7436
F3.1
aF5.5
aF5.1
aF7.0
asS'YDR390C'
p7437
(lp7438
F3.2
aF5.5
aF4.9
aF7.7
asS'YOR229W'
p7439
(lp7440
F1.2
aF2.9
aF2.7
aF3.8
asS'YKL164C'
p7441
(lp7442
F2.3
aF3.9
aF3.6
aF5.5
asS'YEL024W'
p7443
(lp7444
F4.1
aF5.7
aF5.1
aF8.2
asS'YOR383C'
p7445
(lp7446
F11.9
aF52.2
aF29.6
aF129.6
asS'YJR010C-A'
p7447
(lp7448
F2.5
aF11.8
aF8.8
aF15.6
asS'YIL085C'
p7449
(lp7450
F3.4
aF8.1
aF6.1
aF13.7
asS'YMR190C'
p7451
(lp7452
F8.9
aF17.8
aF10.1
aF33.0
asS'YGR005C'
p7453
(lp7454
F4.1
aF6.6
aF5.5
aF9.7
asS'YBL032W'
p7455
(lp7456
F2.2
aF3.3
aF3.2
aF4.1
asS'YGL049C'
p7457
(lp7458
F1.1
aF5.7
aF4.9
aF8.3
asS'YDR023W'
p7459
(lp7460
F2.6
aF12.6
aF10.1
aF18.9
asS'YHL034C'
p7461
(lp7462
F4.0
aF9.7
aF8.2
aF12.2
asS'YHL048W'
p7463
(lp7464
F4.5
aF12.4
aF9.1
aF18.5
asS'YLR010C'
p7465
(lp7466
F2.5
aF4.7
aF3.8
aF8.8
asS'YCR052W'
p7467
(lp7468
F2.8
aF5.3
aF4.6
aF7.2
asS'YNL209W'
p7469
(lp7470
F2.8
aF35.2
aF24.4
aF50.6
asS'YNL294C'
p7471
(lp7472
F4.0
aF7.0
aF5.2
aF14.2
asS'YLR332W'
p7473
(lp7474
F2.2
aF4.4
aF4.0
aF6.5
asS'YBR272C'
p7475
(lp7476
F6.1
aF8.4
aF6.3
aF14.7
asS'YDR298C'
p7477
(lp7478
F3.3
aF6.9
aF6.1
aF10.1
asS'YDR011W'
p7479
(lp7480
F10.4
aF26.2
aF17.8
aF39.0
asS'YIL061C'
p7481
(lp7482
F1.7
aF2.2
aF2.1
aF2.8
asS'YBL009W'
p7483
(lp7484
F1.7
aF3.7
aF3.4
aF5.2
asS'YDR182W'
p7485
(lp7486
F4.9
aF8.2
aF6.6
aF12.4
asS'YGL254W'
p7487
(lp7488
F2.9
aF4.5
aF4.1
aF6.3
asS'YOL059W'
p7489
(lp7490
F2.3
aF4.6
aF4.1
aF5.8
asS'YPR097W'
p7491
(lp7492
F3.9
aF15.7
aF9.9
aF27.5
asS'YHL031C'
p7493
(lp7494
F7.0
aF10.9
aF9.0
aF14.3
asS'YKL074C'
p7495
(lp7496
F1.4
aF2.5
aF2.3
aF3.5
asS'YOR095C'
p7497
(lp7498
F2.4
aF5.2
aF4.4
aF8.4
asS'YOL151W'
p7499
(lp7500
F7.8
aF15.4
aF11.8
aF19.5
asS'YOR147W'
p7501
(lp7502
F4.4
aF4.5
aF3.9
aF7.7
asS'YKL213C'
p7503
(lp7504
F5.0
aF21.9
aF14.3
aF30.7
asS'YHR026W'
p7505
(lp7506
F4.7
aF14.0
aF10.5
aF20.0
asS'YGR104C'
p7507
(lp7508
F2.6
aF5.6
aF4.7
aF9.4
asS'YBR203W'
p7509
(lp7510
F6.9
aF13.3
aF9.2
aF21.6
asS'YLR437C'
p7511
(lp7512
F3.2
aF5.3
aF4.1
aF8.6
asS'YNL238W'
p7513
(lp7514
F4.9
aF9.9
aF6.5
aF22.3
asS'YOR090C'
p7515
(lp7516
F8.3
aF22.0
aF15.4
aF30.6
asS'YNL254C'
p7517
(lp7518
F2.1
aF3.2
aF2.8
aF5.4
asS'YJL198W'
p7519
(lp7520
F1.8
aF3.7
aF3.4
aF4.9
asS'YPL207W'
p7521
(lp7522
F3.3
aF11.0
aF9.1
aF15.8
asS'YDR197W'
p7523
(lp7524
F6.3
aF9.9
aF7.1
aF18.2
asS'YNL138W-A'
p7525
(lp7526
F3.4
aF7.6
aF5.9
aF10.5
asS'YGL076C'
p7527
(lp7528
F5.6
aF29.1
aF19.6
aF42.6
asS'YNL289W'
p7529
(lp7530
F1.0
aF2.7
aF2.5
aF6.2
asS'YOR323C'
p7531
(lp7532
F4.7
aF22.9
aF17.7
aF30.3
asS'YLL041C'
p7533
(lp7534
F10.8
aF22.1
aF17.1
aF35.3
asS'YML106W'
p7535
(lp7536
F3.1
aF11.5
aF9.7
aF15.4
asS'YCR009C'
p7537
(lp7538
F5.4
aF13.0
aF10.2
aF18.6
asS'YMR200W'
p7539
(lp7540
F3.5
aF7.2
aF6.0
aF10.1
asS'YDR118W'
p7541
(lp7542
F6.9
aF15.5
aF8.8
aF23.2
asS'YOR193W'
p7543
(lp7544
F6.9
aF8.0
aF6.0
aF14.9
asS'YLR118C'
p7545
(lp7546
F7.7
aF25.4
aF20.3
aF31.8
asS'YER006W'
p7547
(lp7548
F2.5
aF7.3
aF6.5
aF9.1
asS'YLR084C'
p7549
(lp7550
F4.3
aF6.0
aF4.9
aF11.4
asS'YER026C'
p7551
(lp7552
F2.9
aF5.2
aF4.8
aF6.6
asS'YLR182W'
p7553
(lp7554
F4.4
aF5.3
aF4.1
aF10.7
asS'YLL034C'
p7555
(lp7556
F1.7
aF5.9
aF4.6
aF9.8
asS'YBL105C'
p7557
(lp7558
F3.5
aF18.0
aF9.3
aF35.3
asS'YOR196C'
p7559
(lp7560
F2.1
aF4.4
aF3.6
aF7.4
asS'YKR060W'
p7561
(lp7562
F1.1
aF1.4
aF1.4
aF2.3
asS'YDR069C'
p7563
(lp7564
F13.5
aF29.3
aF19.7
aF42.6
asS'YKR048C'
p7565
(lp7566
F11.9
aF44.1
aF30.1
aF80.7
asS'YOR144C'
p7567
(lp7568
F2.0
aF2.6
aF2.6
aF5.0
asS'YGR232W'
p7569
(lp7570
F6.4
aF13.9
aF10.3
aF19.0
asS'YEL066W'
p7571
(lp7572
F5.1
aF19.3
aF14.1
aF28.0
asS'YEL046C'
p7573
(lp7574
F1.4
aF4.9
aF4.6
aF6.2
asS'YPR035W'
p7575
(lp7576
F1.2
aF4.3
aF3.9
aF6.7
asS'YDL189W'
p7577
(lp7578
F1.9
aF3.2
aF2.8
aF5.2
asS'YNL314W'
p7579
(lp7580
F2.4
aF5.3
aF4.8
aF8.0
asS'YDL123W'
p7581
(lp7582
F4.1
aF10.2
aF6.8
aF17.2
asS'YDR227W'
p7583
(lp7584
F3.0
aF5.1
aF4.1
aF8.7
asS'YDL130W-A'
p7585
(lp7586
F10.3
aF27.1
aF16.2
aF43.7
asS'YML008C'
p7587
(lp7588
F5.1
aF34.9
aF23.4
aF57.1
asS'YDL054C'
p7589
(lp7590
F2.5
aF5.5
aF4.9
aF7.4
asS'YKR013W'
p7591
(lp7592
F4.0
aF12.6
aF9.3
aF16.7
asS'YDR174W'
p7593
(lp7594
F3.4
aF9.4
aF7.4
aF13.6
asS'YOR265W'
p7595
(lp7596
F4.1
aF12.3
aF9.1
aF16.2
asS'YML073C'
p7597
(lp7598
F3.5
aF16.4
aF13.5
aF21.8
asS'YOR157C'
p7599
(lp7600
F6.9
aF18.9
aF13.4
aF26.6
asS'YNL257C'
p7601
(lp7602
F4.9
aF10.1
aF7.7
aF19.3
asS'YHR143W-A'
p7603
(lp7604
F2.6
aF2.5
aF2.3
aF3.8
asS'YCL056C'
p7605
(lp7606
F2.7
aF6.3
aF4.5
aF11.5
asS'YBR044C'
p7607
(lp7608
F4.0
aF5.9
aF4.7
aF10.6
asS'YOR287C'
p7609
(lp7610
F1.4
aF2.5
aF2.4
aF3.2
asS'YJR105W'
p7611
(lp7612
F5.4
aF37.3
aF27.8
aF55.4
asS'YPR042C'
p7613
(lp7614
F6.9
aF54.0
aF35.5
aF106.1
asS'YCL009C'
p7615
(lp7616
F6.2
aF39.3
aF30.5
aF55.9
asS'YDL072C'
p7617
(lp7618
F6.9
aF12.7
aF10.6
aF16.9
asS'YER159C'
p7619
(lp7620
F2.2
aF3.0
aF2.8
aF4.0
asS'YDL005C'
p7621
(lp7622
F4.3
aF8.3
aF5.8
aF13.8
asS'YER122C'
p7623
(lp7624
F4.6
aF9.2
aF6.7
aF17.1
asS'YHR113W'
p7625
(lp7626
F7.9
aF22.8
aF17.1
aF34.5
asS'YMR212C'
p7627
(lp7628
F2.6
aF5.1
aF4.1
aF9.0
asS'YER048W-A'
p7629
(lp7630
F3.5
aF10.7
aF8.0
aF17.4
asS'YDR482C'
p7631
(lp7632
F2.8
aF4.7
aF3.7
aF6.9
asS'YJL196C'
p7633
(lp7634
F2.7
aF5.7
aF5.1
aF7.4
asS'YDR034C'
p7635
(lp7636
F2.4
aF3.8
aF3.6
aF7.8
asS'YGL054C'
p7637
(lp7638
F5.1
aF9.8
aF8.0
aF13.4
asS'YNL230C'
p7639
(lp7640
F6.5
aF11.5
aF7.1
aF21.8
asS'YLR021W'
p7641
(lp7642
F2.5
aF4.7
aF3.9
aF6.5
asS'YOL126C'
p7643
(lp7644
F1.0
aF1.9
aF2.0
aF2.8
asS'YLR058C'
p7645
(lp7646
F1.2
aF4.9
aF3.9
aF9.4
asS'YMR142C'
p7647
(lp7648
F4.0
aF17.3
aF15.0
aF21.7
asS'YOR247W'
p7649
(lp7650
F2.8
aF11.8
aF8.6
aF17.0
asS'YEL006W'
p7651
(lp7652
F3.5
aF4.7
aF4.1
aF7.4
asS'YNL322C'
p7653
(lp7654
F7.3
aF28.3
aF19.0
aF38.6
asS'YDR506C'
p7655
(lp7656
F2.8
aF7.3
aF5.7
aF11.5
asS'YGL038C'
p7657
(lp7658
F6.7
aF7.7
aF6.1
aF15.8
asS'YLR074C'
p7659
(lp7660
F2.2
aF4.5
aF4.1
aF5.5
asS'YNL216W'
p7661
(lp7662
F2.2
aF13.2
aF8.4
aF25.4
asS'YKL207W'
p7663
(lp7664
F3.9
aF7.9
aF6.5
aF11.8
asS'YLR405W'
p7665
(lp7666
F1.0
aF2.3
aF2.1
aF4.8
asS'YNL227C'
p7667
(lp7668
F3.1
aF4.1
aF3.3
aF6.8
asS'YPL225W'
p7669
(lp7670
F14.5
aF40.8
aF26.6
aF81.1
asS'YDL043C'
p7671
(lp7672
F2.0
aF4.9
aF4.2
aF6.4
asS'YHR091C'
p7673
(lp7674
F4.2
aF4.9
aF3.8
aF9.0
asS'YJL024C'
p7675
(lp7676
F3.7
aF6.6
aF5.8
aF8.8
asS'YPR148C'
p7677
(lp7678
F4.6
aF7.9
aF6.7
aF11.6
asS'YER031C'
p7679
(lp7680
F6.1
aF14.0
aF9.9
aF21.6
asS'YJR006W'
p7681
(lp7682
F4.4
aF9.3
aF6.8
aF16.9
asS'YDR345C'
p7683
(lp7684
F2.8
aF5.8
aF5.4
aF7.5
asS'YJL177W'
p7685
(lp7686
F3.8
aF31.2
aF25.0
aF37.4
asS'YGL002W'
p7687
(lp7688
F4.7
aF7.9
aF6.6
aF11.7
asS'YDL182W'
p7689
(lp7690
F1.7
aF3.5
aF3.2
aF4.4
asS'YGL139W'
p7691
(lp7692
F2.5
aF4.5
aF4.1
aF6.8
asS'YJL117W'
p7693
(lp7694
F4.8
aF15.6
aF10.8
aF22.8
asS'YKL108W'
p7695
(lp7696
F3.9
aF5.0
aF4.0
aF10.1
asS'YDR156W'
p7697
(lp7698
F2.3
aF5.9
aF4.9
aF8.9
asS'YOR117W'
p7699
(lp7700
F4.7
aF14.0
aF9.5
aF20.3
asS'YLR176C'
p7701
(lp7702
F9.3
aF11.2
aF7.2
aF20.0
asS'YNL049C'
p7703
(lp7704
F2.7
aF8.8
aF5.7
aF16.0
asS'YMR025W'
p7705
(lp7706
F2.7
aF7.0
aF4.8
aF11.7
asS'YKL172W'
p7707
(lp7708
F1.4
aF2.5
aF2.4
aF3.4
asS'YKR025W'
p7709
(lp7710
F2.8
aF6.9
aF6.1
aF8.9
asS'YMR290C'
p7711
(lp7712
F2.3
aF6.4
aF5.8
aF8.0
asS'YDL141W'
p7713
(lp7714
F2.7
aF7.7
aF6.3
aF12.9
asS'YDR205W'
p7715
(lp7716
F2.3
aF6.4
aF4.8
aF13.4
asS'YJR059W'
p7717
(lp7718
F9.5
aF16.2
aF11.0
aF25.0
asS'YJL108C'
p7719
(lp7720
F1.8
aF2.7
aF2.6
aF3.4
asS'YLR266C'
p7721
(lp7722
F2.4
aF4.3
aF3.8
aF7.3
asS'YLR206W'
p7723
(lp7724
F10.1
aF25.5
aF17.2
aF38.9
asS'YER088C'
p7725
(lp7726
F6.0
aF17.8
aF11.6
aF29.9
asS'YLR284C'
p7727
(lp7728
F11.4
aF28.3
aF14.8
aF54.1
asS'YNL014W'
p7729
(lp7730
F4.3
aF7.7
aF5.1
aF13.5
asS'YDR076W'
p7731
(lp7732
F11.9
aF14.5
aF10.0
aF24.7
asS'YDR508C'
p7733
(lp7734
F2.4
aF4.3
aF3.9
aF6.1
asS'YPR028W'
p7735
(lp7736
F16.6
aF50.5
aF31.7
aF123.2
asS'YMR117C'
p7737
(lp7738
F2.4
aF3.5
aF3.2
aF5.9
asS'YLR096W'
p7739
(lp7740
F2.5
aF5.7
aF4.8
aF10.4
asS'YCR067C'
p7741
(lp7742
F4.2
aF28.9
aF17.4
aF51.9
asS'YKR052C'
p7743
(lp7744
F10.8
aF15.0
aF11.6
aF21.1
asS'YMR047C'
p7745
(lp7746
F6.3
aF18.3
aF9.8
aF29.4
asS'YER040W'
p7747
(lp7748
F2.3
aF5.1
aF4.1
aF9.2
asS'YGR221C'
p7749
(lp7750
F6.1
aF28.5
aF19.3
aF44.6
asS'YBL088C'
p7751
(lp7752
F8.2
aF11.7
aF7.9
aF22.7
asS'YDR247W'
p7753
(lp7754
F17.8
aF13.8
aF8.0
aF23.6
asS'YHR086W'
p7755
(lp7756
F3.2
aF5.3
aF4.8
aF7.9
asS'YGR274C'
p7757
(lp7758
F4.0
aF5.1
aF4.4
aF9.3
asS'YLR100W'
p7759
(lp7760
F4.3
aF11.2
aF9.3
aF15.4
asS'YBR015C'
p7761
(lp7762
F2.1
aF4.7
aF4.4
aF6.2
asS'YML055W'
p7763
(lp7764
F2.9
aF4.8
aF4.4
aF6.6
asS'YML088W'
p7765
(lp7766
F1.1
aF3.4
aF3.1
aF5.1
asS'YEL064C'
p7767
(lp7768
F2.2
aF5.4
aF4.3
aF9.2
asS'YER008C'
p7769
(lp7770
F6.6
aF32.4
aF20.5
aF50.1
asS'YIR028W'
p7771
(lp7772
F4.3
aF15.8
aF9.2
aF26.5
asS'YMR127C'
p7773
(lp7774
F2.2
aF4.0
aF3.6
aF7.3
asS'YPL013C'
p7775
(lp7776
F3.9
aF4.9
aF4.3
aF6.5
asS'YHR083W'
p7777
(lp7778
F4.7
aF7.9
aF6.7
aF10.8
asS'YLR192C'
p7779
(lp7780
F5.2
aF10.0
aF7.9
aF13.8
as.